
D:/MP/Code/CH32V/V307_BLDC_DOUBLE_HUE_/KMD/cmake-build-debug/CH32V307WCU6.elf:     file format elf32-littleriscv
D:/MP/Code/CH32V/V307_BLDC_DOUBLE_HUE_/KMD/cmake-build-debug/CH32V307WCU6.elf
architecture: riscv:rv32, flags 0x00000112:
EXEC_P, HAS_SYMS, D_PAGED
start address 0x00000000

Program Header:
    LOAD off    0x00001000 vaddr 0x00000000 paddr 0x00000000 align 2**12
         filesz 0x0000937c memsz 0x0000937c flags rwx
    LOAD off    0x0000b000 vaddr 0x20000000 paddr 0x0000937c align 2**12
         filesz 0x00000090 memsz 0x00000ab0 flags rw-
    LOAD off    0x0000b800 vaddr 0x20007800 paddr 0x20007800 align 2**12
         filesz 0x00000000 memsz 0x00000800 flags rw-

Sections:
Idx Name          Size      VMA       LMA       File off  Algn
  0 .init         00000038  00000000  00000000  00001000  2**1
                  CONTENTS, ALLOC, LOAD, READONLY, CODE
  1 .vector       000001c8  00000038  00000038  00001038  2**1
                  CONTENTS, ALLOC, LOAD, READONLY, CODE
  2 .text         00009178  00000200  00000200  00001200  2**2
                  CONTENTS, ALLOC, LOAD, READONLY, CODE
  3 .fini         00000000  00009378  00009378  0000b090  2**0
                  CONTENTS, ALLOC, LOAD, CODE
  4 .init_array   00000004  00009378  00009378  0000a378  2**2
                  CONTENTS, ALLOC, LOAD, DATA
  5 .dalign       00000000  20000000  20000000  0000b090  2**0
                  CONTENTS
  6 .dlalign      00000000  0000937c  0000937c  0000b090  2**0
                  CONTENTS
  7 .data         00000090  20000000  0000937c  0000b000  2**2
                  CONTENTS, ALLOC, LOAD, DATA
  8 .bss          00000a20  20000090  0000940c  0000b090  2**2
                  ALLOC
  9 .stack        00000800  20007800  20007800  0000b800  2**0
                  ALLOC
 10 .debug_info   00020e89  00000000  00000000  0000b090  2**0
                  CONTENTS, READONLY, DEBUGGING
 11 .debug_abbrev 000037ea  00000000  00000000  0002bf19  2**0
                  CONTENTS, READONLY, DEBUGGING
 12 .debug_loc    0000768b  00000000  00000000  0002f703  2**0
                  CONTENTS, READONLY, DEBUGGING
 13 .debug_aranges 00000b70  00000000  00000000  00036d90  2**3
                  CONTENTS, READONLY, DEBUGGING
 14 .debug_ranges 00000bb0  00000000  00000000  00037900  2**3
                  CONTENTS, READONLY, DEBUGGING
 15 .debug_line   00014bc3  00000000  00000000  000384b0  2**0
                  CONTENTS, READONLY, DEBUGGING
 16 .debug_str    0000b82a  00000000  00000000  0004d073  2**0
                  CONTENTS, READONLY, DEBUGGING
 17 .comment      00000033  00000000  00000000  0005889d  2**0
                  CONTENTS, READONLY
 18 .debug_frame  00001b14  00000000  00000000  000588d0  2**2
                  CONTENTS, READONLY, DEBUGGING
SYMBOL TABLE:
00000000 l    d  .init	00000000 .init
00000038 l    d  .vector	00000000 .vector
00000200 l    d  .text	00000000 .text
00009378 l    d  .fini	00000000 .fini
00009378 l    d  .init_array	00000000 .init_array
20000000 l    d  .dalign	00000000 .dalign
0000937c l    d  .dlalign	00000000 .dlalign
20000000 l    d  .data	00000000 .data
20000090 l    d  .bss	00000000 .bss
20007800 l    d  .stack	00000000 .stack
00000000 l    d  .debug_info	00000000 .debug_info
00000000 l    d  .debug_abbrev	00000000 .debug_abbrev
00000000 l    d  .debug_loc	00000000 .debug_loc
00000000 l    d  .debug_aranges	00000000 .debug_aranges
00000000 l    d  .debug_ranges	00000000 .debug_ranges
00000000 l    d  .debug_line	00000000 .debug_line
00000000 l    d  .debug_str	00000000 .debug_str
00000000 l    d  .comment	00000000 .comment
00000000 l    d  .debug_frame	00000000 .debug_frame
00000000 l    df *ABS*	00000000 CMakeFiles/CH32V307WCU6.elf.dir/Startup/startup_ch32v30x_D8C.S.obj
00000038 l       .vector	00000000 _vector_base
00000000 l    df *ABS*	00000000 debug.c
20000090 l     O .bss	00000002 p_ms
20000092 l     O .bss	00000001 p_us
00000000 l    df *ABS*	00000000 ch32v30x_adc.c
00000000 l    df *ABS*	00000000 ch32v30x_can.c
000004f4 l     F .text	0000000c CheckITStatus
00000000 l    df *ABS*	00000000 ch32v30x_gpio.c
00000000 l    df *ABS*	00000000 ch32v30x_misc.c
00000000 l    df *ABS*	00000000 ch32v30x_rcc.c
00000000 l    df *ABS*	00000000 ch32v30x_tim.c
00000eea l     F .text	000000aa TI1_Config
00000f94 l     F .text	000000b0 TI2_Config
00001044 l     F .text	000000b2 TI3_Config
000010f6 l     F .text	000000b4 TI4_Config
00000000 l    df *ABS*	00000000 ch32v30x_usart.c
00000000 l    df *ABS*	00000000 ch32v30x_usbfs_device.c
00000000 l    df *ABS*	00000000 HardWare.c
200001cc l     O .bss	00000014 CanTxStructure.4981
00000000 l    df *ABS*	00000000 Interrupt.c
00000000 l    df *ABS*	00000000 RealTime_Run.cpp
200000b4 l     O .bss	00000001 USART1_IRQHandler::index
200000b5 l     O .bss	00000001 USART1_IRQHandler::task_num
00000000 l    df *ABS*	00000000 app_main.cpp
0000305a l     F .text	0000034e __static_initialization_and_destruction_0(int, int)
000035ec l     F .text	00000012 _GLOBAL__sub_I_motor
00000000 l    df *ABS*	00000000 motor.cpp
00000000 l    df *ABS*	00000000 system_ch32v30x.c
00004c1a l     F .text	000000b2 SetSysClockTo144_HSE
00004ccc l     F .text	0000000a SetSysClock
00000000 l    df *ABS*	00000000 main.c
00000000 l    df *ABS*	00000000 sf_cos.c
00000000 l    df *ABS*	00000000 sf_floor.c
00000000 l    df *ABS*	00000000 sf_nearbyint.c
00000000 l    df *ABS*	00000000 sf_rint.c
20000084 l     O .data	00000008 TWO23
00000000 l    df *ABS*	00000000 sf_sin.c
00000000 l    df *ABS*	00000000 w_sqrt.c
00000000 l    df *ABS*	00000000 wf_sqrt.c
00000000 l    df *ABS*	00000000 e_sqrt.c
00000000 l    df *ABS*	00000000 ef_rem_pio2.c
00008dd4 l     O .text	00000080 npio2_hw
00008e54 l     O .text	00000318 two_over_pi
00000000 l    df *ABS*	00000000 ef_sqrt.c
00000000 l    df *ABS*	00000000 kf_cos.c
00000000 l    df *ABS*	00000000 kf_rem_pio2.c
0000918c l     O .text	0000002c PIo2
000091c4 l     O .text	0000000c init_jk
00000000 l    df *ABS*	00000000 kf_sin.c
00000000 l    df *ABS*	00000000 s_matherr.c
00000000 l    df *ABS*	00000000 sf_fabs.c
00000000 l    df *ABS*	00000000 sf_scalbn.c
00000000 l    df *ABS*	00000000 sf_copysign.c
00000000 l    df *ABS*	00000000 adddf3.c
00000000 l    df *ABS*	00000000 divdf3.c
00000000 l    df *ABS*	00000000 ledf2.c
00000000 l    df *ABS*	00000000 muldf3.c
00000000 l    df *ABS*	00000000 subdf3.c
00000000 l    df *ABS*	00000000 unorddf2.c
00000000 l    df *ABS*	00000000 extendsfdf2.c
00000000 l    df *ABS*	00000000 truncdfsf2.c
00000000 l    df *ABS*	00000000 libgcc2.c
00000000 l    df *ABS*	00000000 errno.c
00000000 l    df *ABS*	00000000 memcpy.c
00000000 l    df *ABS*	00000000 usb_desc.c
00000000 l    df *ABS*	00000000 libgcc2.c
00000000 l    df *ABS*	00000000 impure.c
20000010 l     O .data	00000060 impure_data
00000000 l    df *ABS*	00000000 s_lib_ver.c
0000151c g     F .text	00000016 TIM_TimeBaseStructInit
000019d0  w      .text	00000000 EXTI2_IRQHandler
00001a1a  w      .text	00000000 TIM8_TRG_COM_IRQHandler
00001a1c  w      .text	00000000 TIM8_CC_IRQHandler
00008b60 g     O .text	00000016 MySerNumInfo
200000ac g     O .bss	00000002 USBFS_SetupReqValue
00001f6e g     F .text	0000001a USARTx_SendByte
000050ee g     F .text	000000b8 sqrt
00001a52  w      .text	00000000 UART8_IRQHandler
20000870 g       .data	00000000 __global_pointer$
00001690 g     F .text	0000001a TIM_SetIC4Prescaler
00000208 g     F .text	00000028 .hidden __riscv_save_8
000019f6  w      .text	00000000 TIM1_CC_IRQHandler
00001f8c g     F .text	00000002 HardFault_Handler
000008b4 g     F .text	0000010a CAN_GetITStatus
000009be g     F .text	000000c2 CAN_ClearITPendingBit
00000608 g     F .text	0000012c CAN_FilterInit
000003bc g     F .text	00000016 ADC_DMACmd
00000254 g     F .text	0000000c .hidden __riscv_restore_3
00001a2c  w      .text	00000000 TIM6_IRQHandler
000015e6 g     F .text	0000000e TIM_OC1PreloadConfig
000019bc  w      .text	00000000 SysTick_Handler
00000c54 g     F .text	0000017e NVIC_Init
000019c2  w      .text	00000000 PVD_IRQHandler
00001a22  w      .text	00000000 SDIO_IRQHandler
00001a54  w      .text	00000000 TIM9_BRK_IRQHandler
00000240 g     F .text	00000020 .hidden __riscv_restore_10
00001a68  w      .text	00000000 DMA2_Channel8_IRQHandler
00001f88 g     F .text	00000004 NMI_Handler
00000eaa g     F .text	00000024 RCC_USBHSPHYPLLALIVEcmd
00001a42  w      .text	00000000 CAN2_RX1_IRQHandler
000019d2  w      .text	00000000 EXTI3_IRQHandler
00000208 g     F .text	00000028 .hidden __riscv_save_11
200000c4 g     O .bss	00000004 pos2
000045c0 g     F .text	000002f0 Motor::get_alpha_beta_output(unsigned long, Motor::float2D*)
00008a26 g     F .text	00000008 __errno
00001798 g     F .text	0000003a USBFS_RCC_Init
00001afa g     F .text	00000060 MY_GPIO_Init
00005422 g     F .text	000002b4 __ieee754_rem_pio2f
00001a4a  w      .text	00000000 USBHS_IRQHandler
00003ee4 g     F .text	00000040 Motor::getInductance()
0000167a g     F .text	00000016 TIM_SetIC3Prescaler
200000bc g     O .bss	00000004 p2
00001730 g     F .text	0000000e USART_GetFlagStatus
00001a6a  w      .text	00000000 DMA2_Channel9_IRQHandler
00001a62  w      .text	00000000 TIM10_CC_IRQHandler
20000090 g       .bss	00000000 _sbss
00000800 g       *ABS*	00000000 __stack_size
000004c2 g     F .text	0000000e ADC_GetFlagStatus
200000a8 g     O .bss	00000002 USBFS_SetupReqLen
000051a6 g     F .text	000000a6 sqrtf
00000254 g     F .text	0000000c .hidden __riscv_restore_2
00000ece g     F .text	0000001c RCC_USBCLK48MConfig
00003a92 g     F .text	000001e8 Motor::measureResistance()
00008b24 g     O .text	00000012 MyDevDescr
00001570 g     F .text	00000024 TIM_CtrlPWMOutputs
00008a2e g     F .text	000000b2 memcpy
000003a8 g     F .text	00000014 ADC_Cmd
00003898 g     F .text	00000022 Motor::start()
00000b66 g     F .text	000000e8 GPIO_PinRemapConfig
0000739e g     F .text	000000b6 .hidden __ltdf2
000019cc  w      .text	00000000 EXTI0_IRQHandler
00001a02  w      .text	00000000 I2C2_EV_IRQHandler
00001a60  w      .text	00000000 TIM10_TRG_COM_IRQHandler
00001554 g     F .text	0000001c TIM_Cmd
00001618 g     F .text	00000016 TIM_OC4PreloadConfig
000039a2 g     F .text	000000f0 Motor::measure_currents(unsigned short, unsigned short, unsigned short)
20000074 g     O .data	00000004 SystemCoreClock
2000010c g     O .bss	00000040 USBFS_EP1_Buf
00001728 g     F .text	00000008 USART_ReceiveData
00001714 g     F .text	0000000c TIM_ClearFlag
00004a0c g     F .text	0000010c Motor::positionLoop(unsigned long)
00000038 g       .init	00000000 _einit
00000e76 g     F .text	0000001a RCC_USBHSPLLCLKConfig
00000e02 g     F .text	0000001e RCC_APB2PeriphClockCmd
00000200 g     F .text	00000030 .hidden __riscv_save_12
00001a44  w      .text	00000000 CAN2_SCE_IRQHandler
0000290c g     F .text	00000612 ADC1_2_IRQHandler
00000a80 g     F .text	000000d0 GPIO_Init
00000dd2 g     F .text	00000012 RCC_ADCCLKConfig
000019ba  w      .text	00000000 Break_Point_Handler
00000240 g     F .text	00000020 .hidden __riscv_restore_11
20000094 g     O .bss	00000004 NVIC_Priority_Group
00001a06  w      .text	00000000 SPI1_IRQHandler
00003f24 g     F .text	00000016 Motor::shut()
000019c4  w      .text	00000000 TAMPER_IRQHandler
00000230 g     F .text	0000000c .hidden __riscv_save_1
20000080 g     O .data	00000004 MyLangDescr
00000254 g     F .text	0000000c .hidden __riscv_restore_0
0000607c g     F .text	0000000e fabsf
000013a6 g     F .text	000000ba TIM_OC3Init
00000216 g     F .text	0000001a .hidden __riscv_save_7
00001780 g     F .text	00000018 USART_ClearITPendingBit
00001a40  w      .text	00000000 CAN2_RX0_IRQHandler
00000404 g     F .text	0000007e ADC_InjectedChannelConfig
000085b2 g     F .text	000000e8 .hidden __extendsfdf2
00001a18  w      .text	00000000 TIM8_UP_IRQHandler
00000e20 g     F .text	0000001e RCC_APB1PeriphClockCmd
000061a6 g     F .text	00000a0e .hidden __adddf3
000019b6  w      .text	00000000 Ecall_M_Mode_Handler
00008ae0 g     O .text	00000043 MyCfgDescr
20000078 g     O .data	00000004 __fdlib_version
0000028c g     F .text	0000003e Delay_Us
0000024a g     F .text	00000016 .hidden __riscv_restore_5
00005fd6 g     F .text	000000a2 __kernel_sinf
00001706 g     F .text	0000000e TIM_GetFlagStatus
00001a32  w      .text	00000000 DMA2_Channel2_IRQHandler
00000de4 g     F .text	0000001e RCC_AHBPeriphClockCmd
000019dc  w      .text	00000000 DMA1_Channel4_IRQHandler
00001f8e g     F .text	00000066 Interrupt_Configuration
00003cae g     F .text	00000236 Motor::measureInductance(unsigned long)
00008b38 g     O .text	0000000e MyManuInfo
00004e76 g     F .text	0000007a cosf
00001a56  w      .text	00000000 TIM9_UP_IRQHandler
0000024a g     F .text	00000016 .hidden __riscv_restore_6
00001a0e  w      .text	00000000 USART3_IRQHandler
000019c6  w      .text	00000000 RTC_IRQHandler
20000099 g     O .bss	00000001 USBFS_DevConfig
20000ab0 g       .bss	00000000 _ebss
0000173e g     F .text	00000042 USART_GetITStatus
000019e2  w      .text	00000000 DMA1_Channel7_IRQHandler
00001268 g     F .text	00000082 TIM_OC1Init
0000160a g     F .text	0000000e TIM_OC3PreloadConfig
00000e90 g     F .text	0000001a RCC_USBHSPLLCKREFCLKConfig
00004b18 g     F .text	00000102 Motor::go_zero()
000019ea  w      .text	00000000 CAN1_RX1_IRQHandler
200001e0 g     O .bss	00000014 CanRxStructure
00000260 g     F .text	0000002c Delay_Init
00001a4c  w      .text	00000000 DVP_IRQHandler
00001b5a g     F .text	0000016e MY_TIM1_Init
00001a2a  w      .text	00000000 UART5_IRQHandler
0000273a g     F .text	00000016 OpenMV_SendoneByte
000057a2 g     F .text	00000140 __kernel_cosf
200000b8 g     O .bss	00000004 p1
000038ba g     F .text	000000e8 Motor::apply_pwm_timings()
00001e60 g     F .text	000000c8 MY_CAN_Init
200000a6 g     O .bss	00000002 USBFS_SetupReqIndex
00000b5e g     F .text	00000004 GPIO_SetBits
00002f1e g     F .text	00000092 TIM4_IRQHandler
0000739e g     F .text	000000b6 .hidden __ledf2
00000208 g     F .text	00000028 .hidden __riscv_save_9
00001a30  w      .text	00000000 DMA2_Channel1_IRQHandler
00001d88 g     F .text	000000d8 MY_ADC_Init
200000aa g     O .bss	00000001 USBFS_SetupReqType
00000216 g     F .text	0000001a .hidden __riscv_save_4
000019fe  w      .text	00000000 I2C1_EV_IRQHandler
000035fe g     F .text	0000029a Motor::Init(TIM_TypeDef*, TIM_TypeDef*)
200000b6 g     O .bss	00000001 mode
2000009c g     O .bss	00000008 USBFS_Endp_Busy
000019e0  w      .text	00000000 DMA1_Channel6_IRQHandler
000089b8 g     F .text	0000006e .hidden __clzsi2
00001a28  w      .text	00000000 UART4_IRQHandler
00001a36  w      .text	00000000 DMA2_Channel4_IRQHandler
000019fa  w      .text	00000000 TIM3_IRQHandler
000019ca  w      .text	00000000 RCC_IRQHandler
0000080c g     F .text	0000008a CAN_Receive
00000230 g     F .text	0000000c .hidden __riscv_save_3
000019f4  w      .text	00000000 TIM1_TRG_COM_IRQHandler
00000500 g     F .text	00000108 CAN_Init
200000c0 g     O .bss	00000004 pos1
00001cc8 g     F .text	000000c0 MY_TIM3_Init
000019d6  w      .text	00000000 DMA1_Channel1_IRQHandler
00000000 g       .init	00000000 _start
00001a66  w      .text	00000000 DMA2_Channel7_IRQHandler
20000000 g     O .data	00000010 AHBPrescTable
0000188e g     F .text	00000124 USBFS_Endp_DataUp
000015f4 g     F .text	00000016 TIM_OC2PreloadConfig
00001a10  w      .text	00000000 EXTI15_10_IRQHandler
00001594 g     F .text	00000016 TIM_ITConfig
000012ea g     F .text	000000bc TIM_OC2Init
200000a4 g     O .bss	00000001 USBFS_SetupReqCode
2000014c g     O .bss	00000040 USBFS_EP2_Buf
00000e5c g     F .text	0000001a RCC_USBHSConfig
00000b62 g     F .text	00000004 GPIO_ResetBits
0000162e g     F .text	00000018 TIM_SelectOutputTrigger
00001a2e  w      .text	00000000 TIM7_IRQHandler
2000009a g     O .bss	00000001 USBFS_DevEnumStatus
00001a3e  w      .text	00000000 CAN2_TX_IRQHandler
20000000 g       .dalign	00000000 _data_vma
00001a24  w      .text	00000000 TIM5_IRQHandler
0000089e g     F .text	00000016 CAN_ITConfig
00001460 g     F .text	00000090 TIM_OC4Init
2000025c g     O .bss	00000024 vofa_float
000019ee  w      .text	00000000 EXTI9_5_IRQHandler
00006bb4 g     F .text	000007ea .hidden __divdf3
20000098 g     O .bss	00000001 USBFS_DevAddr
00007454 g     F .text	00000656 .hidden __muldf3
00000208 g     F .text	00000028 .hidden __riscv_save_10
00001a3c  w      .text	00000000 ETH_WKUP_IRQHandler
000048b0 g     F .text	00000020 Motor::update_current_controller_gains()
0000164a g     F .text	00000016 TIM_SetIC1Prescaler
0000024a g     F .text	00000016 .hidden __riscv_restore_4
00000240 g     F .text	00000020 .hidden __riscv_restore_8
0000608a g     F .text	00000100 scalbnf
00000216 g     F .text	0000001a .hidden __riscv_save_6
00001a08  w      .text	00000000 SPI2_IRQHandler
000056d6 g     F .text	000000cc __ieee754_sqrtf
00000240 g     F .text	00000020 .hidden __riscv_restore_9
0000024a g     F .text	00000016 .hidden __riscv_restore_7
00004e42 g     F .text	00000034 main
00001a5c  w      .text	00000000 TIM10_BRK_IRQHandler
00001a5a  w      .text	00000000 TIM9_CC_IRQHandler
00006078 g     F .text	00000004 matherr
00001a38  w      .text	00000000 DMA2_Channel5_IRQHandler
0000869a g     F .text	0000031e .hidden __truncdfsf2
2000009b g     O .bss	00000001 USBFS_DevSleepStatus
000019de  w      .text	00000000 DMA1_Channel5_IRQHandler
00001646 g     F .text	00000004 TIM_SetCounter
000019d4  w      .text	00000000 EXTI4_IRQHandler
000002ca g     F .text	0000003e Delay_Ms
00001834 g     F .text	0000005a USBFS_Device_Init
00002fb0 g     F .text	000000aa USB_LP_CAN1_RX0_IRQHandler
00008b48 g     O .text	00000016 MyProdInfo
00001f28 g     F .text	00000046 CAN_Send_Msg
000004d8 g     F .text	0000001c ADC_BufferCmd
200001f4 g     O .bss	00000040 USART_Rbuffer
000017d2 g     F .text	00000062 USBFS_Device_Endp_Init
00004cd6 g     F .text	0000005a SystemInit
00001a1e  w      .text	00000000 RNG_IRQHandler
000016aa g     F .text	0000005c TIM_ICInit
00000482 g     F .text	00000014 ADC_InjectedSequencerLengthConfig
0000618a g     F .text	0000001c copysignf
000019e6  w      .text	00000000 USB_HP_CAN1_TX_IRQHandler
00009278 g     O .text	00000100 .hidden __clz_tab
00000000 g       .init	00000000 _sinit
000019da  w      .text	00000000 DMA1_Channel3_IRQHandler
00003f3a g     F .text	00000286 Motor::measurePhasePhaseVel()
00001a20  w      .text	00000000 FSMC_IRQHandler
00003c7a g     F .text	00000034 Motor::getResistance()
000003d2 g     F .text	0000001a ADC_ITConfig
00001a3a  w      .text	00000000 ETH_IRQHandler
2000007c g     O .data	00000004 _impure_ptr
000019f2  w      .text	00000000 TIM1_UP_IRQHandler
000019c0  w      .text	00000000 WWDG_IRQHandler
00001a48  w      .text	00000000 USBHSWakeup_IRQHandler
00001a6e  w      .text	00000000 DMA2_Channel11_IRQHandler
000004d0 g     F .text	00000008 ADC_ClearFlag
000019b8  w      .text	00000000 Ecall_U_Mode_Handler
00001a64  w      .text	00000000 DMA2_Channel6_IRQHandler
000019f8  w      .text	00000000 TIM2_IRQHandler
20008000 g       .stack	00000000 _eusrstack
00005076 g     F .text	00000078 sinf
00000230 g     F .text	0000000c .hidden __riscv_save_2
000019be  w      .text	00000000 SW_Handler
00000b50 g     F .text	0000000e GPIO_StructInit
00000308 g     F .text	0000004a ADC_DeInit
00001532 g     F .text	00000022 TIM_OCStructInit
20000280 g     O .bss	00000830 motor
0000524c g     F .text	000001d6 __ieee754_sqrt
000019f0  w      .text	00000000 TIM1_BRK_IRQHandler
000003ec g     F .text	00000018 ADC_ExternalTrigInjectedConvCmd
00000352 g     F .text	00000056 ADC_Init
00001720 g     F .text	00000008 USART_SendData
00001a6c  w      .text	00000000 DMA2_Channel10_IRQHandler
000019ce  w      .text	00000000 EXTI1_IRQHandler
000048d0 g     F .text	0000013c Motor::velovityLoop(unsigned long)
00000216 g     F .text	0000001a .hidden __riscv_save_5
00000496 g     F .text	0000002c ADC_TempSensorVrefintCmd
200000cc g     O .bss	00000040 USBFS_EP0_Buf
20000090 g       .data	00000000 _edata
00002750 g     F .text	00000022 xiaociandchongci
200000b0 g     O .bss	00000004 pUSBFS_Descr
000011aa g     F .text	000000be TIM_TimeBaseInit
00001a12  w      .text	00000000 RTCAlarm_IRQHandler
20000234 g     O .bss	00000028 vofa_data
0000937c g       .dlalign	00000000 _data_lma
00001a5e  w      .text	00000000 TIM10_UP_IRQHandler
00001a58  w      .text	00000000 TIM9_TRG_COM_IRQHandler
00001a50  w      .text	00000000 UART7_IRQHandler
00001a0c  w      .text	00000000 USART2_IRQHandler
00001a4e  w      .text	00000000 UART6_IRQHandler
00000896 g     F .text	00000008 CAN_GetLastErrorCode
00004d30 g     F .text	00000112 SystemCoreClockUpdate
200000c8 g     O .bss	00000004 timestamp_
00001a04  w      .text	00000000 I2C2_ER_IRQHandler
000019d8  w      .text	00000000 DMA1_Channel2_IRQHandler
0000023c g     F .text	00000024 .hidden __riscv_restore_12
00001a16  w      .text	00000000 TIM8_BRK_IRQHandler
000041c0 g     F .text	00000400 Motor::measureEncoder(unsigned long)
000014f0 g     F .text	0000002c TIM_BDTRConfig
00008536 g     F .text	0000007c .hidden __unorddf2
00001a70  w      .text	00000000 handle_reset
000019ec  w      .text	00000000 CAN1_SCE_IRQHandler
000019c8  w      .text	00000000 FLASH_IRQHandler
00000230 g     F .text	0000000c .hidden __riscv_save_0
000058e2 g     F .text	000006f4 __kernel_rem_pio2f
00002772 g     F .text	0000019a USART1_IRQHandler
00004fa4 g     F .text	000000d2 rintf
00001ff4 g     F .text	00000746 OTG_FS_IRQHandler
000033a8 g     F .text	00000244 app_main
00001660 g     F .text	0000001a TIM_SetIC2Prescaler
00001a26  w      .text	00000000 SPI3_IRQHandler
20000070 g     O .data	00000004 SelectState
00000e3e g     F .text	0000001e RCC_APB2PeriphResetCmd
00001a00  w      .text	00000000 I2C1_ER_IRQHandler
2000018c g     O .bss	00000040 USBFS_EP3_Buf
00004ef0 g     F .text	000000b2 floorf
00000c4e g     F .text	00000006 NVIC_PriorityGroupConfig
00004fa2 g     F .text	00000002 nearbyintf
00000254 g     F .text	0000000c .hidden __riscv_restore_1
000015aa g     F .text	0000003c TIM_EncoderInterfaceConfig
00007aaa g     F .text	00000a8c .hidden __subdf3
00000734 g     F .text	000000d8 CAN_Transmit
00001a14  w      .text	00000000 USBWakeUp_IRQHandler
00001a34  w      .text	00000000 DMA2_Channel3_IRQHandler



Disassembly of section .init:

00000000 <_sinit>:
   0:	2710106f          	j	1a70 <handle_reset>
   4:	00000013          	nop
   8:	00000013          	nop
   c:	00000013          	nop
  10:	00000013          	nop
  14:	00000013          	nop
  18:	00000013          	nop
  1c:	00000013          	nop
  20:	00000013          	nop
  24:	00000013          	nop
  28:	00000013          	nop
  2c:	00000013          	nop
  30:	00000013          	nop
  34:	00100073          	ebreak

Disassembly of section .vector:

00000038 <_vector_base>:
	...
  40:	1f88                	addi	a0,sp,1008
  42:	0000                	unimp
  44:	1f8c                	addi	a1,sp,1008
  46:	0000                	unimp
  48:	0000                	unimp
  4a:	0000                	unimp
  4c:	19b6                	slli	s3,s3,0x2d
	...
  56:	0000                	unimp
  58:	19b8                	addi	a4,sp,248
  5a:	0000                	unimp
  5c:	19ba                	slli	s3,s3,0x2e
	...
  66:	0000                	unimp
  68:	19bc                	addi	a5,sp,248
  6a:	0000                	unimp
  6c:	0000                	unimp
  6e:	0000                	unimp
  70:	19be                	slli	s3,s3,0x2f
  72:	0000                	unimp
  74:	0000                	unimp
  76:	0000                	unimp
  78:	19c0                	addi	s0,sp,244
  7a:	0000                	unimp
  7c:	19c2                	slli	s3,s3,0x30
  7e:	0000                	unimp
  80:	19c4                	addi	s1,sp,244
  82:	0000                	unimp
  84:	19c6                	slli	s3,s3,0x31
  86:	0000                	unimp
  88:	19c8                	addi	a0,sp,244
  8a:	0000                	unimp
  8c:	19ca                	slli	s3,s3,0x32
  8e:	0000                	unimp
  90:	19cc                	addi	a1,sp,244
  92:	0000                	unimp
  94:	19ce                	slli	s3,s3,0x33
  96:	0000                	unimp
  98:	19d0                	addi	a2,sp,244
  9a:	0000                	unimp
  9c:	19d2                	slli	s3,s3,0x34
  9e:	0000                	unimp
  a0:	19d4                	addi	a3,sp,244
  a2:	0000                	unimp
  a4:	19d6                	slli	s3,s3,0x35
  a6:	0000                	unimp
  a8:	19d8                	addi	a4,sp,244
  aa:	0000                	unimp
  ac:	19da                	slli	s3,s3,0x36
  ae:	0000                	unimp
  b0:	19dc                	addi	a5,sp,244
  b2:	0000                	unimp
  b4:	19de                	slli	s3,s3,0x37
  b6:	0000                	unimp
  b8:	19e0                	addi	s0,sp,252
  ba:	0000                	unimp
  bc:	19e2                	slli	s3,s3,0x38
  be:	0000                	unimp
  c0:	290c                	fld	fa1,16(a0)
  c2:	0000                	unimp
  c4:	19e6                	slli	s3,s3,0x39
  c6:	0000                	unimp
  c8:	2fb0                	fld	fa2,88(a5)
  ca:	0000                	unimp
  cc:	19ea                	slli	s3,s3,0x3a
  ce:	0000                	unimp
  d0:	19ec                	addi	a1,sp,252
  d2:	0000                	unimp
  d4:	19ee                	slli	s3,s3,0x3b
  d6:	0000                	unimp
  d8:	19f0                	addi	a2,sp,252
  da:	0000                	unimp
  dc:	19f2                	slli	s3,s3,0x3c
  de:	0000                	unimp
  e0:	19f4                	addi	a3,sp,252
  e2:	0000                	unimp
  e4:	19f6                	slli	s3,s3,0x3d
  e6:	0000                	unimp
  e8:	19f8                	addi	a4,sp,252
  ea:	0000                	unimp
  ec:	19fa                	slli	s3,s3,0x3e
  ee:	0000                	unimp
  f0:	2f1e                	fld	ft10,448(sp)
  f2:	0000                	unimp
  f4:	19fe                	slli	s3,s3,0x3f
  f6:	0000                	unimp
  f8:	1a00                	addi	s0,sp,304
  fa:	0000                	unimp
  fc:	1a02                	slli	s4,s4,0x20
  fe:	0000                	unimp
 100:	1a04                	addi	s1,sp,304
 102:	0000                	unimp
 104:	1a06                	slli	s4,s4,0x21
 106:	0000                	unimp
 108:	1a08                	addi	a0,sp,304
 10a:	0000                	unimp
 10c:	2772                	fld	fa4,280(sp)
 10e:	0000                	unimp
 110:	1a0c                	addi	a1,sp,304
 112:	0000                	unimp
 114:	1a0e                	slli	s4,s4,0x23
 116:	0000                	unimp
 118:	1a10                	addi	a2,sp,304
 11a:	0000                	unimp
 11c:	1a12                	slli	s4,s4,0x24
 11e:	0000                	unimp
 120:	1a14                	addi	a3,sp,304
 122:	0000                	unimp
 124:	1a16                	slli	s4,s4,0x25
 126:	0000                	unimp
 128:	1a18                	addi	a4,sp,304
 12a:	0000                	unimp
 12c:	1a1a                	slli	s4,s4,0x26
 12e:	0000                	unimp
 130:	1a1c                	addi	a5,sp,304
 132:	0000                	unimp
 134:	1a1e                	slli	s4,s4,0x27
 136:	0000                	unimp
 138:	1a20                	addi	s0,sp,312
 13a:	0000                	unimp
 13c:	1a22                	slli	s4,s4,0x28
 13e:	0000                	unimp
 140:	1a24                	addi	s1,sp,312
 142:	0000                	unimp
 144:	1a26                	slli	s4,s4,0x29
 146:	0000                	unimp
 148:	1a28                	addi	a0,sp,312
 14a:	0000                	unimp
 14c:	1a2a                	slli	s4,s4,0x2a
 14e:	0000                	unimp
 150:	1a2c                	addi	a1,sp,312
 152:	0000                	unimp
 154:	1a2e                	slli	s4,s4,0x2b
 156:	0000                	unimp
 158:	1a30                	addi	a2,sp,312
 15a:	0000                	unimp
 15c:	1a32                	slli	s4,s4,0x2c
 15e:	0000                	unimp
 160:	1a34                	addi	a3,sp,312
 162:	0000                	unimp
 164:	1a36                	slli	s4,s4,0x2d
 166:	0000                	unimp
 168:	1a38                	addi	a4,sp,312
 16a:	0000                	unimp
 16c:	1a3a                	slli	s4,s4,0x2e
 16e:	0000                	unimp
 170:	1a3c                	addi	a5,sp,312
 172:	0000                	unimp
 174:	1a3e                	slli	s4,s4,0x2f
 176:	0000                	unimp
 178:	1a40                	addi	s0,sp,308
 17a:	0000                	unimp
 17c:	1a42                	slli	s4,s4,0x30
 17e:	0000                	unimp
 180:	1a44                	addi	s1,sp,308
 182:	0000                	unimp
 184:	1ff4                	addi	a3,sp,1020
 186:	0000                	unimp
 188:	1a48                	addi	a0,sp,308
 18a:	0000                	unimp
 18c:	1a4a                	slli	s4,s4,0x32
 18e:	0000                	unimp
 190:	1a4c                	addi	a1,sp,308
 192:	0000                	unimp
 194:	1a4e                	slli	s4,s4,0x33
 196:	0000                	unimp
 198:	1a50                	addi	a2,sp,308
 19a:	0000                	unimp
 19c:	1a52                	slli	s4,s4,0x34
 19e:	0000                	unimp
 1a0:	1a54                	addi	a3,sp,308
 1a2:	0000                	unimp
 1a4:	1a56                	slli	s4,s4,0x35
 1a6:	0000                	unimp
 1a8:	1a58                	addi	a4,sp,308
 1aa:	0000                	unimp
 1ac:	1a5a                	slli	s4,s4,0x36
 1ae:	0000                	unimp
 1b0:	1a5c                	addi	a5,sp,308
 1b2:	0000                	unimp
 1b4:	1a5e                	slli	s4,s4,0x37
 1b6:	0000                	unimp
 1b8:	1a60                	addi	s0,sp,316
 1ba:	0000                	unimp
 1bc:	1a62                	slli	s4,s4,0x38
 1be:	0000                	unimp
 1c0:	1a64                	addi	s1,sp,316
 1c2:	0000                	unimp
 1c4:	1a66                	slli	s4,s4,0x39
 1c6:	0000                	unimp
 1c8:	1a68                	addi	a0,sp,316
 1ca:	0000                	unimp
 1cc:	1a6a                	slli	s4,s4,0x3a
 1ce:	0000                	unimp
 1d0:	1a6c                	addi	a1,sp,316
 1d2:	0000                	unimp
 1d4:	1a6e                	slli	s4,s4,0x3b
	...

Disassembly of section .text:

00000200 <__riscv_save_12>:
     200:	7139                	addi	sp,sp,-64
     202:	4301                	li	t1,0
     204:	c66e                	sw	s11,12(sp)
     206:	a019                	j	20c <__riscv_save_10+0x4>

00000208 <__riscv_save_10>:
     208:	7139                	addi	sp,sp,-64
     20a:	5341                	li	t1,-16
     20c:	c86a                	sw	s10,16(sp)
     20e:	ca66                	sw	s9,20(sp)
     210:	cc62                	sw	s8,24(sp)
     212:	ce5e                	sw	s7,28(sp)
     214:	a019                	j	21a <__riscv_save_4+0x4>

00000216 <__riscv_save_4>:
     216:	7139                	addi	sp,sp,-64
     218:	5301                	li	t1,-32
     21a:	d05a                	sw	s6,32(sp)
     21c:	d256                	sw	s5,36(sp)
     21e:	d452                	sw	s4,40(sp)
     220:	d64e                	sw	s3,44(sp)
     222:	d84a                	sw	s2,48(sp)
     224:	da26                	sw	s1,52(sp)
     226:	dc22                	sw	s0,56(sp)
     228:	de06                	sw	ra,60(sp)
     22a:	40610133          	sub	sp,sp,t1
     22e:	8282                	jr	t0

00000230 <__riscv_save_0>:
     230:	1141                	addi	sp,sp,-16
     232:	c04a                	sw	s2,0(sp)
     234:	c226                	sw	s1,4(sp)
     236:	c422                	sw	s0,8(sp)
     238:	c606                	sw	ra,12(sp)
     23a:	8282                	jr	t0

0000023c <__riscv_restore_12>:
     23c:	4db2                	lw	s11,12(sp)
     23e:	0141                	addi	sp,sp,16

00000240 <__riscv_restore_10>:
     240:	4d02                	lw	s10,0(sp)
     242:	4c92                	lw	s9,4(sp)
     244:	4c22                	lw	s8,8(sp)
     246:	4bb2                	lw	s7,12(sp)
     248:	0141                	addi	sp,sp,16

0000024a <__riscv_restore_4>:
     24a:	4b02                	lw	s6,0(sp)
     24c:	4a92                	lw	s5,4(sp)
     24e:	4a22                	lw	s4,8(sp)
     250:	49b2                	lw	s3,12(sp)
     252:	0141                	addi	sp,sp,16

00000254 <__riscv_restore_0>:
     254:	4902                	lw	s2,0(sp)
     256:	4492                	lw	s1,4(sp)
     258:	4422                	lw	s0,8(sp)
     25a:	40b2                	lw	ra,12(sp)
     25c:	0141                	addi	sp,sp,16
     25e:	8082                	ret

00000260 <Delay_Init>:
     260:	20000797          	auipc	a5,0x20000
     264:	e1478793          	addi	a5,a5,-492 # 20000074 <SystemCoreClock>
     268:	439c                	lw	a5,0(a5)
     26a:	007a1737          	lui	a4,0x7a1
     26e:	20070713          	addi	a4,a4,512 # 7a1200 <_data_lma+0x797e84>
     272:	02e7d7b3          	divu	a5,a5,a4
     276:	0ff7f793          	andi	a5,a5,255
     27a:	82f18123          	sb	a5,-2014(gp) # 20000092 <p_us>
     27e:	3e800713          	li	a4,1000
     282:	02e787b3          	mul	a5,a5,a4
     286:	82f19023          	sh	a5,-2016(gp) # 20000090 <_edata>
     28a:	8082                	ret

0000028c <Delay_Us>:
     28c:	e000f7b7          	lui	a5,0xe000f
     290:	43d8                	lw	a4,4(a5)
     292:	9b79                	andi	a4,a4,-2
     294:	c3d8                	sw	a4,4(a5)
     296:	8221c703          	lbu	a4,-2014(gp) # 20000092 <p_us>
     29a:	02a70633          	mul	a2,a4,a0
     29e:	4681                	li	a3,0
     2a0:	cb90                	sw	a2,16(a5)
     2a2:	cbd4                	sw	a3,20(a5)
     2a4:	4398                	lw	a4,0(a5)
     2a6:	01076713          	ori	a4,a4,16
     2aa:	c398                	sw	a4,0(a5)
     2ac:	4398                	lw	a4,0(a5)
     2ae:	02176713          	ori	a4,a4,33
     2b2:	c398                	sw	a4,0(a5)
     2b4:	e000f7b7          	lui	a5,0xe000f
     2b8:	43dc                	lw	a5,4(a5)
     2ba:	8b85                	andi	a5,a5,1
     2bc:	dfe5                	beqz	a5,2b4 <Delay_Us+0x28>
     2be:	e000f737          	lui	a4,0xe000f
     2c2:	431c                	lw	a5,0(a4)
     2c4:	9bf9                	andi	a5,a5,-2
     2c6:	c31c                	sw	a5,0(a4)
     2c8:	8082                	ret

000002ca <Delay_Ms>:
     2ca:	e000f7b7          	lui	a5,0xe000f
     2ce:	43d8                	lw	a4,4(a5)
     2d0:	9b79                	andi	a4,a4,-2
     2d2:	c3d8                	sw	a4,4(a5)
     2d4:	8201d703          	lhu	a4,-2016(gp) # 20000090 <_edata>
     2d8:	02a70633          	mul	a2,a4,a0
     2dc:	4681                	li	a3,0
     2de:	cb90                	sw	a2,16(a5)
     2e0:	cbd4                	sw	a3,20(a5)
     2e2:	4398                	lw	a4,0(a5)
     2e4:	01076713          	ori	a4,a4,16
     2e8:	c398                	sw	a4,0(a5)
     2ea:	4398                	lw	a4,0(a5)
     2ec:	02176713          	ori	a4,a4,33
     2f0:	c398                	sw	a4,0(a5)
     2f2:	e000f7b7          	lui	a5,0xe000f
     2f6:	43dc                	lw	a5,4(a5)
     2f8:	8b85                	andi	a5,a5,1
     2fa:	dfe5                	beqz	a5,2f2 <Delay_Ms+0x28>
     2fc:	e000f737          	lui	a4,0xe000f
     300:	431c                	lw	a5,0(a4)
     302:	9bf9                	andi	a5,a5,-2
     304:	c31c                	sw	a5,0(a4)
     306:	8082                	ret

00000308 <ADC_DeInit>:
     308:	f29ff2ef          	jal	t0,230 <__riscv_save_0>
     30c:	400127b7          	lui	a5,0x40012
     310:	40078793          	addi	a5,a5,1024 # 40012400 <_eusrstack+0x2000a400>
     314:	00f50963          	beq	a0,a5,326 <ADC_DeInit+0x1e>
     318:	400137b7          	lui	a5,0x40013
     31c:	80078793          	addi	a5,a5,-2048 # 40012800 <_eusrstack+0x2000a800>
     320:	00f50e63          	beq	a0,a5,33c <ADC_DeInit+0x34>
     324:	bf05                	j	254 <__riscv_restore_0>
     326:	4585                	li	a1,1
     328:	20000513          	li	a0,512
     32c:	313000ef          	jal	ra,e3e <RCC_APB2PeriphResetCmd>
     330:	4581                	li	a1,0
     332:	20000513          	li	a0,512
     336:	309000ef          	jal	ra,e3e <RCC_APB2PeriphResetCmd>
     33a:	b7ed                	j	324 <ADC_DeInit+0x1c>
     33c:	4585                	li	a1,1
     33e:	40000513          	li	a0,1024
     342:	2fd000ef          	jal	ra,e3e <RCC_APB2PeriphResetCmd>
     346:	4581                	li	a1,0
     348:	40000513          	li	a0,1024
     34c:	2f3000ef          	jal	ra,e3e <RCC_APB2PeriphResetCmd>
     350:	bfd1                	j	324 <ADC_DeInit+0x1c>

00000352 <ADC_Init>:
     352:	415c                	lw	a5,4(a0)
     354:	e0f10737          	lui	a4,0xe0f10
     358:	eff70713          	addi	a4,a4,-257 # e0f0feff <_eusrstack+0xc0f07eff>
     35c:	8f7d                	and	a4,a4,a5
     35e:	419c                	lw	a5,0(a1)
     360:	4d94                	lw	a3,24(a1)
     362:	8fd5                	or	a5,a5,a3
     364:	4dd4                	lw	a3,28(a1)
     366:	8fd5                	or	a5,a5,a3
     368:	41d4                	lw	a3,4(a1)
     36a:	06a2                	slli	a3,a3,0x8
     36c:	8fd5                	or	a5,a5,a3
     36e:	8fd9                	or	a5,a5,a4
     370:	c15c                	sw	a5,4(a0)
     372:	451c                	lw	a5,8(a0)
     374:	fff1f737          	lui	a4,0xfff1f
     378:	7fd70713          	addi	a4,a4,2045 # fff1f7fd <_eusrstack+0xdff177fd>
     37c:	8f7d                	and	a4,a4,a5
     37e:	499c                	lw	a5,16(a1)
     380:	45d4                	lw	a3,12(a1)
     382:	8fd5                	or	a5,a5,a3
     384:	4594                	lw	a3,8(a1)
     386:	0686                	slli	a3,a3,0x1
     388:	8fd5                	or	a5,a5,a3
     38a:	8fd9                	or	a5,a5,a4
     38c:	c51c                	sw	a5,8(a0)
     38e:	555c                	lw	a5,44(a0)
     390:	ff100737          	lui	a4,0xff100
     394:	177d                	addi	a4,a4,-1
     396:	8f7d                	and	a4,a4,a5
     398:	29dc                	fld	fa5,144(a1)
     39a:	17fd                	addi	a5,a5,-1
     39c:	0ff7f793          	andi	a5,a5,255
     3a0:	07d2                	slli	a5,a5,0x14
     3a2:	8fd9                	or	a5,a5,a4
     3a4:	d55c                	sw	a5,44(a0)
     3a6:	8082                	ret

000003a8 <ADC_Cmd>:
     3a8:	c591                	beqz	a1,3b4 <ADC_Cmd+0xc>
     3aa:	451c                	lw	a5,8(a0)
     3ac:	0017e793          	ori	a5,a5,1
     3b0:	c51c                	sw	a5,8(a0)
     3b2:	8082                	ret
     3b4:	451c                	lw	a5,8(a0)
     3b6:	9bf9                	andi	a5,a5,-2
     3b8:	c51c                	sw	a5,8(a0)
     3ba:	8082                	ret

000003bc <ADC_DMACmd>:
     3bc:	c591                	beqz	a1,3c8 <ADC_DMACmd+0xc>
     3be:	451c                	lw	a5,8(a0)
     3c0:	1007e793          	ori	a5,a5,256
     3c4:	c51c                	sw	a5,8(a0)
     3c6:	8082                	ret
     3c8:	451c                	lw	a5,8(a0)
     3ca:	eff7f793          	andi	a5,a5,-257
     3ce:	c51c                	sw	a5,8(a0)
     3d0:	8082                	ret

000003d2 <ADC_ITConfig>:
     3d2:	0ff5f593          	andi	a1,a1,255
     3d6:	c609                	beqz	a2,3e0 <ADC_ITConfig+0xe>
     3d8:	415c                	lw	a5,4(a0)
     3da:	8ddd                	or	a1,a1,a5
     3dc:	c14c                	sw	a1,4(a0)
     3de:	8082                	ret
     3e0:	415c                	lw	a5,4(a0)
     3e2:	fff5c593          	not	a1,a1
     3e6:	8dfd                	and	a1,a1,a5
     3e8:	c14c                	sw	a1,4(a0)
     3ea:	8082                	ret

000003ec <ADC_ExternalTrigInjectedConvCmd>:
     3ec:	c591                	beqz	a1,3f8 <ADC_ExternalTrigInjectedConvCmd+0xc>
     3ee:	451c                	lw	a5,8(a0)
     3f0:	6721                	lui	a4,0x8
     3f2:	8fd9                	or	a5,a5,a4
     3f4:	c51c                	sw	a5,8(a0)
     3f6:	8082                	ret
     3f8:	451c                	lw	a5,8(a0)
     3fa:	7761                	lui	a4,0xffff8
     3fc:	177d                	addi	a4,a4,-1
     3fe:	8ff9                	and	a5,a5,a4
     400:	c51c                	sw	a5,8(a0)
     402:	8082                	ret

00000404 <ADC_InjectedChannelConfig>:
     404:	47a5                	li	a5,9
     406:	04b7fd63          	bgeu	a5,a1,460 <ADC_InjectedChannelConfig+0x5c>
     40a:	00c52803          	lw	a6,12(a0)
     40e:	ff658713          	addi	a4,a1,-10
     412:	00171793          	slli	a5,a4,0x1
     416:	97ba                	add	a5,a5,a4
     418:	471d                	li	a4,7
     41a:	00f71733          	sll	a4,a4,a5
     41e:	fff74713          	not	a4,a4
     422:	01077733          	and	a4,a4,a6
     426:	00f696b3          	sll	a3,a3,a5
     42a:	8f55                	or	a4,a4,a3
     42c:	c558                	sw	a4,12(a0)
     42e:	5d14                	lw	a3,56(a0)
     430:	0146d793          	srli	a5,a3,0x14
     434:	8b8d                	andi	a5,a5,3
     436:	40f607b3          	sub	a5,a2,a5
     43a:	0ff7f793          	andi	a5,a5,255
     43e:	0789                	addi	a5,a5,2
     440:	0ff7f793          	andi	a5,a5,255
     444:	00279713          	slli	a4,a5,0x2
     448:	97ba                	add	a5,a5,a4
     44a:	477d                	li	a4,31
     44c:	00f71733          	sll	a4,a4,a5
     450:	fff74713          	not	a4,a4
     454:	8f75                	and	a4,a4,a3
     456:	00f595b3          	sll	a1,a1,a5
     45a:	8f4d                	or	a4,a4,a1
     45c:	dd18                	sw	a4,56(a0)
     45e:	8082                	ret
     460:	01052803          	lw	a6,16(a0)
     464:	00159713          	slli	a4,a1,0x1
     468:	972e                	add	a4,a4,a1
     46a:	479d                	li	a5,7
     46c:	00e797b3          	sll	a5,a5,a4
     470:	fff7c793          	not	a5,a5
     474:	0107f7b3          	and	a5,a5,a6
     478:	00e696b3          	sll	a3,a3,a4
     47c:	8fd5                	or	a5,a5,a3
     47e:	c91c                	sw	a5,16(a0)
     480:	b77d                	j	42e <ADC_InjectedChannelConfig+0x2a>

00000482 <ADC_InjectedSequencerLengthConfig>:
     482:	5d1c                	lw	a5,56(a0)
     484:	ffd00737          	lui	a4,0xffd00
     488:	177d                	addi	a4,a4,-1
     48a:	8ff9                	and	a5,a5,a4
     48c:	15fd                	addi	a1,a1,-1
     48e:	05d2                	slli	a1,a1,0x14
     490:	8ddd                	or	a1,a1,a5
     492:	dd0c                	sw	a1,56(a0)
     494:	8082                	ret

00000496 <ADC_TempSensorVrefintCmd>:
     496:	c919                	beqz	a0,4ac <ADC_TempSensorVrefintCmd+0x16>
     498:	400137b7          	lui	a5,0x40013
     49c:	8087a703          	lw	a4,-2040(a5) # 40012808 <_eusrstack+0x2000a808>
     4a0:	008006b7          	lui	a3,0x800
     4a4:	8f55                	or	a4,a4,a3
     4a6:	80e7a423          	sw	a4,-2040(a5)
     4aa:	8082                	ret
     4ac:	400137b7          	lui	a5,0x40013
     4b0:	8087a703          	lw	a4,-2040(a5) # 40012808 <_eusrstack+0x2000a808>
     4b4:	ff8006b7          	lui	a3,0xff800
     4b8:	16fd                	addi	a3,a3,-1
     4ba:	8f75                	and	a4,a4,a3
     4bc:	80e7a423          	sw	a4,-2040(a5)
     4c0:	8082                	ret

000004c2 <ADC_GetFlagStatus>:
     4c2:	411c                	lw	a5,0(a0)
     4c4:	8dfd                	and	a1,a1,a5
     4c6:	c199                	beqz	a1,4cc <ADC_GetFlagStatus+0xa>
     4c8:	4505                	li	a0,1
     4ca:	8082                	ret
     4cc:	4501                	li	a0,0
     4ce:	8082                	ret

000004d0 <ADC_ClearFlag>:
     4d0:	fff5c593          	not	a1,a1
     4d4:	c10c                	sw	a1,0(a0)
     4d6:	8082                	ret

000004d8 <ADC_BufferCmd>:
     4d8:	c599                	beqz	a1,4e6 <ADC_BufferCmd+0xe>
     4da:	415c                	lw	a5,4(a0)
     4dc:	04000737          	lui	a4,0x4000
     4e0:	8fd9                	or	a5,a5,a4
     4e2:	c15c                	sw	a5,4(a0)
     4e4:	8082                	ret
     4e6:	415c                	lw	a5,4(a0)
     4e8:	fc000737          	lui	a4,0xfc000
     4ec:	177d                	addi	a4,a4,-1
     4ee:	8ff9                	and	a5,a5,a4
     4f0:	c15c                	sw	a5,4(a0)
     4f2:	8082                	ret

000004f4 <CheckITStatus>:
     4f4:	8de9                	and	a1,a1,a0
     4f6:	c199                	beqz	a1,4fc <CheckITStatus+0x8>
     4f8:	4505                	li	a0,1
     4fa:	8082                	ret
     4fc:	4501                	li	a0,0
     4fe:	8082                	ret

00000500 <CAN_Init>:
     500:	411c                	lw	a5,0(a0)
     502:	9bf5                	andi	a5,a5,-3
     504:	c11c                	sw	a5,0(a0)
     506:	411c                	lw	a5,0(a0)
     508:	0017e793          	ori	a5,a5,1
     50c:	c11c                	sw	a5,0(a0)
     50e:	4701                	li	a4,0
     510:	415c                	lw	a5,4(a0)
     512:	8b85                	andi	a5,a5,1
     514:	e799                	bnez	a5,522 <CAN_Init+0x22>
     516:	67c1                	lui	a5,0x10
     518:	17fd                	addi	a5,a5,-1
     51a:	00f70463          	beq	a4,a5,522 <CAN_Init+0x22>
     51e:	0705                	addi	a4,a4,1
     520:	bfc5                	j	510 <CAN_Init+0x10>
     522:	415c                	lw	a5,4(a0)
     524:	8b85                	andi	a5,a5,1
     526:	cfe9                	beqz	a5,600 <CAN_Init+0x100>
     528:	4598                	lw	a4,8(a1)
     52a:	4785                	li	a5,1
     52c:	08f70763          	beq	a4,a5,5ba <CAN_Init+0xba>
     530:	411c                	lw	a5,0(a0)
     532:	f7f7f793          	andi	a5,a5,-129
     536:	c11c                	sw	a5,0(a0)
     538:	45d8                	lw	a4,12(a1)
     53a:	4785                	li	a5,1
     53c:	08f70463          	beq	a4,a5,5c4 <CAN_Init+0xc4>
     540:	411c                	lw	a5,0(a0)
     542:	fbf7f793          	andi	a5,a5,-65
     546:	c11c                	sw	a5,0(a0)
     548:	4998                	lw	a4,16(a1)
     54a:	4785                	li	a5,1
     54c:	08f70163          	beq	a4,a5,5ce <CAN_Init+0xce>
     550:	411c                	lw	a5,0(a0)
     552:	fdf7f793          	andi	a5,a5,-33
     556:	c11c                	sw	a5,0(a0)
     558:	49d8                	lw	a4,20(a1)
     55a:	4785                	li	a5,1
     55c:	06f70e63          	beq	a4,a5,5d8 <CAN_Init+0xd8>
     560:	411c                	lw	a5,0(a0)
     562:	9bbd                	andi	a5,a5,-17
     564:	c11c                	sw	a5,0(a0)
     566:	4d98                	lw	a4,24(a1)
     568:	4785                	li	a5,1
     56a:	06f70c63          	beq	a4,a5,5e2 <CAN_Init+0xe2>
     56e:	411c                	lw	a5,0(a0)
     570:	9bdd                	andi	a5,a5,-9
     572:	c11c                	sw	a5,0(a0)
     574:	4dd8                	lw	a4,28(a1)
     576:	4785                	li	a5,1
     578:	06f70a63          	beq	a4,a5,5ec <CAN_Init+0xec>
     57c:	411c                	lw	a5,0(a0)
     57e:	9bed                	andi	a5,a5,-5
     580:	c11c                	sw	a5,0(a0)
     582:	21bc                	fld	fa5,64(a1)
     584:	07fa                	slli	a5,a5,0x1e
     586:	31b8                	fld	fa4,96(a1)
     588:	0762                	slli	a4,a4,0x18
     58a:	8fd9                	or	a5,a5,a4
     58c:	21d8                	fld	fa4,128(a1)
     58e:	0742                	slli	a4,a4,0x10
     590:	8fd9                	or	a5,a5,a4
     592:	31d8                	fld	fa4,160(a1)
     594:	0752                	slli	a4,a4,0x14
     596:	8fd9                	or	a5,a5,a4
     598:	219a                	fld	ft3,384(sp)
     59a:	177d                	addi	a4,a4,-1
     59c:	8fd9                	or	a5,a5,a4
     59e:	cd5c                	sw	a5,28(a0)
     5a0:	411c                	lw	a5,0(a0)
     5a2:	9bf9                	andi	a5,a5,-2
     5a4:	c11c                	sw	a5,0(a0)
     5a6:	4701                	li	a4,0
     5a8:	415c                	lw	a5,4(a0)
     5aa:	8b85                	andi	a5,a5,1
     5ac:	c7a9                	beqz	a5,5f6 <CAN_Init+0xf6>
     5ae:	67c1                	lui	a5,0x10
     5b0:	17fd                	addi	a5,a5,-1
     5b2:	04f70263          	beq	a4,a5,5f6 <CAN_Init+0xf6>
     5b6:	0705                	addi	a4,a4,1
     5b8:	bfc5                	j	5a8 <CAN_Init+0xa8>
     5ba:	411c                	lw	a5,0(a0)
     5bc:	0807e793          	ori	a5,a5,128
     5c0:	c11c                	sw	a5,0(a0)
     5c2:	bf9d                	j	538 <CAN_Init+0x38>
     5c4:	411c                	lw	a5,0(a0)
     5c6:	0407e793          	ori	a5,a5,64
     5ca:	c11c                	sw	a5,0(a0)
     5cc:	bfb5                	j	548 <CAN_Init+0x48>
     5ce:	411c                	lw	a5,0(a0)
     5d0:	0207e793          	ori	a5,a5,32
     5d4:	c11c                	sw	a5,0(a0)
     5d6:	b749                	j	558 <CAN_Init+0x58>
     5d8:	411c                	lw	a5,0(a0)
     5da:	0107e793          	ori	a5,a5,16
     5de:	c11c                	sw	a5,0(a0)
     5e0:	b759                	j	566 <CAN_Init+0x66>
     5e2:	411c                	lw	a5,0(a0)
     5e4:	0087e793          	ori	a5,a5,8
     5e8:	c11c                	sw	a5,0(a0)
     5ea:	b769                	j	574 <CAN_Init+0x74>
     5ec:	411c                	lw	a5,0(a0)
     5ee:	0047e793          	ori	a5,a5,4
     5f2:	c11c                	sw	a5,0(a0)
     5f4:	b779                	j	582 <CAN_Init+0x82>
     5f6:	415c                	lw	a5,4(a0)
     5f8:	8b85                	andi	a5,a5,1
     5fa:	c789                	beqz	a5,604 <CAN_Init+0x104>
     5fc:	4501                	li	a0,0
     5fe:	8082                	ret
     600:	4501                	li	a0,0
     602:	8082                	ret
     604:	4505                	li	a0,1
     606:	8082                	ret

00000608 <CAN_FilterInit>:
     608:	253c                	fld	fa5,72(a0)
     60a:	4705                	li	a4,1
     60c:	00f71733          	sll	a4,a4,a5
     610:	400067b7          	lui	a5,0x40006
     614:	6007a683          	lw	a3,1536(a5) # 40006600 <_eusrstack+0x1fffe600>
     618:	0016e693          	ori	a3,a3,1
     61c:	60d7a023          	sw	a3,1536(a5)
     620:	61c7a603          	lw	a2,1564(a5)
     624:	fff74693          	not	a3,a4
     628:	8e75                	and	a2,a2,a3
     62a:	60c7ae23          	sw	a2,1564(a5)
     62e:	255c                	fld	fa5,136(a0)
     630:	e3b1                	bnez	a5,674 <CAN_FilterInit+0x6c>
     632:	400067b7          	lui	a5,0x40006
     636:	60c7a603          	lw	a2,1548(a5) # 4000660c <_eusrstack+0x1fffe60c>
     63a:	8e75                	and	a2,a2,a3
     63c:	60c7a623          	sw	a2,1548(a5)
     640:	40078793          	addi	a5,a5,1024
     644:	216e                	fld	ft2,216(sp)
     646:	05c2                	slli	a1,a1,0x10
     648:	00255803          	lhu	a6,2(a0)
     64c:	2530                	fld	fa2,72(a0)
     64e:	0105e5b3          	or	a1,a1,a6
     652:	04860613          	addi	a2,a2,72
     656:	060e                	slli	a2,a2,0x3
     658:	963e                	add	a2,a2,a5
     65a:	c20c                	sw	a1,0(a2)
     65c:	2152                	fld	ft2,272(sp)
     65e:	0642                	slli	a2,a2,0x10
     660:	00055803          	lhu	a6,0(a0)
     664:	252c                	fld	fa1,72(a0)
     666:	01066633          	or	a2,a2,a6
     66a:	04858593          	addi	a1,a1,72
     66e:	058e                	slli	a1,a1,0x3
     670:	97ae                	add	a5,a5,a1
     672:	c3d0                	sw	a2,4(a5)
     674:	2550                	fld	fa2,136(a0)
     676:	4785                	li	a5,1
     678:	04f60463          	beq	a2,a5,6c0 <CAN_FilterInit+0xb8>
     67c:	353c                	fld	fa5,104(a0)
     67e:	e3d9                	bnez	a5,704 <CAN_FilterInit+0xfc>
     680:	400067b7          	lui	a5,0x40006
     684:	6047a603          	lw	a2,1540(a5) # 40006604 <_eusrstack+0x1fffe604>
     688:	8e75                	and	a2,a2,a3
     68a:	60c7a223          	sw	a2,1540(a5)
     68e:	251e                	fld	fa0,448(sp)
     690:	eb81                	bnez	a5,6a0 <CAN_FilterInit+0x98>
     692:	400067b7          	lui	a5,0x40006
     696:	6147a603          	lw	a2,1556(a5) # 40006614 <_eusrstack+0x1fffe614>
     69a:	8ef1                	and	a3,a3,a2
     69c:	60d7aa23          	sw	a3,1556(a5)
     6a0:	2516                	fld	fa0,320(sp)
     6a2:	4785                	li	a5,1
     6a4:	06f68863          	beq	a3,a5,714 <CAN_FilterInit+0x10c>
     6a8:	4914                	lw	a3,16(a0)
     6aa:	4785                	li	a5,1
     6ac:	06f68c63          	beq	a3,a5,724 <CAN_FilterInit+0x11c>
     6b0:	400067b7          	lui	a5,0x40006
     6b4:	6007a703          	lw	a4,1536(a5) # 40006600 <_eusrstack+0x1fffe600>
     6b8:	9b79                	andi	a4,a4,-2
     6ba:	60e7a023          	sw	a4,1536(a5)
     6be:	8082                	ret
     6c0:	400067b7          	lui	a5,0x40006
     6c4:	60c7a603          	lw	a2,1548(a5) # 4000660c <_eusrstack+0x1fffe60c>
     6c8:	8e59                	or	a2,a2,a4
     6ca:	60c7a623          	sw	a2,1548(a5)
     6ce:	40078793          	addi	a5,a5,1024
     6d2:	210e                	fld	ft2,192(sp)
     6d4:	05c2                	slli	a1,a1,0x10
     6d6:	00255803          	lhu	a6,2(a0)
     6da:	2530                	fld	fa2,72(a0)
     6dc:	0105e5b3          	or	a1,a1,a6
     6e0:	04860613          	addi	a2,a2,72
     6e4:	060e                	slli	a2,a2,0x3
     6e6:	963e                	add	a2,a2,a5
     6e8:	c20c                	sw	a1,0(a2)
     6ea:	2152                	fld	ft2,272(sp)
     6ec:	0642                	slli	a2,a2,0x10
     6ee:	00655803          	lhu	a6,6(a0)
     6f2:	252c                	fld	fa1,72(a0)
     6f4:	01066633          	or	a2,a2,a6
     6f8:	04858593          	addi	a1,a1,72
     6fc:	058e                	slli	a1,a1,0x3
     6fe:	97ae                	add	a5,a5,a1
     700:	c3d0                	sw	a2,4(a5)
     702:	bfad                	j	67c <CAN_FilterInit+0x74>
     704:	400067b7          	lui	a5,0x40006
     708:	6047a603          	lw	a2,1540(a5) # 40006604 <_eusrstack+0x1fffe604>
     70c:	8e59                	or	a2,a2,a4
     70e:	60c7a223          	sw	a2,1540(a5)
     712:	bfb5                	j	68e <CAN_FilterInit+0x86>
     714:	400067b7          	lui	a5,0x40006
     718:	6147a683          	lw	a3,1556(a5) # 40006614 <_eusrstack+0x1fffe614>
     71c:	8ed9                	or	a3,a3,a4
     71e:	60d7aa23          	sw	a3,1556(a5)
     722:	b759                	j	6a8 <CAN_FilterInit+0xa0>
     724:	400067b7          	lui	a5,0x40006
     728:	61c7a683          	lw	a3,1564(a5) # 4000661c <_eusrstack+0x1fffe61c>
     72c:	8f55                	or	a4,a4,a3
     72e:	60e7ae23          	sw	a4,1564(a5)
     732:	bfbd                	j	6b0 <CAN_FilterInit+0xa8>

00000734 <CAN_Transmit>:
     734:	451c                	lw	a5,8(a0)
     736:	00579713          	slli	a4,a5,0x5
     73a:	00074e63          	bltz	a4,756 <CAN_Transmit+0x22>
     73e:	451c                	lw	a5,8(a0)
     740:	00479713          	slli	a4,a5,0x4
     744:	08074e63          	bltz	a4,7e0 <CAN_Transmit+0xac>
     748:	451c                	lw	a5,8(a0)
     74a:	00379713          	slli	a4,a5,0x3
     74e:	0a075d63          	bgez	a4,808 <__stack_size+0x8>
     752:	4689                	li	a3,2
     754:	a011                	j	758 <CAN_Transmit+0x24>
     756:	4681                	li	a3,0
     758:	87b6                	mv	a5,a3
     75a:	01868713          	addi	a4,a3,24 # ff800018 <_eusrstack+0xdf7f8018>
     75e:	0712                	slli	a4,a4,0x4
     760:	972a                	add	a4,a4,a0
     762:	4310                	lw	a2,0(a4)
     764:	8a05                	andi	a2,a2,1
     766:	c310                	sw	a2,0(a4)
     768:	0085c803          	lbu	a6,8(a1)
     76c:	06081c63          	bnez	a6,7e4 <CAN_Transmit+0xb0>
     770:	01868713          	addi	a4,a3,24
     774:	0712                	slli	a4,a4,0x4
     776:	972a                	add	a4,a4,a0
     778:	00072803          	lw	a6,0(a4) # fc000000 <_eusrstack+0xdbff8000>
     77c:	4190                	lw	a2,0(a1)
     77e:	0656                	slli	a2,a2,0x15
     780:	0095c883          	lbu	a7,9(a1)
     784:	01166633          	or	a2,a2,a7
     788:	00c86633          	or	a2,a6,a2
     78c:	c310                	sw	a2,0(a4)
     78e:	25b8                	fld	fa4,72(a1)
     790:	8b3d                	andi	a4,a4,15
     792:	a5b8                	fsd	fa4,72(a1)
     794:	07e1                	addi	a5,a5,24
     796:	0792                	slli	a5,a5,0x4
     798:	97aa                	add	a5,a5,a0
     79a:	43d8                	lw	a4,4(a5)
     79c:	9b41                	andi	a4,a4,-16
     79e:	c3d8                	sw	a4,4(a5)
     7a0:	43d8                	lw	a4,4(a5)
     7a2:	25b0                	fld	fa2,72(a1)
     7a4:	8f51                	or	a4,a4,a2
     7a6:	c3d8                	sw	a4,4(a5)
     7a8:	25f8                	fld	fa4,200(a1)
     7aa:	0762                	slli	a4,a4,0x18
     7ac:	35d0                	fld	fa2,168(a1)
     7ae:	0642                	slli	a2,a2,0x10
     7b0:	8f51                	or	a4,a4,a2
     7b2:	25d0                	fld	fa2,136(a1)
     7b4:	0622                	slli	a2,a2,0x8
     7b6:	8f51                	or	a4,a4,a2
     7b8:	35b0                	fld	fa2,104(a1)
     7ba:	8f51                	or	a4,a4,a2
     7bc:	c798                	sw	a4,8(a5)
     7be:	29b8                	fld	fa4,80(a1)
     7c0:	0762                	slli	a4,a4,0x18
     7c2:	3990                	fld	fa2,48(a1)
     7c4:	0642                	slli	a2,a2,0x10
     7c6:	8f51                	or	a4,a4,a2
     7c8:	2990                	fld	fa2,16(a1)
     7ca:	0622                	slli	a2,a2,0x8
     7cc:	8f51                	or	a4,a4,a2
     7ce:	35f0                	fld	fa2,232(a1)
     7d0:	8f51                	or	a4,a4,a2
     7d2:	c7d8                	sw	a4,12(a5)
     7d4:	4398                	lw	a4,0(a5)
     7d6:	00176713          	ori	a4,a4,1
     7da:	c398                	sw	a4,0(a5)
     7dc:	8536                	mv	a0,a3
     7de:	8082                	ret
     7e0:	4685                	li	a3,1
     7e2:	bf9d                	j	758 <CAN_Transmit+0x24>
     7e4:	01868613          	addi	a2,a3,24
     7e8:	0612                	slli	a2,a2,0x4
     7ea:	962a                	add	a2,a2,a0
     7ec:	00062883          	lw	a7,0(a2)
     7f0:	41d8                	lw	a4,4(a1)
     7f2:	070e                	slli	a4,a4,0x3
     7f4:	01076733          	or	a4,a4,a6
     7f8:	0095c803          	lbu	a6,9(a1)
     7fc:	01076733          	or	a4,a4,a6
     800:	00e8e733          	or	a4,a7,a4
     804:	c218                	sw	a4,0(a2)
     806:	b761                	j	78e <CAN_Transmit+0x5a>
     808:	4691                	li	a3,4
     80a:	bfc9                	j	7dc <CAN_Transmit+0xa8>

0000080c <CAN_Receive>:
     80c:	01b58793          	addi	a5,a1,27
     810:	0792                	slli	a5,a5,0x4
     812:	97aa                	add	a5,a5,a0
     814:	439c                	lw	a5,0(a5)
     816:	8b91                	andi	a5,a5,4
     818:	a61c                	fsd	fa5,8(a2)
     81a:	e3ad                	bnez	a5,87c <CAN_Receive+0x70>
     81c:	01b58793          	addi	a5,a1,27
     820:	0792                	slli	a5,a5,0x4
     822:	97aa                	add	a5,a5,a0
     824:	439c                	lw	a5,0(a5)
     826:	83d5                	srli	a5,a5,0x15
     828:	c21c                	sw	a5,0(a2)
     82a:	01b58793          	addi	a5,a1,27
     82e:	0792                	slli	a5,a5,0x4
     830:	97aa                	add	a5,a5,a0
     832:	4398                	lw	a4,0(a5)
     834:	8b09                	andi	a4,a4,2
     836:	b618                	fsd	fa4,40(a2)
     838:	43d8                	lw	a4,4(a5)
     83a:	8b3d                	andi	a4,a4,15
     83c:	a638                	fsd	fa4,72(a2)
     83e:	43d8                	lw	a4,4(a5)
     840:	8321                	srli	a4,a4,0x8
     842:	ba38                	fsd	fa4,112(a2)
     844:	4798                	lw	a4,8(a5)
     846:	b638                	fsd	fa4,104(a2)
     848:	4798                	lw	a4,8(a5)
     84a:	8321                	srli	a4,a4,0x8
     84c:	a658                	fsd	fa4,136(a2)
     84e:	4798                	lw	a4,8(a5)
     850:	8341                	srli	a4,a4,0x10
     852:	b658                	fsd	fa4,168(a2)
     854:	4798                	lw	a4,8(a5)
     856:	8361                	srli	a4,a4,0x18
     858:	a678                	fsd	fa4,200(a2)
     85a:	47d8                	lw	a4,12(a5)
     85c:	b678                	fsd	fa4,232(a2)
     85e:	47d8                	lw	a4,12(a5)
     860:	8321                	srli	a4,a4,0x8
     862:	aa18                	fsd	fa4,16(a2)
     864:	47d8                	lw	a4,12(a5)
     866:	8341                	srli	a4,a4,0x10
     868:	ba18                	fsd	fa4,48(a2)
     86a:	47dc                	lw	a5,12(a5)
     86c:	83e1                	srli	a5,a5,0x18
     86e:	aa3c                	fsd	fa5,80(a2)
     870:	ed91                	bnez	a1,88c <CAN_Receive+0x80>
     872:	455c                	lw	a5,12(a0)
     874:	0207e793          	ori	a5,a5,32
     878:	c55c                	sw	a5,12(a0)
     87a:	8082                	ret
     87c:	01b58793          	addi	a5,a1,27
     880:	0792                	slli	a5,a5,0x4
     882:	97aa                	add	a5,a5,a0
     884:	439c                	lw	a5,0(a5)
     886:	838d                	srli	a5,a5,0x3
     888:	c25c                	sw	a5,4(a2)
     88a:	b745                	j	82a <CAN_Receive+0x1e>
     88c:	491c                	lw	a5,16(a0)
     88e:	0207e793          	ori	a5,a5,32
     892:	c91c                	sw	a5,16(a0)
     894:	8082                	ret

00000896 <CAN_GetLastErrorCode>:
     896:	4d08                	lw	a0,24(a0)
     898:	07057513          	andi	a0,a0,112
     89c:	8082                	ret

0000089e <CAN_ITConfig>:
     89e:	c609                	beqz	a2,8a8 <CAN_ITConfig+0xa>
     8a0:	495c                	lw	a5,20(a0)
     8a2:	8ddd                	or	a1,a1,a5
     8a4:	c94c                	sw	a1,20(a0)
     8a6:	8082                	ret
     8a8:	495c                	lw	a5,20(a0)
     8aa:	fff5c593          	not	a1,a1
     8ae:	8dfd                	and	a1,a1,a5
     8b0:	c94c                	sw	a1,20(a0)
     8b2:	8082                	ret

000008b4 <CAN_GetITStatus>:
     8b4:	495c                	lw	a5,20(a0)
     8b6:	8fed                	and	a5,a5,a1
     8b8:	10078163          	beqz	a5,9ba <CAN_GetITStatus+0x106>
     8bc:	975ff2ef          	jal	t0,230 <__riscv_save_0>
     8c0:	04000793          	li	a5,64
     8c4:	0af58a63          	beq	a1,a5,978 <CAN_GetITStatus+0xc4>
     8c8:	02b7f763          	bgeu	a5,a1,8f6 <CAN_GetITStatus+0x42>
     8cc:	80058793          	addi	a5,a1,-2048
     8d0:	0c078c63          	beqz	a5,9a8 <CAN_GetITStatus+0xf4>
     8d4:	6785                	lui	a5,0x1
     8d6:	80078793          	addi	a5,a5,-2048 # 800 <__stack_size>
     8da:	04b7fb63          	bgeu	a5,a1,930 <CAN_GetITStatus+0x7c>
     8de:	67c1                	lui	a5,0x10
     8e0:	0af58063          	beq	a1,a5,980 <CAN_GetITStatus+0xcc>
     8e4:	000207b7          	lui	a5,0x20
     8e8:	0af58063          	beq	a1,a5,988 <CAN_GetITStatus+0xd4>
     8ec:	67a1                	lui	a5,0x8
     8ee:	0cf58263          	beq	a1,a5,9b2 <CAN_GetITStatus+0xfe>
     8f2:	4501                	li	a0,0
     8f4:	a00d                	j	916 <CAN_GetITStatus+0x62>
     8f6:	4791                	li	a5,4
     8f8:	06f58063          	beq	a1,a5,958 <CAN_GetITStatus+0xa4>
     8fc:	00b7fe63          	bgeu	a5,a1,918 <CAN_GetITStatus+0x64>
     900:	47c1                	li	a5,16
     902:	06f58363          	beq	a1,a5,968 <CAN_GetITStatus+0xb4>
     906:	02000793          	li	a5,32
     90a:	06f58363          	beq	a1,a5,970 <CAN_GetITStatus+0xbc>
     90e:	47a1                	li	a5,8
     910:	04f58863          	beq	a1,a5,960 <CAN_GetITStatus+0xac>
     914:	4501                	li	a0,0
     916:	ba3d                	j	254 <__riscv_restore_0>
     918:	4785                	li	a5,1
     91a:	02f58963          	beq	a1,a5,94c <CAN_GetITStatus+0x98>
     91e:	4789                	li	a5,2
     920:	00f59663          	bne	a1,a5,92c <CAN_GetITStatus+0x78>
     924:	4548                	lw	a0,12(a0)
     926:	458d                	li	a1,3
     928:	36f1                	jal	4f4 <CheckITStatus>
     92a:	b7f5                	j	916 <CAN_GetITStatus+0x62>
     92c:	4501                	li	a0,0
     92e:	b7e5                	j	916 <CAN_GetITStatus+0x62>
     930:	20000793          	li	a5,512
     934:	06f58263          	beq	a1,a5,998 <CAN_GetITStatus+0xe4>
     938:	40000793          	li	a5,1024
     93c:	06f58263          	beq	a1,a5,9a0 <CAN_GetITStatus+0xec>
     940:	10000793          	li	a5,256
     944:	04f58663          	beq	a1,a5,990 <CAN_GetITStatus+0xdc>
     948:	4501                	li	a0,0
     94a:	b7f1                	j	916 <CAN_GetITStatus+0x62>
     94c:	4508                	lw	a0,8(a0)
     94e:	65c1                	lui	a1,0x10
     950:	10158593          	addi	a1,a1,257 # 10101 <_data_lma+0x6d85>
     954:	3645                	jal	4f4 <CheckITStatus>
     956:	b7c1                	j	916 <CAN_GetITStatus+0x62>
     958:	4548                	lw	a0,12(a0)
     95a:	45a1                	li	a1,8
     95c:	3e61                	jal	4f4 <CheckITStatus>
     95e:	bf65                	j	916 <CAN_GetITStatus+0x62>
     960:	4548                	lw	a0,12(a0)
     962:	45c1                	li	a1,16
     964:	3e41                	jal	4f4 <CheckITStatus>
     966:	bf45                	j	916 <CAN_GetITStatus+0x62>
     968:	4908                	lw	a0,16(a0)
     96a:	458d                	li	a1,3
     96c:	3661                	jal	4f4 <CheckITStatus>
     96e:	b765                	j	916 <CAN_GetITStatus+0x62>
     970:	4908                	lw	a0,16(a0)
     972:	45a1                	li	a1,8
     974:	3641                	jal	4f4 <CheckITStatus>
     976:	b745                	j	916 <CAN_GetITStatus+0x62>
     978:	4908                	lw	a0,16(a0)
     97a:	45c1                	li	a1,16
     97c:	3ea5                	jal	4f4 <CheckITStatus>
     97e:	bf61                	j	916 <CAN_GetITStatus+0x62>
     980:	4148                	lw	a0,4(a0)
     982:	45a1                	li	a1,8
     984:	3e85                	jal	4f4 <CheckITStatus>
     986:	bf41                	j	916 <CAN_GetITStatus+0x62>
     988:	4148                	lw	a0,4(a0)
     98a:	45c1                	li	a1,16
     98c:	36a5                	jal	4f4 <CheckITStatus>
     98e:	b761                	j	916 <CAN_GetITStatus+0x62>
     990:	4d08                	lw	a0,24(a0)
     992:	4585                	li	a1,1
     994:	3685                	jal	4f4 <CheckITStatus>
     996:	b741                	j	916 <CAN_GetITStatus+0x62>
     998:	4d08                	lw	a0,24(a0)
     99a:	4589                	li	a1,2
     99c:	3ea1                	jal	4f4 <CheckITStatus>
     99e:	bfa5                	j	916 <CAN_GetITStatus+0x62>
     9a0:	4d08                	lw	a0,24(a0)
     9a2:	4591                	li	a1,4
     9a4:	3e81                	jal	4f4 <CheckITStatus>
     9a6:	bf85                	j	916 <CAN_GetITStatus+0x62>
     9a8:	4d08                	lw	a0,24(a0)
     9aa:	07000593          	li	a1,112
     9ae:	3699                	jal	4f4 <CheckITStatus>
     9b0:	b79d                	j	916 <CAN_GetITStatus+0x62>
     9b2:	4148                	lw	a0,4(a0)
     9b4:	4591                	li	a1,4
     9b6:	3e3d                	jal	4f4 <CheckITStatus>
     9b8:	bfb9                	j	916 <CAN_GetITStatus+0x62>
     9ba:	4501                	li	a0,0
     9bc:	8082                	ret

000009be <CAN_ClearITPendingBit>:
     9be:	10000793          	li	a5,256
     9c2:	08f58f63          	beq	a1,a5,a60 <CAN_ClearITPendingBit+0xa2>
     9c6:	02b7f563          	bgeu	a5,a1,9f0 <CAN_ClearITPendingBit+0x32>
     9ca:	80058793          	addi	a5,a1,-2048
     9ce:	cfd9                	beqz	a5,a6c <CAN_ClearITPendingBit+0xae>
     9d0:	6785                	lui	a5,0x1
     9d2:	80078793          	addi	a5,a5,-2048 # 800 <__stack_size>
     9d6:	04b7f863          	bgeu	a5,a1,a26 <CAN_ClearITPendingBit+0x68>
     9da:	67c1                	lui	a5,0x10
     9dc:	06f58c63          	beq	a1,a5,a54 <CAN_ClearITPendingBit+0x96>
     9e0:	000207b7          	lui	a5,0x20
     9e4:	06f58b63          	beq	a1,a5,a5a <CAN_ClearITPendingBit+0x9c>
     9e8:	67a1                	lui	a5,0x8
     9ea:	08f58663          	beq	a1,a5,a76 <CAN_ClearITPendingBit+0xb8>
     9ee:	8082                	ret
     9f0:	47a1                	li	a5,8
     9f2:	04f58b63          	beq	a1,a5,a48 <CAN_ClearITPendingBit+0x8a>
     9f6:	00b7fd63          	bgeu	a5,a1,a10 <CAN_ClearITPendingBit+0x52>
     9fa:	02000793          	li	a5,32
     9fe:	04f58863          	beq	a1,a5,a4e <CAN_ClearITPendingBit+0x90>
     a02:	04000793          	li	a5,64
     a06:	00f59f63          	bne	a1,a5,a24 <CAN_ClearITPendingBit+0x66>
     a0a:	47c1                	li	a5,16
     a0c:	c91c                	sw	a5,16(a0)
     a0e:	8082                	ret
     a10:	4785                	li	a5,1
     a12:	02f58663          	beq	a1,a5,a3e <CAN_ClearITPendingBit+0x80>
     a16:	4791                	li	a5,4
     a18:	00f59563          	bne	a1,a5,a22 <CAN_ClearITPendingBit+0x64>
     a1c:	47a1                	li	a5,8
     a1e:	c55c                	sw	a5,12(a0)
     a20:	8082                	ret
     a22:	8082                	ret
     a24:	8082                	ret
     a26:	20000793          	li	a5,512
     a2a:	02f58e63          	beq	a1,a5,a66 <CAN_ClearITPendingBit+0xa8>
     a2e:	40000793          	li	a5,1024
     a32:	00f59563          	bne	a1,a5,a3c <CAN_ClearITPendingBit+0x7e>
     a36:	4791                	li	a5,4
     a38:	c15c                	sw	a5,4(a0)
     a3a:	8082                	ret
     a3c:	8082                	ret
     a3e:	67c1                	lui	a5,0x10
     a40:	10178793          	addi	a5,a5,257 # 10101 <_data_lma+0x6d85>
     a44:	c51c                	sw	a5,8(a0)
     a46:	8082                	ret
     a48:	47c1                	li	a5,16
     a4a:	c55c                	sw	a5,12(a0)
     a4c:	8082                	ret
     a4e:	47a1                	li	a5,8
     a50:	c91c                	sw	a5,16(a0)
     a52:	8082                	ret
     a54:	47a1                	li	a5,8
     a56:	c15c                	sw	a5,4(a0)
     a58:	8082                	ret
     a5a:	47c1                	li	a5,16
     a5c:	c15c                	sw	a5,4(a0)
     a5e:	8082                	ret
     a60:	4791                	li	a5,4
     a62:	c15c                	sw	a5,4(a0)
     a64:	8082                	ret
     a66:	4791                	li	a5,4
     a68:	c15c                	sw	a5,4(a0)
     a6a:	8082                	ret
     a6c:	00052c23          	sw	zero,24(a0)
     a70:	4791                	li	a5,4
     a72:	c15c                	sw	a5,4(a0)
     a74:	8082                	ret
     a76:	00052c23          	sw	zero,24(a0)
     a7a:	4791                	li	a5,4
     a7c:	c15c                	sw	a5,4(a0)
     a7e:	bf85                	j	9ee <CAN_ClearITPendingBit+0x30>

00000a80 <GPIO_Init>:
     a80:	459c                	lw	a5,8(a1)
     a82:	00f7f893          	andi	a7,a5,15
     a86:	8bc1                	andi	a5,a5,16
     a88:	c781                	beqz	a5,a90 <GPIO_Init+0x10>
     a8a:	41dc                	lw	a5,4(a1)
     a8c:	00f8e8b3          	or	a7,a7,a5
     a90:	219c                	fld	fa5,0(a1)
     a92:	cbb9                	beqz	a5,ae8 <GPIO_Init+0x68>
     a94:	00052803          	lw	a6,0(a0)
     a98:	4701                	li	a4,0
     a9a:	a019                	j	aa0 <GPIO_Init+0x20>
     a9c:	c95c                	sw	a5,20(a0)
     a9e:	0705                	addi	a4,a4,1
     aa0:	479d                	li	a5,7
     aa2:	04e7e163          	bltu	a5,a4,ae4 <GPIO_Init+0x64>
     aa6:	4785                	li	a5,1
     aa8:	00e797b3          	sll	a5,a5,a4
     aac:	2196                	fld	ft3,320(sp)
     aae:	8efd                	and	a3,a3,a5
     ab0:	fed797e3          	bne	a5,a3,a9e <GPIO_Init+0x1e>
     ab4:	00271613          	slli	a2,a4,0x2
     ab8:	46bd                	li	a3,15
     aba:	00c696b3          	sll	a3,a3,a2
     abe:	fff6c693          	not	a3,a3
     ac2:	0106f833          	and	a6,a3,a6
     ac6:	00c89633          	sll	a2,a7,a2
     aca:	01066833          	or	a6,a2,a6
     ace:	4594                	lw	a3,8(a1)
     ad0:	02800613          	li	a2,40
     ad4:	fcc684e3          	beq	a3,a2,a9c <GPIO_Init+0x1c>
     ad8:	04800613          	li	a2,72
     adc:	fcc691e3          	bne	a3,a2,a9e <GPIO_Init+0x1e>
     ae0:	c91c                	sw	a5,16(a0)
     ae2:	bf75                	j	a9e <GPIO_Init+0x1e>
     ae4:	01052023          	sw	a6,0(a0)
     ae8:	219a                	fld	ft3,384(sp)
     aea:	0ff00793          	li	a5,255
     aee:	06e7f063          	bgeu	a5,a4,b4e <GPIO_Init+0xce>
     af2:	00452803          	lw	a6,4(a0)
     af6:	4701                	li	a4,0
     af8:	a021                	j	b00 <GPIO_Init+0x80>
     afa:	c95c                	sw	a5,20(a0)
     afc:	a081                	j	b3c <GPIO_Init+0xbc>
     afe:	0705                	addi	a4,a4,1
     b00:	479d                	li	a5,7
     b02:	04e7e463          	bltu	a5,a4,b4a <GPIO_Init+0xca>
     b06:	00870613          	addi	a2,a4,8
     b0a:	4785                	li	a5,1
     b0c:	00c797b3          	sll	a5,a5,a2
     b10:	2196                	fld	ft3,320(sp)
     b12:	8efd                	and	a3,a3,a5
     b14:	fed795e3          	bne	a5,a3,afe <GPIO_Init+0x7e>
     b18:	00271613          	slli	a2,a4,0x2
     b1c:	46bd                	li	a3,15
     b1e:	00c696b3          	sll	a3,a3,a2
     b22:	fff6c693          	not	a3,a3
     b26:	0106f833          	and	a6,a3,a6
     b2a:	00c89633          	sll	a2,a7,a2
     b2e:	01066833          	or	a6,a2,a6
     b32:	4590                	lw	a2,8(a1)
     b34:	02800693          	li	a3,40
     b38:	fcd601e3          	beq	a2,a3,afa <GPIO_Init+0x7a>
     b3c:	4590                	lw	a2,8(a1)
     b3e:	04800693          	li	a3,72
     b42:	fad61ee3          	bne	a2,a3,afe <GPIO_Init+0x7e>
     b46:	c91c                	sw	a5,16(a0)
     b48:	bf5d                	j	afe <GPIO_Init+0x7e>
     b4a:	01052223          	sw	a6,4(a0)
     b4e:	8082                	ret

00000b50 <GPIO_StructInit>:
     b50:	57fd                	li	a5,-1
     b52:	a11e                	fsd	ft7,128(sp)
     b54:	4789                	li	a5,2
     b56:	c15c                	sw	a5,4(a0)
     b58:	4791                	li	a5,4
     b5a:	c51c                	sw	a5,8(a0)
     b5c:	8082                	ret

00000b5e <GPIO_SetBits>:
     b5e:	c90c                	sw	a1,16(a0)
     b60:	8082                	ret

00000b62 <GPIO_ResetBits>:
     b62:	c94c                	sw	a1,20(a0)
     b64:	8082                	ret

00000b66 <GPIO_PinRemapConfig>:
     b66:	86aa                	mv	a3,a0
     b68:	04054163          	bltz	a0,baa <GPIO_PinRemapConfig+0x44>
     b6c:	400107b7          	lui	a5,0x40010
     b70:	43dc                	lw	a5,4(a5)
     b72:	01055713          	srli	a4,a0,0x10
     b76:	8b3d                	andi	a4,a4,15
     b78:	01051613          	slli	a2,a0,0x10
     b7c:	8241                	srli	a2,a2,0x10
     b7e:	0206ca63          	bltz	a3,bb2 <GPIO_PinRemapConfig+0x4c>
     b82:	00300837          	lui	a6,0x300
     b86:	010578b3          	and	a7,a0,a6
     b8a:	07088863          	beq	a7,a6,bfa <GPIO_PinRemapConfig+0x94>
     b8e:	00b51813          	slli	a6,a0,0xb
     b92:	08085e63          	bgez	a6,c2e <GPIO_PinRemapConfig+0xc8>
     b96:	480d                	li	a6,3
     b98:	00e81733          	sll	a4,a6,a4
     b9c:	fff74713          	not	a4,a4
     ba0:	8f7d                	and	a4,a4,a5
     ba2:	0f0007b7          	lui	a5,0xf000
     ba6:	8fd9                	or	a5,a5,a4
     ba8:	a0ad                	j	c12 <GPIO_PinRemapConfig+0xac>
     baa:	400107b7          	lui	a5,0x40010
     bae:	4fdc                	lw	a5,28(a5)
     bb0:	b7c9                	j	b72 <GPIO_PinRemapConfig+0xc>
     bb2:	00300837          	lui	a6,0x300
     bb6:	010578b3          	and	a7,a0,a6
     bba:	01088d63          	beq	a7,a6,bd4 <GPIO_PinRemapConfig+0x6e>
     bbe:	00b51813          	slli	a6,a0,0xb
     bc2:	02085163          	bgez	a6,be4 <GPIO_PinRemapConfig+0x7e>
     bc6:	480d                	li	a6,3
     bc8:	00e81733          	sll	a4,a6,a4
     bcc:	fff74713          	not	a4,a4
     bd0:	8ff9                	and	a5,a5,a4
     bd2:	a081                	j	c12 <GPIO_PinRemapConfig+0xac>
     bd4:	0741                	addi	a4,a4,16
     bd6:	480d                	li	a6,3
     bd8:	00e81733          	sll	a4,a6,a4
     bdc:	fff74713          	not	a4,a4
     be0:	8ff9                	and	a5,a5,a4
     be2:	a805                	j	c12 <GPIO_PinRemapConfig+0xac>
     be4:	01555713          	srli	a4,a0,0x15
     be8:	3ff77713          	andi	a4,a4,1023
     bec:	0712                	slli	a4,a4,0x4
     bee:	00e61733          	sll	a4,a2,a4
     bf2:	fff74713          	not	a4,a4
     bf6:	8ff9                	and	a5,a5,a4
     bf8:	a829                	j	c12 <GPIO_PinRemapConfig+0xac>
     bfa:	f1000737          	lui	a4,0xf1000
     bfe:	177d                	addi	a4,a4,-1
     c00:	8ff9                	and	a5,a5,a4
     c02:	400108b7          	lui	a7,0x40010
     c06:	0048a803          	lw	a6,4(a7) # 40010004 <_eusrstack+0x20008004>
     c0a:	00e87733          	and	a4,a6,a4
     c0e:	00e8a223          	sw	a4,4(a7)
     c12:	c981                	beqz	a1,c22 <GPIO_PinRemapConfig+0xbc>
     c14:	8155                	srli	a0,a0,0x15
     c16:	3ff57513          	andi	a0,a0,1023
     c1a:	0512                	slli	a0,a0,0x4
     c1c:	00a61533          	sll	a0,a2,a0
     c20:	8fc9                	or	a5,a5,a0
     c22:	0206c263          	bltz	a3,c46 <GPIO_PinRemapConfig+0xe0>
     c26:	40010737          	lui	a4,0x40010
     c2a:	c35c                	sw	a5,4(a4)
     c2c:	8082                	ret
     c2e:	01555713          	srli	a4,a0,0x15
     c32:	0712                	slli	a4,a4,0x4
     c34:	00e61733          	sll	a4,a2,a4
     c38:	fff74713          	not	a4,a4
     c3c:	8f7d                	and	a4,a4,a5
     c3e:	0f0007b7          	lui	a5,0xf000
     c42:	8fd9                	or	a5,a5,a4
     c44:	b7f9                	j	c12 <GPIO_PinRemapConfig+0xac>
     c46:	40010737          	lui	a4,0x40010
     c4a:	cf5c                	sw	a5,28(a4)
     c4c:	8082                	ret

00000c4e <NVIC_PriorityGroupConfig>:
     c4e:	82a1a223          	sw	a0,-2012(gp) # 20000094 <NVIC_Priority_Group>
     c52:	8082                	ret

00000c54 <NVIC_Init>:
     c54:	82418793          	addi	a5,gp,-2012 # 20000094 <NVIC_Priority_Group>
     c58:	439c                	lw	a5,0(a5)
     c5a:	ef85                	bnez	a5,c92 <NVIC_Init+0x3e>
     c5c:	2114                	fld	fa3,0(a0)
     c5e:	213c                	fld	fa5,64(a0)
     c60:	0792                	slli	a5,a5,0x4
     c62:	0ff7f793          	andi	a5,a5,255
     c66:	e000e737          	lui	a4,0xe000e
     c6a:	9736                	add	a4,a4,a3
     c6c:	40f70023          	sb	a5,1024(a4) # e000e400 <_eusrstack+0xc0006400>
     c70:	415c                	lw	a5,4(a0)
     c72:	14078263          	beqz	a5,db6 <NVIC_Init+0x162>
     c76:	2118                	fld	fa4,0(a0)
     c78:	00575793          	srli	a5,a4,0x5
     c7c:	4685                	li	a3,1
     c7e:	00e696b3          	sll	a3,a3,a4
     c82:	04078793          	addi	a5,a5,64 # f000040 <_data_lma+0xeff6cc4>
     c86:	078a                	slli	a5,a5,0x2
     c88:	e000e737          	lui	a4,0xe000e
     c8c:	97ba                	add	a5,a5,a4
     c8e:	c394                	sw	a3,0(a5)
     c90:	8082                	ret
     c92:	82418793          	addi	a5,gp,-2012 # 20000094 <NVIC_Priority_Group>
     c96:	4398                	lw	a4,0(a5)
     c98:	4785                	li	a5,1
     c9a:	02f70f63          	beq	a4,a5,cd8 <NVIC_Init+0x84>
     c9e:	82418793          	addi	a5,gp,-2012 # 20000094 <NVIC_Priority_Group>
     ca2:	4398                	lw	a4,0(a5)
     ca4:	4789                	li	a5,2
     ca6:	06f70463          	beq	a4,a5,d0e <NVIC_Init+0xba>
     caa:	82418793          	addi	a5,gp,-2012 # 20000094 <NVIC_Priority_Group>
     cae:	4398                	lw	a4,0(a5)
     cb0:	478d                	li	a5,3
     cb2:	0af70863          	beq	a4,a5,d62 <NVIC_Init+0x10e>
     cb6:	82418793          	addi	a5,gp,-2012 # 20000094 <NVIC_Priority_Group>
     cba:	4398                	lw	a4,0(a5)
     cbc:	4791                	li	a5,4
     cbe:	faf719e3          	bne	a4,a5,c70 <NVIC_Init+0x1c>
     cc2:	2114                	fld	fa3,0(a0)
     cc4:	311c                	fld	fa5,32(a0)
     cc6:	0792                	slli	a5,a5,0x4
     cc8:	0ff7f793          	andi	a5,a5,255
     ccc:	e000e737          	lui	a4,0xe000e
     cd0:	9736                	add	a4,a4,a3
     cd2:	40f70023          	sb	a5,1024(a4) # e000e400 <_eusrstack+0xc0006400>
     cd6:	bf69                	j	c70 <NVIC_Init+0x1c>
     cd8:	3118                	fld	fa4,32(a0)
     cda:	00f70d63          	beq	a4,a5,cf4 <NVIC_Init+0xa0>
     cde:	2114                	fld	fa3,0(a0)
     ce0:	213c                	fld	fa5,64(a0)
     ce2:	0792                	slli	a5,a5,0x4
     ce4:	0ff7f793          	andi	a5,a5,255
     ce8:	e000e737          	lui	a4,0xe000e
     cec:	9736                	add	a4,a4,a3
     cee:	40f70023          	sb	a5,1024(a4) # e000e400 <_eusrstack+0xc0006400>
     cf2:	bfbd                	j	c70 <NVIC_Init+0x1c>
     cf4:	2114                	fld	fa3,0(a0)
     cf6:	213c                	fld	fa5,64(a0)
     cf8:	0792                	slli	a5,a5,0x4
     cfa:	f807e793          	ori	a5,a5,-128
     cfe:	0f07f793          	andi	a5,a5,240
     d02:	e000e737          	lui	a4,0xe000e
     d06:	9736                	add	a4,a4,a3
     d08:	40f70023          	sb	a5,1024(a4) # e000e400 <_eusrstack+0xc0006400>
     d0c:	b795                	j	c70 <NVIC_Init+0x1c>
     d0e:	311c                	fld	fa5,32(a0)
     d10:	4705                	li	a4,1
     d12:	02f77763          	bgeu	a4,a5,d40 <NVIC_Init+0xec>
     d16:	2138                	fld	fa4,64(a0)
     d18:	03e78793          	addi	a5,a5,62
     d1c:	078a                	slli	a5,a5,0x2
     d1e:	0ff7f793          	andi	a5,a5,255
     d22:	97ba                	add	a5,a5,a4
     d24:	0ff7f793          	andi	a5,a5,255
     d28:	2114                	fld	fa3,0(a0)
     d2a:	0792                	slli	a5,a5,0x4
     d2c:	f807e793          	ori	a5,a5,-128
     d30:	0f07f793          	andi	a5,a5,240
     d34:	e000e737          	lui	a4,0xe000e
     d38:	9736                	add	a4,a4,a3
     d3a:	40f70023          	sb	a5,1024(a4) # e000e400 <_eusrstack+0xc0006400>
     d3e:	bf0d                	j	c70 <NVIC_Init+0x1c>
     d40:	2138                	fld	fa4,64(a0)
     d42:	078a                	slli	a5,a5,0x2
     d44:	0ff7f793          	andi	a5,a5,255
     d48:	97ba                	add	a5,a5,a4
     d4a:	0ff7f793          	andi	a5,a5,255
     d4e:	2114                	fld	fa3,0(a0)
     d50:	0792                	slli	a5,a5,0x4
     d52:	0ff7f793          	andi	a5,a5,255
     d56:	e000e737          	lui	a4,0xe000e
     d5a:	9736                	add	a4,a4,a3
     d5c:	40f70023          	sb	a5,1024(a4) # e000e400 <_eusrstack+0xc0006400>
     d60:	bf01                	j	c70 <NVIC_Init+0x1c>
     d62:	311c                	fld	fa5,32(a0)
     d64:	470d                	li	a4,3
     d66:	02f76363          	bltu	a4,a5,d8c <NVIC_Init+0x138>
     d6a:	2138                	fld	fa4,64(a0)
     d6c:	0786                	slli	a5,a5,0x1
     d6e:	0ff7f793          	andi	a5,a5,255
     d72:	97ba                	add	a5,a5,a4
     d74:	0ff7f793          	andi	a5,a5,255
     d78:	2114                	fld	fa3,0(a0)
     d7a:	0792                	slli	a5,a5,0x4
     d7c:	0ff7f793          	andi	a5,a5,255
     d80:	e000e737          	lui	a4,0xe000e
     d84:	9736                	add	a4,a4,a3
     d86:	40f70023          	sb	a5,1024(a4) # e000e400 <_eusrstack+0xc0006400>
     d8a:	b5dd                	j	c70 <NVIC_Init+0x1c>
     d8c:	2138                	fld	fa4,64(a0)
     d8e:	07c78793          	addi	a5,a5,124
     d92:	0786                	slli	a5,a5,0x1
     d94:	0ff7f793          	andi	a5,a5,255
     d98:	97ba                	add	a5,a5,a4
     d9a:	0ff7f793          	andi	a5,a5,255
     d9e:	2114                	fld	fa3,0(a0)
     da0:	0792                	slli	a5,a5,0x4
     da2:	f807e793          	ori	a5,a5,-128
     da6:	0f07f793          	andi	a5,a5,240
     daa:	e000e737          	lui	a4,0xe000e
     dae:	9736                	add	a4,a4,a3
     db0:	40f70023          	sb	a5,1024(a4) # e000e400 <_eusrstack+0xc0006400>
     db4:	bd75                	j	c70 <NVIC_Init+0x1c>
     db6:	2118                	fld	fa4,0(a0)
     db8:	00575793          	srli	a5,a4,0x5
     dbc:	4685                	li	a3,1
     dbe:	00e696b3          	sll	a3,a3,a4
     dc2:	06078793          	addi	a5,a5,96
     dc6:	078a                	slli	a5,a5,0x2
     dc8:	e000e737          	lui	a4,0xe000e
     dcc:	97ba                	add	a5,a5,a4
     dce:	c394                	sw	a3,0(a5)
     dd0:	8082                	ret

00000dd2 <RCC_ADCCLKConfig>:
     dd2:	400216b7          	lui	a3,0x40021
     dd6:	42dc                	lw	a5,4(a3)
     dd8:	7751                	lui	a4,0xffff4
     dda:	177d                	addi	a4,a4,-1
     ddc:	8ff9                	and	a5,a5,a4
     dde:	8d5d                	or	a0,a0,a5
     de0:	c2c8                	sw	a0,4(a3)
     de2:	8082                	ret

00000de4 <RCC_AHBPeriphClockCmd>:
     de4:	c599                	beqz	a1,df2 <RCC_AHBPeriphClockCmd+0xe>
     de6:	40021737          	lui	a4,0x40021
     dea:	4b5c                	lw	a5,20(a4)
     dec:	8d5d                	or	a0,a0,a5
     dee:	cb48                	sw	a0,20(a4)
     df0:	8082                	ret
     df2:	40021737          	lui	a4,0x40021
     df6:	4b5c                	lw	a5,20(a4)
     df8:	fff54513          	not	a0,a0
     dfc:	8d7d                	and	a0,a0,a5
     dfe:	cb48                	sw	a0,20(a4)
     e00:	8082                	ret

00000e02 <RCC_APB2PeriphClockCmd>:
     e02:	c599                	beqz	a1,e10 <RCC_APB2PeriphClockCmd+0xe>
     e04:	40021737          	lui	a4,0x40021
     e08:	4f1c                	lw	a5,24(a4)
     e0a:	8d5d                	or	a0,a0,a5
     e0c:	cf08                	sw	a0,24(a4)
     e0e:	8082                	ret
     e10:	40021737          	lui	a4,0x40021
     e14:	4f1c                	lw	a5,24(a4)
     e16:	fff54513          	not	a0,a0
     e1a:	8d7d                	and	a0,a0,a5
     e1c:	cf08                	sw	a0,24(a4)
     e1e:	8082                	ret

00000e20 <RCC_APB1PeriphClockCmd>:
     e20:	c599                	beqz	a1,e2e <RCC_APB1PeriphClockCmd+0xe>
     e22:	40021737          	lui	a4,0x40021
     e26:	4f5c                	lw	a5,28(a4)
     e28:	8d5d                	or	a0,a0,a5
     e2a:	cf48                	sw	a0,28(a4)
     e2c:	8082                	ret
     e2e:	40021737          	lui	a4,0x40021
     e32:	4f5c                	lw	a5,28(a4)
     e34:	fff54513          	not	a0,a0
     e38:	8d7d                	and	a0,a0,a5
     e3a:	cf48                	sw	a0,28(a4)
     e3c:	8082                	ret

00000e3e <RCC_APB2PeriphResetCmd>:
     e3e:	c599                	beqz	a1,e4c <RCC_APB2PeriphResetCmd+0xe>
     e40:	40021737          	lui	a4,0x40021
     e44:	475c                	lw	a5,12(a4)
     e46:	8d5d                	or	a0,a0,a5
     e48:	c748                	sw	a0,12(a4)
     e4a:	8082                	ret
     e4c:	40021737          	lui	a4,0x40021
     e50:	475c                	lw	a5,12(a4)
     e52:	fff54513          	not	a0,a0
     e56:	8d7d                	and	a0,a0,a5
     e58:	c748                	sw	a0,12(a4)
     e5a:	8082                	ret

00000e5c <RCC_USBHSConfig>:
     e5c:	400217b7          	lui	a5,0x40021
     e60:	57d8                	lw	a4,44(a5)
     e62:	f90006b7          	lui	a3,0xf9000
     e66:	16fd                	addi	a3,a3,-1
     e68:	8f75                	and	a4,a4,a3
     e6a:	d7d8                	sw	a4,44(a5)
     e6c:	57d8                	lw	a4,44(a5)
     e6e:	0562                	slli	a0,a0,0x18
     e70:	8f49                	or	a4,a4,a0
     e72:	d7d8                	sw	a4,44(a5)
     e74:	8082                	ret

00000e76 <RCC_USBHSPLLCLKConfig>:
     e76:	400217b7          	lui	a5,0x40021
     e7a:	57d8                	lw	a4,44(a5)
     e7c:	f80006b7          	lui	a3,0xf8000
     e80:	16fd                	addi	a3,a3,-1
     e82:	8f75                	and	a4,a4,a3
     e84:	d7d8                	sw	a4,44(a5)
     e86:	57d8                	lw	a4,44(a5)
     e88:	056e                	slli	a0,a0,0x1b
     e8a:	8f49                	or	a4,a4,a0
     e8c:	d7d8                	sw	a4,44(a5)
     e8e:	8082                	ret

00000e90 <RCC_USBHSPLLCKREFCLKConfig>:
     e90:	400217b7          	lui	a5,0x40021
     e94:	57d8                	lw	a4,44(a5)
     e96:	d00006b7          	lui	a3,0xd0000
     e9a:	16fd                	addi	a3,a3,-1
     e9c:	8f75                	and	a4,a4,a3
     e9e:	d7d8                	sw	a4,44(a5)
     ea0:	57d8                	lw	a4,44(a5)
     ea2:	0572                	slli	a0,a0,0x1c
     ea4:	8f49                	or	a4,a4,a0
     ea6:	d7d8                	sw	a4,44(a5)
     ea8:	8082                	ret

00000eaa <RCC_USBHSPHYPLLALIVEcmd>:
     eaa:	c909                	beqz	a0,ebc <RCC_USBHSPHYPLLALIVEcmd+0x12>
     eac:	40021737          	lui	a4,0x40021
     eb0:	575c                	lw	a5,44(a4)
     eb2:	400006b7          	lui	a3,0x40000
     eb6:	8fd5                	or	a5,a5,a3
     eb8:	d75c                	sw	a5,44(a4)
     eba:	8082                	ret
     ebc:	400216b7          	lui	a3,0x40021
     ec0:	56dc                	lw	a5,44(a3)
     ec2:	c0000737          	lui	a4,0xc0000
     ec6:	177d                	addi	a4,a4,-1
     ec8:	8ff9                	and	a5,a5,a4
     eca:	d6dc                	sw	a5,44(a3)
     ecc:	8082                	ret

00000ece <RCC_USBCLK48MConfig>:
     ece:	400217b7          	lui	a5,0x40021
     ed2:	57d8                	lw	a4,44(a5)
     ed4:	800006b7          	lui	a3,0x80000
     ed8:	fff6c693          	not	a3,a3
     edc:	8f75                	and	a4,a4,a3
     ede:	d7d8                	sw	a4,44(a5)
     ee0:	57d8                	lw	a4,44(a5)
     ee2:	057e                	slli	a0,a0,0x1f
     ee4:	8f49                	or	a4,a4,a0
     ee6:	d7d8                	sw	a4,44(a5)
     ee8:	8082                	ret

00000eea <TI1_Config>:
     eea:	02055803          	lhu	a6,32(a0)
     eee:	0842                	slli	a6,a6,0x10
     ef0:	01085813          	srli	a6,a6,0x10
     ef4:	ffe87813          	andi	a6,a6,-2
     ef8:	0842                	slli	a6,a6,0x10
     efa:	01085813          	srli	a6,a6,0x10
     efe:	03051023          	sh	a6,32(a0)
     f02:	01855803          	lhu	a6,24(a0)
     f06:	0842                	slli	a6,a6,0x10
     f08:	01085813          	srli	a6,a6,0x10
     f0c:	311e                	fld	ft2,480(sp)
     f0e:	07c2                	slli	a5,a5,0x10
     f10:	83c1                	srli	a5,a5,0x10
     f12:	f0c87813          	andi	a6,a6,-244
     f16:	0692                	slli	a3,a3,0x4
     f18:	06c2                	slli	a3,a3,0x10
     f1a:	82c1                	srli	a3,a3,0x10
     f1c:	8e55                	or	a2,a2,a3
     f1e:	00c86833          	or	a6,a6,a2
     f22:	400136b7          	lui	a3,0x40013
     f26:	c0068693          	addi	a3,a3,-1024 # 40012c00 <_eusrstack+0x2000ac00>
     f2a:	04d50d63          	beq	a0,a3,f84 <TI1_Config+0x9a>
     f2e:	40000737          	lui	a4,0x40000
     f32:	04e50963          	beq	a0,a4,f84 <TI1_Config+0x9a>
     f36:	40070713          	addi	a4,a4,1024 # 40000400 <_eusrstack+0x1fff8400>
     f3a:	04e50563          	beq	a0,a4,f84 <TI1_Config+0x9a>
     f3e:	40001737          	lui	a4,0x40001
     f42:	80070713          	addi	a4,a4,-2048 # 40000800 <_eusrstack+0x1fff8800>
     f46:	02e50f63          	beq	a0,a4,f84 <TI1_Config+0x9a>
     f4a:	40001737          	lui	a4,0x40001
     f4e:	c0070713          	addi	a4,a4,-1024 # 40000c00 <_eusrstack+0x1fff8c00>
     f52:	02e50963          	beq	a0,a4,f84 <TI1_Config+0x9a>
     f56:	40013737          	lui	a4,0x40013
     f5a:	40070713          	addi	a4,a4,1024 # 40013400 <_eusrstack+0x2000b400>
     f5e:	02e50363          	beq	a0,a4,f84 <TI1_Config+0x9a>
     f62:	40015737          	lui	a4,0x40015
     f66:	c0070713          	addi	a4,a4,-1024 # 40014c00 <_eusrstack+0x2000cc00>
     f6a:	00e50d63          	beq	a0,a4,f84 <TI1_Config+0x9a>
     f6e:	40015737          	lui	a4,0x40015
     f72:	00e50963          	beq	a0,a4,f84 <TI1_Config+0x9a>
     f76:	ff57f713          	andi	a4,a5,-11
     f7a:	00b767b3          	or	a5,a4,a1
     f7e:	0017e793          	ori	a5,a5,1
     f82:	a029                	j	f8c <TI1_Config+0xa2>
     f84:	9bf5                	andi	a5,a5,-3
     f86:	8fcd                	or	a5,a5,a1
     f88:	0017e793          	ori	a5,a5,1
     f8c:	01051c23          	sh	a6,24(a0)
     f90:	b11e                	fsd	ft7,160(sp)
     f92:	8082                	ret

00000f94 <TI2_Config>:
     f94:	311e                	fld	ft2,480(sp)
     f96:	07c2                	slli	a5,a5,0x10
     f98:	83c1                	srli	a5,a5,0x10
     f9a:	9bbd                	andi	a5,a5,-17
     f9c:	07c2                	slli	a5,a5,0x10
     f9e:	83c1                	srli	a5,a5,0x10
     fa0:	b11e                	fsd	ft7,160(sp)
     fa2:	01855803          	lhu	a6,24(a0)
     fa6:	311e                	fld	ft2,480(sp)
     fa8:	07c2                	slli	a5,a5,0x10
     faa:	83c1                	srli	a5,a5,0x10
     fac:	00459713          	slli	a4,a1,0x4
     fb0:	01071893          	slli	a7,a4,0x10
     fb4:	0108d893          	srli	a7,a7,0x10
     fb8:	6705                	lui	a4,0x1
     fba:	cff70713          	addi	a4,a4,-769 # cff <NVIC_Init+0xab>
     fbe:	01077733          	and	a4,a4,a6
     fc2:	06b2                	slli	a3,a3,0xc
     fc4:	06c2                	slli	a3,a3,0x10
     fc6:	82c1                	srli	a3,a3,0x10
     fc8:	8ed9                	or	a3,a3,a4
     fca:	0622                	slli	a2,a2,0x8
     fcc:	0642                	slli	a2,a2,0x10
     fce:	8241                	srli	a2,a2,0x10
     fd0:	8e55                	or	a2,a2,a3
     fd2:	40013737          	lui	a4,0x40013
     fd6:	c0070713          	addi	a4,a4,-1024 # 40012c00 <_eusrstack+0x2000ac00>
     fda:	04e50c63          	beq	a0,a4,1032 <TI2_Config+0x9e>
     fde:	40000737          	lui	a4,0x40000
     fe2:	04e50863          	beq	a0,a4,1032 <TI2_Config+0x9e>
     fe6:	40070713          	addi	a4,a4,1024 # 40000400 <_eusrstack+0x1fff8400>
     fea:	04e50463          	beq	a0,a4,1032 <TI2_Config+0x9e>
     fee:	40001737          	lui	a4,0x40001
     ff2:	80070713          	addi	a4,a4,-2048 # 40000800 <_eusrstack+0x1fff8800>
     ff6:	02e50e63          	beq	a0,a4,1032 <TI2_Config+0x9e>
     ffa:	40001737          	lui	a4,0x40001
     ffe:	c0070713          	addi	a4,a4,-1024 # 40000c00 <_eusrstack+0x1fff8c00>
    1002:	02e50863          	beq	a0,a4,1032 <TI2_Config+0x9e>
    1006:	40013737          	lui	a4,0x40013
    100a:	40070713          	addi	a4,a4,1024 # 40013400 <_eusrstack+0x2000b400>
    100e:	02e50263          	beq	a0,a4,1032 <TI2_Config+0x9e>
    1012:	40015737          	lui	a4,0x40015
    1016:	c0070713          	addi	a4,a4,-1024 # 40014c00 <_eusrstack+0x2000cc00>
    101a:	00e50c63          	beq	a0,a4,1032 <TI2_Config+0x9e>
    101e:	40015737          	lui	a4,0x40015
    1022:	00e50863          	beq	a0,a4,1032 <TI2_Config+0x9e>
    1026:	f5f7f793          	andi	a5,a5,-161
    102a:	8fcd                	or	a5,a5,a1
    102c:	0107e793          	ori	a5,a5,16
    1030:	a039                	j	103e <TI2_Config+0xaa>
    1032:	fdf7f793          	andi	a5,a5,-33
    1036:	0117e7b3          	or	a5,a5,a7
    103a:	0107e793          	ori	a5,a5,16
    103e:	ad12                	fsd	ft4,152(sp)
    1040:	b11e                	fsd	ft7,160(sp)
    1042:	8082                	ret

00001044 <TI3_Config>:
    1044:	311e                	fld	ft2,480(sp)
    1046:	07c2                	slli	a5,a5,0x10
    1048:	83c1                	srli	a5,a5,0x10
    104a:	eff7f793          	andi	a5,a5,-257
    104e:	07c2                	slli	a5,a5,0x10
    1050:	83c1                	srli	a5,a5,0x10
    1052:	b11e                	fsd	ft7,160(sp)
    1054:	2d5e                	fld	fs10,464(sp)
    1056:	07c2                	slli	a5,a5,0x10
    1058:	83c1                	srli	a5,a5,0x10
    105a:	311a                	fld	ft2,416(sp)
    105c:	01071893          	slli	a7,a4,0x10
    1060:	0108d893          	srli	a7,a7,0x10
    1064:	00859713          	slli	a4,a1,0x8
    1068:	01071813          	slli	a6,a4,0x10
    106c:	01085813          	srli	a6,a6,0x10
    1070:	f0c7f793          	andi	a5,a5,-244
    1074:	0692                	slli	a3,a3,0x4
    1076:	06c2                	slli	a3,a3,0x10
    1078:	82c1                	srli	a3,a3,0x10
    107a:	8e55                	or	a2,a2,a3
    107c:	8fd1                	or	a5,a5,a2
    107e:	40013737          	lui	a4,0x40013
    1082:	c0070713          	addi	a4,a4,-1024 # 40012c00 <_eusrstack+0x2000ac00>
    1086:	04e50f63          	beq	a0,a4,10e4 <TI3_Config+0xa0>
    108a:	40000737          	lui	a4,0x40000
    108e:	04e50b63          	beq	a0,a4,10e4 <TI3_Config+0xa0>
    1092:	40070713          	addi	a4,a4,1024 # 40000400 <_eusrstack+0x1fff8400>
    1096:	04e50763          	beq	a0,a4,10e4 <TI3_Config+0xa0>
    109a:	40001737          	lui	a4,0x40001
    109e:	80070713          	addi	a4,a4,-2048 # 40000800 <_eusrstack+0x1fff8800>
    10a2:	04e50163          	beq	a0,a4,10e4 <TI3_Config+0xa0>
    10a6:	40001737          	lui	a4,0x40001
    10aa:	c0070713          	addi	a4,a4,-1024 # 40000c00 <_eusrstack+0x1fff8c00>
    10ae:	02e50b63          	beq	a0,a4,10e4 <TI3_Config+0xa0>
    10b2:	40013737          	lui	a4,0x40013
    10b6:	40070713          	addi	a4,a4,1024 # 40013400 <_eusrstack+0x2000b400>
    10ba:	02e50563          	beq	a0,a4,10e4 <TI3_Config+0xa0>
    10be:	40015737          	lui	a4,0x40015
    10c2:	c0070713          	addi	a4,a4,-1024 # 40014c00 <_eusrstack+0x2000cc00>
    10c6:	00e50f63          	beq	a0,a4,10e4 <TI3_Config+0xa0>
    10ca:	40015737          	lui	a4,0x40015
    10ce:	00e50b63          	beq	a0,a4,10e4 <TI3_Config+0xa0>
    10d2:	777d                	lui	a4,0xfffff
    10d4:	5ff70713          	addi	a4,a4,1535 # fffff5ff <_eusrstack+0xdfff75ff>
    10d8:	00e8f733          	and	a4,a7,a4
    10dc:	8dd9                	or	a1,a1,a4
    10de:	1005e593          	ori	a1,a1,256
    10e2:	a039                	j	10f0 <TI3_Config+0xac>
    10e4:	dff8f593          	andi	a1,a7,-513
    10e8:	0105e5b3          	or	a1,a1,a6
    10ec:	1005e593          	ori	a1,a1,256
    10f0:	ad5e                	fsd	fs7,152(sp)
    10f2:	b10e                	fsd	ft3,160(sp)
    10f4:	8082                	ret

000010f6 <TI4_Config>:
    10f6:	311a                	fld	ft2,416(sp)
    10f8:	77fd                	lui	a5,0xfffff
    10fa:	17fd                	addi	a5,a5,-1
    10fc:	8ff9                	and	a5,a5,a4
    10fe:	b11e                	fsd	ft7,160(sp)
    1100:	2d5a                	fld	fs10,400(sp)
    1102:	311e                	fld	ft2,480(sp)
    1104:	01079893          	slli	a7,a5,0x10
    1108:	0108d893          	srli	a7,a7,0x10
    110c:	00c59813          	slli	a6,a1,0xc
    1110:	0842                	slli	a6,a6,0x10
    1112:	01085813          	srli	a6,a6,0x10
    1116:	6785                	lui	a5,0x1
    1118:	cff78793          	addi	a5,a5,-769 # cff <NVIC_Init+0xab>
    111c:	8ff9                	and	a5,a5,a4
    111e:	0622                	slli	a2,a2,0x8
    1120:	0642                	slli	a2,a2,0x10
    1122:	8241                	srli	a2,a2,0x10
    1124:	8e5d                	or	a2,a2,a5
    1126:	06b2                	slli	a3,a3,0xc
    1128:	06c2                	slli	a3,a3,0x10
    112a:	82c1                	srli	a3,a3,0x10
    112c:	8ed1                	or	a3,a3,a2
    112e:	40013737          	lui	a4,0x40013
    1132:	c0070713          	addi	a4,a4,-1024 # 40012c00 <_eusrstack+0x2000ac00>
    1136:	04e50f63          	beq	a0,a4,1194 <TI4_Config+0x9e>
    113a:	400007b7          	lui	a5,0x40000
    113e:	04f50b63          	beq	a0,a5,1194 <TI4_Config+0x9e>
    1142:	40078793          	addi	a5,a5,1024 # 40000400 <_eusrstack+0x1fff8400>
    1146:	04f50763          	beq	a0,a5,1194 <TI4_Config+0x9e>
    114a:	400017b7          	lui	a5,0x40001
    114e:	80078793          	addi	a5,a5,-2048 # 40000800 <_eusrstack+0x1fff8800>
    1152:	04f50163          	beq	a0,a5,1194 <TI4_Config+0x9e>
    1156:	400017b7          	lui	a5,0x40001
    115a:	c0078793          	addi	a5,a5,-1024 # 40000c00 <_eusrstack+0x1fff8c00>
    115e:	02f50b63          	beq	a0,a5,1194 <TI4_Config+0x9e>
    1162:	400137b7          	lui	a5,0x40013
    1166:	40078793          	addi	a5,a5,1024 # 40013400 <_eusrstack+0x2000b400>
    116a:	02f50563          	beq	a0,a5,1194 <TI4_Config+0x9e>
    116e:	400157b7          	lui	a5,0x40015
    1172:	c0078793          	addi	a5,a5,-1024 # 40014c00 <_eusrstack+0x2000cc00>
    1176:	00f50f63          	beq	a0,a5,1194 <TI4_Config+0x9e>
    117a:	400157b7          	lui	a5,0x40015
    117e:	00f50b63          	beq	a0,a5,1194 <TI4_Config+0x9e>
    1182:	67a1                	lui	a5,0x8
    1184:	dff78793          	addi	a5,a5,-513 # 7dff <__subdf3+0x355>
    1188:	00f8f7b3          	and	a5,a7,a5
    118c:	8ddd                	or	a1,a1,a5
    118e:	6785                	lui	a5,0x1
    1190:	8fcd                	or	a5,a5,a1
    1192:	a809                	j	11a4 <TI4_Config+0xae>
    1194:	7779                	lui	a4,0xffffe
    1196:	177d                	addi	a4,a4,-1
    1198:	00e8f7b3          	and	a5,a7,a4
    119c:	00f867b3          	or	a5,a6,a5
    11a0:	6705                	lui	a4,0x1
    11a2:	8fd9                	or	a5,a5,a4
    11a4:	ad56                	fsd	fs5,152(sp)
    11a6:	b11e                	fsd	ft7,160(sp)
    11a8:	8082                	ret

000011aa <TIM_TimeBaseInit>:
    11aa:	211e                	fld	ft2,448(sp)
    11ac:	07c2                	slli	a5,a5,0x10
    11ae:	83c1                	srli	a5,a5,0x10
    11b0:	40013737          	lui	a4,0x40013
    11b4:	c0070713          	addi	a4,a4,-1024 # 40012c00 <_eusrstack+0x2000ac00>
    11b8:	04e50663          	beq	a0,a4,1204 <TIM_TimeBaseInit+0x5a>
    11bc:	40000737          	lui	a4,0x40000
    11c0:	04e50263          	beq	a0,a4,1204 <TIM_TimeBaseInit+0x5a>
    11c4:	40070713          	addi	a4,a4,1024 # 40000400 <_eusrstack+0x1fff8400>
    11c8:	02e50e63          	beq	a0,a4,1204 <TIM_TimeBaseInit+0x5a>
    11cc:	40001737          	lui	a4,0x40001
    11d0:	80070713          	addi	a4,a4,-2048 # 40000800 <_eusrstack+0x1fff8800>
    11d4:	02e50863          	beq	a0,a4,1204 <TIM_TimeBaseInit+0x5a>
    11d8:	40001737          	lui	a4,0x40001
    11dc:	c0070713          	addi	a4,a4,-1024 # 40000c00 <_eusrstack+0x1fff8c00>
    11e0:	02e50263          	beq	a0,a4,1204 <TIM_TimeBaseInit+0x5a>
    11e4:	40013737          	lui	a4,0x40013
    11e8:	40070713          	addi	a4,a4,1024 # 40013400 <_eusrstack+0x2000b400>
    11ec:	00e50c63          	beq	a0,a4,1204 <TIM_TimeBaseInit+0x5a>
    11f0:	40015737          	lui	a4,0x40015
    11f4:	c0070713          	addi	a4,a4,-1024 # 40014c00 <_eusrstack+0x2000cc00>
    11f8:	00e50663          	beq	a0,a4,1204 <TIM_TimeBaseInit+0x5a>
    11fc:	40015737          	lui	a4,0x40015
    1200:	00e51663          	bne	a0,a4,120c <TIM_TimeBaseInit+0x62>
    1204:	f8f7f793          	andi	a5,a5,-113
    1208:	21ba                	fld	ft3,392(sp)
    120a:	8fd9                	or	a5,a5,a4
    120c:	40001737          	lui	a4,0x40001
    1210:	00e50c63          	beq	a0,a4,1228 <TIM_TimeBaseInit+0x7e>
    1214:	40070713          	addi	a4,a4,1024 # 40001400 <_eusrstack+0x1fff9400>
    1218:	00e50863          	beq	a0,a4,1228 <TIM_TimeBaseInit+0x7e>
    121c:	cff7f793          	andi	a5,a5,-769
    1220:	07c2                	slli	a5,a5,0x10
    1222:	83c1                	srli	a5,a5,0x10
    1224:	21fa                	fld	ft3,408(sp)
    1226:	8fd9                	or	a5,a5,a4
    1228:	a11e                	fsd	ft7,128(sp)
    122a:	21de                	fld	ft3,464(sp)
    122c:	b55e                	fsd	fs7,168(sp)
    122e:	219e                	fld	ft3,448(sp)
    1230:	b51e                	fsd	ft7,168(sp)
    1232:	400137b7          	lui	a5,0x40013
    1236:	c0078793          	addi	a5,a5,-1024 # 40012c00 <_eusrstack+0x2000ac00>
    123a:	02f50263          	beq	a0,a5,125e <TIM_TimeBaseInit+0xb4>
    123e:	400137b7          	lui	a5,0x40013
    1242:	40078793          	addi	a5,a5,1024 # 40013400 <_eusrstack+0x2000b400>
    1246:	00f50c63          	beq	a0,a5,125e <TIM_TimeBaseInit+0xb4>
    124a:	400157b7          	lui	a5,0x40015
    124e:	c0078793          	addi	a5,a5,-1024 # 40014c00 <_eusrstack+0x2000cc00>
    1252:	00f50663          	beq	a0,a5,125e <TIM_TimeBaseInit+0xb4>
    1256:	400157b7          	lui	a5,0x40015
    125a:	00f51463          	bne	a0,a5,1262 <TIM_TimeBaseInit+0xb8>
    125e:	259c                	fld	fa5,8(a1)
    1260:	b91e                	fsd	ft7,176(sp)
    1262:	4785                	li	a5,1
    1264:	a95e                	fsd	fs7,144(sp)
    1266:	8082                	ret

00001268 <TIM_OC1Init>:
    1268:	311e                	fld	ft2,480(sp)
    126a:	07c2                	slli	a5,a5,0x10
    126c:	83c1                	srli	a5,a5,0x10
    126e:	9bf9                	andi	a5,a5,-2
    1270:	07c2                	slli	a5,a5,0x10
    1272:	83c1                	srli	a5,a5,0x10
    1274:	b11e                	fsd	ft7,160(sp)
    1276:	311e                	fld	ft2,480(sp)
    1278:	07c2                	slli	a5,a5,0x10
    127a:	83c1                	srli	a5,a5,0x10
    127c:	215a                	fld	ft2,400(sp)
    127e:	0742                	slli	a4,a4,0x10
    1280:	8341                	srli	a4,a4,0x10
    1282:	2d16                	fld	fs10,320(sp)
    1284:	06c2                	slli	a3,a3,0x10
    1286:	82c1                	srli	a3,a3,0x10
    1288:	f8c6f693          	andi	a3,a3,-116
    128c:	2192                	fld	ft3,256(sp)
    128e:	8ed1                	or	a3,a3,a2
    1290:	9bf5                	andi	a5,a5,-3
    1292:	2592                	fld	fa1,256(sp)
    1294:	8e5d                	or	a2,a2,a5
    1296:	21be                	fld	ft3,456(sp)
    1298:	8fd1                	or	a5,a5,a2
    129a:	40013637          	lui	a2,0x40013
    129e:	c0060613          	addi	a2,a2,-1024 # 40012c00 <_eusrstack+0x2000ac00>
    12a2:	02c50263          	beq	a0,a2,12c6 <TIM_OC1Init+0x5e>
    12a6:	40013637          	lui	a2,0x40013
    12aa:	40060613          	addi	a2,a2,1024 # 40013400 <_eusrstack+0x2000b400>
    12ae:	00c50c63          	beq	a0,a2,12c6 <TIM_OC1Init+0x5e>
    12b2:	40015637          	lui	a2,0x40015
    12b6:	c0060613          	addi	a2,a2,-1024 # 40014c00 <_eusrstack+0x2000cc00>
    12ba:	00c50663          	beq	a0,a2,12c6 <TIM_OC1Init+0x5e>
    12be:	40015637          	lui	a2,0x40015
    12c2:	00c51e63          	bne	a0,a2,12de <TIM_OC1Init+0x76>
    12c6:	9bdd                	andi	a5,a5,-9
    12c8:	25b2                	fld	fa1,264(sp)
    12ca:	8fd1                	or	a5,a5,a2
    12cc:	9bed                	andi	a5,a5,-5
    12ce:	21d2                	fld	ft3,272(sp)
    12d0:	8fd1                	or	a5,a5,a2
    12d2:	cff77713          	andi	a4,a4,-769
    12d6:	25d2                	fld	fa1,272(sp)
    12d8:	8f51                	or	a4,a4,a2
    12da:	25f2                	fld	fa1,280(sp)
    12dc:	8f51                	or	a4,a4,a2
    12de:	a15a                	fsd	fs6,128(sp)
    12e0:	ad16                	fsd	ft5,152(sp)
    12e2:	21fa                	fld	ft3,408(sp)
    12e4:	b95a                	fsd	fs6,176(sp)
    12e6:	b11e                	fsd	ft7,160(sp)
    12e8:	8082                	ret

000012ea <TIM_OC2Init>:
    12ea:	311e                	fld	ft2,480(sp)
    12ec:	07c2                	slli	a5,a5,0x10
    12ee:	83c1                	srli	a5,a5,0x10
    12f0:	9bbd                	andi	a5,a5,-17
    12f2:	07c2                	slli	a5,a5,0x10
    12f4:	83c1                	srli	a5,a5,0x10
    12f6:	b11e                	fsd	ft7,160(sp)
    12f8:	311e                	fld	ft2,480(sp)
    12fa:	07c2                	slli	a5,a5,0x10
    12fc:	83c1                	srli	a5,a5,0x10
    12fe:	215a                	fld	ft2,400(sp)
    1300:	0742                	slli	a4,a4,0x10
    1302:	8341                	srli	a4,a4,0x10
    1304:	2d12                	fld	fs10,256(sp)
    1306:	76e5                	lui	a3,0xffff9
    1308:	cff68693          	addi	a3,a3,-769 # ffff8cff <_eusrstack+0xdfff0cff>
    130c:	8ef1                	and	a3,a3,a2
    130e:	2192                	fld	ft3,256(sp)
    1310:	0622                	slli	a2,a2,0x8
    1312:	0642                	slli	a2,a2,0x10
    1314:	8241                	srli	a2,a2,0x10
    1316:	8e55                	or	a2,a2,a3
    1318:	fdf7f793          	andi	a5,a5,-33
    131c:	2596                	fld	fa1,320(sp)
    131e:	0692                	slli	a3,a3,0x4
    1320:	06c2                	slli	a3,a3,0x10
    1322:	82c1                	srli	a3,a3,0x10
    1324:	8edd                	or	a3,a3,a5
    1326:	21be                	fld	ft3,456(sp)
    1328:	0792                	slli	a5,a5,0x4
    132a:	07c2                	slli	a5,a5,0x10
    132c:	83c1                	srli	a5,a5,0x10
    132e:	8fd5                	or	a5,a5,a3
    1330:	400136b7          	lui	a3,0x40013
    1334:	c0068693          	addi	a3,a3,-1024 # 40012c00 <_eusrstack+0x2000ac00>
    1338:	02d50263          	beq	a0,a3,135c <TIM_OC2Init+0x72>
    133c:	400136b7          	lui	a3,0x40013
    1340:	40068693          	addi	a3,a3,1024 # 40013400 <_eusrstack+0x2000b400>
    1344:	00d50c63          	beq	a0,a3,135c <TIM_OC2Init+0x72>
    1348:	400156b7          	lui	a3,0x40015
    134c:	c0068693          	addi	a3,a3,-1024 # 40014c00 <_eusrstack+0x2000cc00>
    1350:	00d50663          	beq	a0,a3,135c <TIM_OC2Init+0x72>
    1354:	400156b7          	lui	a3,0x40015
    1358:	04d51163          	bne	a0,a3,139a <TIM_OC2Init+0xb0>
    135c:	f7f7f793          	andi	a5,a5,-129
    1360:	25b6                	fld	fa1,328(sp)
    1362:	0692                	slli	a3,a3,0x4
    1364:	06c2                	slli	a3,a3,0x10
    1366:	82c1                	srli	a3,a3,0x10
    1368:	8fd5                	or	a5,a5,a3
    136a:	fbf7f793          	andi	a5,a5,-65
    136e:	21d6                	fld	ft3,336(sp)
    1370:	0692                	slli	a3,a3,0x4
    1372:	06c2                	slli	a3,a3,0x10
    1374:	82c1                	srli	a3,a3,0x10
    1376:	8fd5                	or	a5,a5,a3
    1378:	76fd                	lui	a3,0xfffff
    137a:	3ff68693          	addi	a3,a3,1023 # fffff3ff <_eusrstack+0xdfff73ff>
    137e:	00d77833          	and	a6,a4,a3
    1382:	25d6                	fld	fa1,336(sp)
    1384:	068a                	slli	a3,a3,0x2
    1386:	01069713          	slli	a4,a3,0x10
    138a:	8341                	srli	a4,a4,0x10
    138c:	010766b3          	or	a3,a4,a6
    1390:	25fa                	fld	fa1,408(sp)
    1392:	070a                	slli	a4,a4,0x2
    1394:	0742                	slli	a4,a4,0x10
    1396:	8341                	srli	a4,a4,0x10
    1398:	8f55                	or	a4,a4,a3
    139a:	a15a                	fsd	fs6,128(sp)
    139c:	ad12                	fsd	ft4,152(sp)
    139e:	21fa                	fld	ft3,408(sp)
    13a0:	bd1a                	fsd	ft6,184(sp)
    13a2:	b11e                	fsd	ft7,160(sp)
    13a4:	8082                	ret

000013a6 <TIM_OC3Init>:
    13a6:	311e                	fld	ft2,480(sp)
    13a8:	07c2                	slli	a5,a5,0x10
    13aa:	83c1                	srli	a5,a5,0x10
    13ac:	eff7f793          	andi	a5,a5,-257
    13b0:	07c2                	slli	a5,a5,0x10
    13b2:	83c1                	srli	a5,a5,0x10
    13b4:	b11e                	fsd	ft7,160(sp)
    13b6:	311e                	fld	ft2,480(sp)
    13b8:	07c2                	slli	a5,a5,0x10
    13ba:	83c1                	srli	a5,a5,0x10
    13bc:	215a                	fld	ft2,400(sp)
    13be:	0742                	slli	a4,a4,0x10
    13c0:	8341                	srli	a4,a4,0x10
    13c2:	2d56                	fld	fs10,336(sp)
    13c4:	06c2                	slli	a3,a3,0x10
    13c6:	82c1                	srli	a3,a3,0x10
    13c8:	f8c6f693          	andi	a3,a3,-116
    13cc:	2192                	fld	ft3,256(sp)
    13ce:	8ed1                	or	a3,a3,a2
    13d0:	dff7f793          	andi	a5,a5,-513
    13d4:	2592                	fld	fa1,256(sp)
    13d6:	0622                	slli	a2,a2,0x8
    13d8:	0642                	slli	a2,a2,0x10
    13da:	8241                	srli	a2,a2,0x10
    13dc:	8e5d                	or	a2,a2,a5
    13de:	21be                	fld	ft3,456(sp)
    13e0:	07a2                	slli	a5,a5,0x8
    13e2:	07c2                	slli	a5,a5,0x10
    13e4:	83c1                	srli	a5,a5,0x10
    13e6:	8fd1                	or	a5,a5,a2
    13e8:	40013637          	lui	a2,0x40013
    13ec:	c0060613          	addi	a2,a2,-1024 # 40012c00 <_eusrstack+0x2000ac00>
    13f0:	02c50263          	beq	a0,a2,1414 <TIM_OC3Init+0x6e>
    13f4:	40013637          	lui	a2,0x40013
    13f8:	40060613          	addi	a2,a2,1024 # 40013400 <_eusrstack+0x2000b400>
    13fc:	00c50c63          	beq	a0,a2,1414 <TIM_OC3Init+0x6e>
    1400:	40015637          	lui	a2,0x40015
    1404:	c0060613          	addi	a2,a2,-1024 # 40014c00 <_eusrstack+0x2000cc00>
    1408:	00c50663          	beq	a0,a2,1414 <TIM_OC3Init+0x6e>
    140c:	40015637          	lui	a2,0x40015
    1410:	04c51263          	bne	a0,a2,1454 <TIM_OC3Init+0xae>
    1414:	767d                	lui	a2,0xfffff
    1416:	7ff60613          	addi	a2,a2,2047 # fffff7ff <_eusrstack+0xdfff77ff>
    141a:	8ff1                	and	a5,a5,a2
    141c:	25b2                	fld	fa1,264(sp)
    141e:	0622                	slli	a2,a2,0x8
    1420:	0642                	slli	a2,a2,0x10
    1422:	8241                	srli	a2,a2,0x10
    1424:	8fd1                	or	a5,a5,a2
    1426:	bff7f613          	andi	a2,a5,-1025
    142a:	21de                	fld	ft3,464(sp)
    142c:	07a2                	slli	a5,a5,0x8
    142e:	07c2                	slli	a5,a5,0x10
    1430:	83c1                	srli	a5,a5,0x10
    1432:	8fd1                	or	a5,a5,a2
    1434:	7675                	lui	a2,0xffffd
    1436:	167d                	addi	a2,a2,-1
    1438:	00c77833          	and	a6,a4,a2
    143c:	25d2                	fld	fa1,272(sp)
    143e:	0612                	slli	a2,a2,0x4
    1440:	01061713          	slli	a4,a2,0x10
    1444:	8341                	srli	a4,a4,0x10
    1446:	01076633          	or	a2,a4,a6
    144a:	25fa                	fld	fa1,408(sp)
    144c:	0712                	slli	a4,a4,0x4
    144e:	0742                	slli	a4,a4,0x10
    1450:	8341                	srli	a4,a4,0x10
    1452:	8f51                	or	a4,a4,a2
    1454:	a15a                	fsd	fs6,128(sp)
    1456:	ad56                	fsd	fs5,152(sp)
    1458:	21fa                	fld	ft3,408(sp)
    145a:	bd5a                	fsd	fs6,184(sp)
    145c:	b11e                	fsd	ft7,160(sp)
    145e:	8082                	ret

00001460 <TIM_OC4Init>:
    1460:	311a                	fld	ft2,416(sp)
    1462:	77fd                	lui	a5,0xfffff
    1464:	17fd                	addi	a5,a5,-1
    1466:	8ff9                	and	a5,a5,a4
    1468:	b11e                	fsd	ft7,160(sp)
    146a:	311a                	fld	ft2,416(sp)
    146c:	215e                	fld	ft2,464(sp)
    146e:	07c2                	slli	a5,a5,0x10
    1470:	83c1                	srli	a5,a5,0x10
    1472:	01c55803          	lhu	a6,28(a0)
    1476:	76e5                	lui	a3,0xffff9
    1478:	cff68693          	addi	a3,a3,-769 # ffff8cff <_eusrstack+0xdfff0cff>
    147c:	0106f833          	and	a6,a3,a6
    1480:	2196                	fld	ft3,320(sp)
    1482:	06a2                	slli	a3,a3,0x8
    1484:	06c2                	slli	a3,a3,0x10
    1486:	82c1                	srli	a3,a3,0x10
    1488:	0106e6b3          	or	a3,a3,a6
    148c:	7679                	lui	a2,0xffffe
    148e:	167d                	addi	a2,a2,-1
    1490:	8e79                	and	a2,a2,a4
    1492:	259a                	fld	fa1,384(sp)
    1494:	0732                	slli	a4,a4,0xc
    1496:	0742                	slli	a4,a4,0x10
    1498:	8341                	srli	a4,a4,0x10
    149a:	8e59                	or	a2,a2,a4
    149c:	21ba                	fld	ft3,392(sp)
    149e:	0732                	slli	a4,a4,0xc
    14a0:	0742                	slli	a4,a4,0x10
    14a2:	8341                	srli	a4,a4,0x10
    14a4:	8f51                	or	a4,a4,a2
    14a6:	40013637          	lui	a2,0x40013
    14aa:	c0060613          	addi	a2,a2,-1024 # 40012c00 <_eusrstack+0x2000ac00>
    14ae:	02c50263          	beq	a0,a2,14d2 <TIM_OC4Init+0x72>
    14b2:	40013637          	lui	a2,0x40013
    14b6:	40060613          	addi	a2,a2,1024 # 40013400 <_eusrstack+0x2000b400>
    14ba:	00c50c63          	beq	a0,a2,14d2 <TIM_OC4Init+0x72>
    14be:	40015637          	lui	a2,0x40015
    14c2:	c0060613          	addi	a2,a2,-1024 # 40014c00 <_eusrstack+0x2000cc00>
    14c6:	00c50663          	beq	a0,a2,14d2 <TIM_OC4Init+0x72>
    14ca:	40015637          	lui	a2,0x40015
    14ce:	00c51a63          	bne	a0,a2,14e2 <TIM_OC4Init+0x82>
    14d2:	7671                	lui	a2,0xffffc
    14d4:	167d                	addi	a2,a2,-1
    14d6:	8ff1                	and	a5,a5,a2
    14d8:	25d2                	fld	fa1,272(sp)
    14da:	061a                	slli	a2,a2,0x6
    14dc:	0642                	slli	a2,a2,0x10
    14de:	8241                	srli	a2,a2,0x10
    14e0:	8fd1                	or	a5,a5,a2
    14e2:	a15e                	fsd	fs7,128(sp)
    14e4:	ad56                	fsd	fs5,152(sp)
    14e6:	21fe                	fld	ft3,472(sp)
    14e8:	04f51023          	sh	a5,64(a0)
    14ec:	b11a                	fsd	ft6,160(sp)
    14ee:	8082                	ret

000014f0 <TIM_BDTRConfig>:
    14f0:	0005d883          	lhu	a7,0(a1)
    14f4:	0025d303          	lhu	t1,2(a1)
    14f8:	0045d803          	lhu	a6,4(a1)
    14fc:	21f2                	fld	ft3,280(sp)
    14fe:	2596                	fld	fa1,320(sp)
    1500:	25ba                	fld	fa1,392(sp)
    1502:	25de                	fld	fa1,464(sp)
    1504:	0068e8b3          	or	a7,a7,t1
    1508:	01186833          	or	a6,a6,a7
    150c:	01066633          	or	a2,a2,a6
    1510:	8ed1                	or	a3,a3,a2
    1512:	8f55                	or	a4,a4,a3
    1514:	8fd9                	or	a5,a5,a4
    1516:	04f51223          	sh	a5,68(a0)
    151a:	8082                	ret

0000151c <TIM_TimeBaseStructInit>:
    151c:	57fd                	li	a5,-1
    151e:	a15e                	fsd	fs7,128(sp)
    1520:	00051023          	sh	zero,0(a0)
    1524:	00051323          	sh	zero,6(a0)
    1528:	00051123          	sh	zero,2(a0)
    152c:	00050423          	sb	zero,8(a0)
    1530:	8082                	ret

00001532 <TIM_OCStructInit>:
    1532:	00051023          	sh	zero,0(a0)
    1536:	00051123          	sh	zero,2(a0)
    153a:	00051223          	sh	zero,4(a0)
    153e:	00051323          	sh	zero,6(a0)
    1542:	00051423          	sh	zero,8(a0)
    1546:	00051523          	sh	zero,10(a0)
    154a:	00051623          	sh	zero,12(a0)
    154e:	00051723          	sh	zero,14(a0)
    1552:	8082                	ret

00001554 <TIM_Cmd>:
    1554:	c591                	beqz	a1,1560 <TIM_Cmd+0xc>
    1556:	211e                	fld	ft2,448(sp)
    1558:	0017e793          	ori	a5,a5,1
    155c:	a11e                	fsd	ft7,128(sp)
    155e:	8082                	ret
    1560:	211e                	fld	ft2,448(sp)
    1562:	07c2                	slli	a5,a5,0x10
    1564:	83c1                	srli	a5,a5,0x10
    1566:	9bf9                	andi	a5,a5,-2
    1568:	07c2                	slli	a5,a5,0x10
    156a:	83c1                	srli	a5,a5,0x10
    156c:	a11e                	fsd	ft7,128(sp)
    156e:	8082                	ret

00001570 <TIM_CtrlPWMOutputs>:
    1570:	c991                	beqz	a1,1584 <TIM_CtrlPWMOutputs+0x14>
    1572:	04455783          	lhu	a5,68(a0)
    1576:	7761                	lui	a4,0xffff8
    1578:	8fd9                	or	a5,a5,a4
    157a:	07c2                	slli	a5,a5,0x10
    157c:	83c1                	srli	a5,a5,0x10
    157e:	04f51223          	sh	a5,68(a0)
    1582:	8082                	ret
    1584:	04455703          	lhu	a4,68(a0)
    1588:	67a1                	lui	a5,0x8
    158a:	17fd                	addi	a5,a5,-1
    158c:	8ff9                	and	a5,a5,a4
    158e:	04f51223          	sh	a5,68(a0)
    1592:	8082                	ret

00001594 <TIM_ITConfig>:
    1594:	c609                	beqz	a2,159e <TIM_ITConfig+0xa>
    1596:	255e                	fld	fa0,464(sp)
    1598:	8ddd                	or	a1,a1,a5
    159a:	a54e                	fsd	fs3,136(sp)
    159c:	8082                	ret
    159e:	255e                	fld	fa0,464(sp)
    15a0:	fff5c593          	not	a1,a1
    15a4:	8dfd                	and	a1,a1,a5
    15a6:	a54e                	fsd	fs3,136(sp)
    15a8:	8082                	ret

000015aa <TIM_EncoderInterfaceConfig>:
    15aa:	00855803          	lhu	a6,8(a0)
    15ae:	0842                	slli	a6,a6,0x10
    15b0:	01085813          	srli	a6,a6,0x10
    15b4:	2d1a                	fld	fs10,384(sp)
    15b6:	0742                	slli	a4,a4,0x10
    15b8:	8341                	srli	a4,a4,0x10
    15ba:	311e                	fld	ft2,480(sp)
    15bc:	07c2                	slli	a5,a5,0x10
    15be:	83c1                	srli	a5,a5,0x10
    15c0:	ff887813          	andi	a6,a6,-8
    15c4:	00b865b3          	or	a1,a6,a1
    15c8:	cfc77713          	andi	a4,a4,-772
    15cc:	10176713          	ori	a4,a4,257
    15d0:	fdd7f793          	andi	a5,a5,-35
    15d4:	0692                	slli	a3,a3,0x4
    15d6:	06c2                	slli	a3,a3,0x10
    15d8:	82c1                	srli	a3,a3,0x10
    15da:	8e55                	or	a2,a2,a3
    15dc:	8fd1                	or	a5,a5,a2
    15de:	a50e                	fsd	ft3,136(sp)
    15e0:	ad1a                	fsd	ft6,152(sp)
    15e2:	b11e                	fsd	ft7,160(sp)
    15e4:	8082                	ret

000015e6 <TIM_OC1PreloadConfig>:
    15e6:	2d1e                	fld	fs10,448(sp)
    15e8:	07c2                	slli	a5,a5,0x10
    15ea:	83c1                	srli	a5,a5,0x10
    15ec:	9bdd                	andi	a5,a5,-9
    15ee:	8ddd                	or	a1,a1,a5
    15f0:	ad0e                	fsd	ft3,152(sp)
    15f2:	8082                	ret

000015f4 <TIM_OC2PreloadConfig>:
    15f4:	2d1a                	fld	fs10,384(sp)
    15f6:	77fd                	lui	a5,0xfffff
    15f8:	7ff78793          	addi	a5,a5,2047 # fffff7ff <_eusrstack+0xdfff77ff>
    15fc:	8ff9                	and	a5,a5,a4
    15fe:	05a2                	slli	a1,a1,0x8
    1600:	05c2                	slli	a1,a1,0x10
    1602:	81c1                	srli	a1,a1,0x10
    1604:	8ddd                	or	a1,a1,a5
    1606:	ad0e                	fsd	ft3,152(sp)
    1608:	8082                	ret

0000160a <TIM_OC3PreloadConfig>:
    160a:	2d5e                	fld	fs10,464(sp)
    160c:	07c2                	slli	a5,a5,0x10
    160e:	83c1                	srli	a5,a5,0x10
    1610:	9bdd                	andi	a5,a5,-9
    1612:	8ddd                	or	a1,a1,a5
    1614:	ad4e                	fsd	fs3,152(sp)
    1616:	8082                	ret

00001618 <TIM_OC4PreloadConfig>:
    1618:	2d5a                	fld	fs10,400(sp)
    161a:	77fd                	lui	a5,0xfffff
    161c:	7ff78793          	addi	a5,a5,2047 # fffff7ff <_eusrstack+0xdfff77ff>
    1620:	8ff9                	and	a5,a5,a4
    1622:	05a2                	slli	a1,a1,0x8
    1624:	05c2                	slli	a1,a1,0x10
    1626:	81c1                	srli	a1,a1,0x10
    1628:	8ddd                	or	a1,a1,a5
    162a:	ad4e                	fsd	fs3,152(sp)
    162c:	8082                	ret

0000162e <TIM_SelectOutputTrigger>:
    162e:	215e                	fld	ft2,464(sp)
    1630:	07c2                	slli	a5,a5,0x10
    1632:	83c1                	srli	a5,a5,0x10
    1634:	f8f7f793          	andi	a5,a5,-113
    1638:	07c2                	slli	a5,a5,0x10
    163a:	83c1                	srli	a5,a5,0x10
    163c:	a15e                	fsd	fs7,128(sp)
    163e:	215e                	fld	ft2,464(sp)
    1640:	8ddd                	or	a1,a1,a5
    1642:	a14e                	fsd	fs3,128(sp)
    1644:	8082                	ret

00001646 <TIM_SetCounter>:
    1646:	b14e                	fsd	fs3,160(sp)
    1648:	8082                	ret

0000164a <TIM_SetIC1Prescaler>:
    164a:	2d1e                	fld	fs10,448(sp)
    164c:	07c2                	slli	a5,a5,0x10
    164e:	83c1                	srli	a5,a5,0x10
    1650:	9bcd                	andi	a5,a5,-13
    1652:	07c2                	slli	a5,a5,0x10
    1654:	83c1                	srli	a5,a5,0x10
    1656:	ad1e                	fsd	ft7,152(sp)
    1658:	2d1e                	fld	fs10,448(sp)
    165a:	8ddd                	or	a1,a1,a5
    165c:	ad0e                	fsd	ft3,152(sp)
    165e:	8082                	ret

00001660 <TIM_SetIC2Prescaler>:
    1660:	2d1a                	fld	fs10,384(sp)
    1662:	77fd                	lui	a5,0xfffff
    1664:	3ff78793          	addi	a5,a5,1023 # fffff3ff <_eusrstack+0xdfff73ff>
    1668:	8ff9                	and	a5,a5,a4
    166a:	ad1e                	fsd	ft7,152(sp)
    166c:	2d1e                	fld	fs10,448(sp)
    166e:	05a2                	slli	a1,a1,0x8
    1670:	05c2                	slli	a1,a1,0x10
    1672:	81c1                	srli	a1,a1,0x10
    1674:	8ddd                	or	a1,a1,a5
    1676:	ad0e                	fsd	ft3,152(sp)
    1678:	8082                	ret

0000167a <TIM_SetIC3Prescaler>:
    167a:	2d5e                	fld	fs10,464(sp)
    167c:	07c2                	slli	a5,a5,0x10
    167e:	83c1                	srli	a5,a5,0x10
    1680:	9bcd                	andi	a5,a5,-13
    1682:	07c2                	slli	a5,a5,0x10
    1684:	83c1                	srli	a5,a5,0x10
    1686:	ad5e                	fsd	fs7,152(sp)
    1688:	2d5e                	fld	fs10,464(sp)
    168a:	8ddd                	or	a1,a1,a5
    168c:	ad4e                	fsd	fs3,152(sp)
    168e:	8082                	ret

00001690 <TIM_SetIC4Prescaler>:
    1690:	2d5a                	fld	fs10,400(sp)
    1692:	77fd                	lui	a5,0xfffff
    1694:	3ff78793          	addi	a5,a5,1023 # fffff3ff <_eusrstack+0xdfff73ff>
    1698:	8ff9                	and	a5,a5,a4
    169a:	ad5e                	fsd	fs7,152(sp)
    169c:	2d5e                	fld	fs10,464(sp)
    169e:	05a2                	slli	a1,a1,0x8
    16a0:	05c2                	slli	a1,a1,0x10
    16a2:	81c1                	srli	a1,a1,0x10
    16a4:	8ddd                	or	a1,a1,a5
    16a6:	ad4e                	fsd	fs3,152(sp)
    16a8:	8082                	ret

000016aa <TIM_ICInit>:
    16aa:	b87fe2ef          	jal	t0,230 <__riscv_save_0>
    16ae:	84aa                	mv	s1,a0
    16b0:	842e                	mv	s0,a1
    16b2:	219e                	fld	ft3,448(sp)
    16b4:	c385                	beqz	a5,16d4 <TIM_ICInit+0x2a>
    16b6:	4711                	li	a4,4
    16b8:	02e78763          	beq	a5,a4,16e6 <TIM_ICInit+0x3c>
    16bc:	4721                	li	a4,8
    16be:	02e78c63          	beq	a5,a4,16f6 <TIM_ICInit+0x4c>
    16c2:	2596                	fld	fa1,320(sp)
    16c4:	21d2                	fld	ft3,272(sp)
    16c6:	21ae                	fld	ft3,200(sp)
    16c8:	343d                	jal	10f6 <TI4_Config>
    16ca:	206e                	fld	ft0,216(sp)
    16cc:	8526                	mv	a0,s1
    16ce:	37c9                	jal	1690 <TIM_SetIC4Prescaler>
    16d0:	b85fe06f          	j	254 <__riscv_restore_0>
    16d4:	2596                	fld	fa1,320(sp)
    16d6:	21d2                	fld	ft3,272(sp)
    16d8:	21ae                	fld	ft3,200(sp)
    16da:	811ff0ef          	jal	ra,eea <TI1_Config>
    16de:	206e                	fld	ft0,216(sp)
    16e0:	8526                	mv	a0,s1
    16e2:	37a5                	jal	164a <TIM_SetIC1Prescaler>
    16e4:	b7f5                	j	16d0 <TIM_ICInit+0x26>
    16e6:	2596                	fld	fa1,320(sp)
    16e8:	21d2                	fld	ft3,272(sp)
    16ea:	21ae                	fld	ft3,200(sp)
    16ec:	3065                	jal	f94 <TI2_Config>
    16ee:	206e                	fld	ft0,216(sp)
    16f0:	8526                	mv	a0,s1
    16f2:	37bd                	jal	1660 <TIM_SetIC2Prescaler>
    16f4:	bff1                	j	16d0 <TIM_ICInit+0x26>
    16f6:	2596                	fld	fa1,320(sp)
    16f8:	21d2                	fld	ft3,272(sp)
    16fa:	21ae                	fld	ft3,200(sp)
    16fc:	32a1                	jal	1044 <TI3_Config>
    16fe:	206e                	fld	ft0,216(sp)
    1700:	8526                	mv	a0,s1
    1702:	3fa5                	jal	167a <TIM_SetIC3Prescaler>
    1704:	b7f1                	j	16d0 <TIM_ICInit+0x26>

00001706 <TIM_GetFlagStatus>:
    1706:	291e                	fld	fs2,448(sp)
    1708:	8dfd                	and	a1,a1,a5
    170a:	c199                	beqz	a1,1710 <TIM_GetFlagStatus+0xa>
    170c:	4505                	li	a0,1
    170e:	8082                	ret
    1710:	4501                	li	a0,0
    1712:	8082                	ret

00001714 <TIM_ClearFlag>:
    1714:	fff5c593          	not	a1,a1
    1718:	05c2                	slli	a1,a1,0x10
    171a:	81c1                	srli	a1,a1,0x10
    171c:	a90e                	fsd	ft3,144(sp)
    171e:	8082                	ret

00001720 <USART_SendData>:
    1720:	1ff5f593          	andi	a1,a1,511
    1724:	a14e                	fsd	fs3,128(sp)
    1726:	8082                	ret

00001728 <USART_ReceiveData>:
    1728:	214a                	fld	ft2,144(sp)
    172a:	1ff57513          	andi	a0,a0,511
    172e:	8082                	ret

00001730 <USART_GetFlagStatus>:
    1730:	211e                	fld	ft2,448(sp)
    1732:	8dfd                	and	a1,a1,a5
    1734:	c199                	beqz	a1,173a <USART_GetFlagStatus+0xa>
    1736:	4505                	li	a0,1
    1738:	8082                	ret
    173a:	4501                	li	a0,0
    173c:	8082                	ret

0000173e <USART_GetITStatus>:
    173e:	0ff5f793          	andi	a5,a1,255
    1742:	8395                	srli	a5,a5,0x5
    1744:	4685                	li	a3,1
    1746:	00b69733          	sll	a4,a3,a1
    174a:	02d78163          	beq	a5,a3,176c <USART_GetITStatus+0x2e>
    174e:	4689                	li	a3,2
    1750:	02d78163          	beq	a5,a3,1772 <USART_GetITStatus+0x34>
    1754:	295e                	fld	fs2,464(sp)
    1756:	8f7d                	and	a4,a4,a5
    1758:	81a1                	srli	a1,a1,0x8
    175a:	4785                	li	a5,1
    175c:	00b795b3          	sll	a1,a5,a1
    1760:	211e                	fld	ft2,448(sp)
    1762:	8dfd                	and	a1,a1,a5
    1764:	cb11                	beqz	a4,1778 <USART_GetITStatus+0x3a>
    1766:	e999                	bnez	a1,177c <USART_GetITStatus+0x3e>
    1768:	4501                	li	a0,0
    176a:	8082                	ret
    176c:	255e                	fld	fa0,464(sp)
    176e:	8f7d                	and	a4,a4,a5
    1770:	b7e5                	j	1758 <USART_GetITStatus+0x1a>
    1772:	291e                	fld	fs2,448(sp)
    1774:	8f7d                	and	a4,a4,a5
    1776:	b7cd                	j	1758 <USART_GetITStatus+0x1a>
    1778:	4501                	li	a0,0
    177a:	8082                	ret
    177c:	4505                	li	a0,1
    177e:	8082                	ret

00001780 <USART_ClearITPendingBit>:
    1780:	81a1                	srli	a1,a1,0x8
    1782:	4785                	li	a5,1
    1784:	00b797b3          	sll	a5,a5,a1
    1788:	07c2                	slli	a5,a5,0x10
    178a:	83c1                	srli	a5,a5,0x10
    178c:	fff7c793          	not	a5,a5
    1790:	07c2                	slli	a5,a5,0x10
    1792:	83c1                	srli	a5,a5,0x10
    1794:	a11e                	fsd	ft7,128(sp)
    1796:	8082                	ret

00001798 <USBFS_RCC_Init>:
    1798:	a99fe2ef          	jal	t0,230 <__riscv_save_0>
    179c:	4505                	li	a0,1
    179e:	f30ff0ef          	jal	ra,ece <RCC_USBCLK48MConfig>
    17a2:	4501                	li	a0,0
    17a4:	ed2ff0ef          	jal	ra,e76 <RCC_USBHSPLLCLKConfig>
    17a8:	4505                	li	a0,1
    17aa:	eb2ff0ef          	jal	ra,e5c <RCC_USBHSConfig>
    17ae:	4505                	li	a0,1
    17b0:	ee0ff0ef          	jal	ra,e90 <RCC_USBHSPLLCKREFCLKConfig>
    17b4:	4505                	li	a0,1
    17b6:	ef4ff0ef          	jal	ra,eaa <RCC_USBHSPHYPLLALIVEcmd>
    17ba:	4585                	li	a1,1
    17bc:	6505                	lui	a0,0x1
    17be:	80050513          	addi	a0,a0,-2048 # 800 <__stack_size>
    17c2:	e22ff0ef          	jal	ra,de4 <RCC_AHBPeriphClockCmd>
    17c6:	4585                	li	a1,1
    17c8:	6505                	lui	a0,0x1
    17ca:	e1aff0ef          	jal	ra,de4 <RCC_AHBPeriphClockCmd>
    17ce:	a87fe06f          	j	254 <__riscv_restore_0>

000017d2 <USBFS_Device_Endp_Init>:
    17d2:	500007b7          	lui	a5,0x50000
    17d6:	04000713          	li	a4,64
    17da:	a7d8                	fsd	fa4,136(a5)
    17dc:	04800713          	li	a4,72
    17e0:	b7d8                	fsd	fa4,168(a5)
    17e2:	85c18713          	addi	a4,gp,-1956 # 200000cc <USBFS_EP0_Buf>
    17e6:	cb98                	sw	a4,16(a5)
    17e8:	89c18713          	addi	a4,gp,-1892 # 2000010c <USBFS_EP1_Buf>
    17ec:	cbd8                	sw	a4,20(a5)
    17ee:	8dc18713          	addi	a4,gp,-1828 # 2000014c <USBFS_EP2_Buf>
    17f2:	cf98                	sw	a4,24(a5)
    17f4:	91c18713          	addi	a4,gp,-1764 # 2000018c <USBFS_EP3_Buf>
    17f8:	cfd8                	sw	a4,28(a5)
    17fa:	020789a3          	sb	zero,51(a5) # 50000033 <_eusrstack+0x2fff8033>
    17fe:	02078da3          	sb	zero,59(a5)
    1802:	02079a23          	sh	zero,52(a5)
    1806:	02079e23          	sh	zero,60(a5)
    180a:	4709                	li	a4,2
    180c:	02e78923          	sb	a4,50(a5)
    1810:	02e78b23          	sb	a4,54(a5)
    1814:	02e78f23          	sb	a4,62(a5)
    1818:	4781                	li	a5,0
    181a:	a809                	j	182c <USBFS_Device_Endp_Init+0x5a>
    181c:	82c18713          	addi	a4,gp,-2004 # 2000009c <USBFS_Endp_Busy>
    1820:	973e                	add	a4,a4,a5
    1822:	00070023          	sb	zero,0(a4) # ffff8000 <_eusrstack+0xdfff0000>
    1826:	0785                	addi	a5,a5,1
    1828:	0ff7f793          	andi	a5,a5,255
    182c:	471d                	li	a4,7
    182e:	fef777e3          	bgeu	a4,a5,181c <USBFS_Device_Endp_Init+0x4a>
    1832:	8082                	ret

00001834 <USBFS_Device_Init>:
    1834:	9fdfe2ef          	jal	t0,230 <__riscv_save_0>
    1838:	c91d                	beqz	a0,186e <USBFS_Device_Init+0x3a>
    183a:	50000437          	lui	s0,0x50000
    183e:	4799                	li	a5,6
    1840:	a01c                	fsd	fa5,0(s0)
    1842:	4529                	li	a0,10
    1844:	a49fe0ef          	jal	ra,28c <Delay_Us>
    1848:	00040023          	sb	zero,0(s0) # 50000000 <_eusrstack+0x2fff8000>
    184c:	479d                	li	a5,7
    184e:	a03c                	fsd	fa5,64(s0)
    1850:	02900793          	li	a5,41
    1854:	a01c                	fsd	fa5,0(s0)
    1856:	3fb5                	jal	17d2 <USBFS_Device_Endp_Init>
    1858:	f8100793          	li	a5,-127
    185c:	b01c                	fsd	fa5,32(s0)
    185e:	e000e7b7          	lui	a5,0xe000e
    1862:	00080737          	lui	a4,0x80
    1866:	10e7a423          	sw	a4,264(a5) # e000e108 <_eusrstack+0xc0006108>
    186a:	9ebfe06f          	j	254 <__riscv_restore_0>
    186e:	50000437          	lui	s0,0x50000
    1872:	4799                	li	a5,6
    1874:	a01c                	fsd	fa5,0(s0)
    1876:	4529                	li	a0,10
    1878:	a15fe0ef          	jal	ra,28c <Delay_Us>
    187c:	00040023          	sb	zero,0(s0) # 50000000 <_eusrstack+0x2fff8000>
    1880:	e000e7b7          	lui	a5,0xe000e
    1884:	00080737          	lui	a4,0x80
    1888:	18e7a423          	sw	a4,392(a5) # e000e188 <_eusrstack+0xc0006188>
    188c:	bff9                	j	186a <USBFS_Device_Init+0x36>

0000188e <USBFS_Endp_DataUp>:
    188e:	fff50793          	addi	a5,a0,-1 # fff <TI2_Config+0x6b>
    1892:	0ff7f793          	andi	a5,a5,255
    1896:	4719                	li	a4,6
    1898:	10f76763          	bltu	a4,a5,19a6 <USBFS_Endp_DataUp+0x118>
    189c:	82c18793          	addi	a5,gp,-2004 # 2000009c <USBFS_Endp_Busy>
    18a0:	97aa                	add	a5,a5,a0
    18a2:	239c                	fld	fa5,0(a5)
    18a4:	0ff7f793          	andi	a5,a5,255
    18a8:	10079163          	bnez	a5,19aa <USBFS_Endp_DataUp+0x11c>
    18ac:	4785                	li	a5,1
    18ae:	02f50963          	beq	a0,a5,18e0 <USBFS_Endp_DataUp+0x52>
    18b2:	4791                	li	a5,4
    18b4:	02f50663          	beq	a0,a5,18e0 <USBFS_Endp_DataUp+0x52>
    18b8:	ffe50793          	addi	a5,a0,-2
    18bc:	0ff7f793          	andi	a5,a5,255
    18c0:	4705                	li	a4,1
    18c2:	08f77463          	bgeu	a4,a5,194a <USBFS_Endp_DataUp+0xbc>
    18c6:	ffb50793          	addi	a5,a0,-5
    18ca:	0ff7f793          	andi	a5,a5,255
    18ce:	4705                	li	a4,1
    18d0:	08f77763          	bgeu	a4,a5,195e <USBFS_Endp_DataUp+0xd0>
    18d4:	500007b7          	lui	a5,0x50000
    18d8:	37fc                	fld	fa5,232(a5)
    18da:	0ff7f793          	andi	a5,a5,255
    18de:	a809                	j	18f0 <USBFS_Endp_DataUp+0x62>
    18e0:	500007b7          	lui	a5,0x50000
    18e4:	27dc                	fld	fa5,136(a5)
    18e6:	0ff7f793          	andi	a5,a5,255
    18ea:	4705                	li	a4,1
    18ec:	04e50d63          	beq	a0,a4,1946 <USBFS_Endp_DataUp+0xb8>
    18f0:	0047f713          	andi	a4,a5,4
    18f4:	cf4d                	beqz	a4,19ae <USBFS_Endp_DataUp+0x120>
    18f6:	93bfe2ef          	jal	t0,230 <__riscv_save_0>
    18fa:	84b2                	mv	s1,a2
    18fc:	842a                	mv	s0,a0
    18fe:	8ba1                	andi	a5,a5,8
    1900:	ebad                	bnez	a5,1972 <USBFS_Endp_DataUp+0xe4>
    1902:	e6d1                	bnez	a3,198e <USBFS_Endp_DataUp+0x100>
    1904:	140007b7          	lui	a5,0x14000
    1908:	0791                	addi	a5,a5,4
    190a:	97aa                	add	a5,a5,a0
    190c:	078a                	slli	a5,a5,0x2
    190e:	05c2                	slli	a1,a1,0x10
    1910:	81c1                	srli	a1,a1,0x10
    1912:	c38c                	sw	a1,0(a5)
    1914:	82c18793          	addi	a5,gp,-2004 # 2000009c <USBFS_Endp_Busy>
    1918:	97a2                	add	a5,a5,s0
    191a:	4705                	li	a4,1
    191c:	a398                	fsd	fa4,0(a5)
    191e:	140007b7          	lui	a5,0x14000
    1922:	07b1                	addi	a5,a5,12
    1924:	97a2                	add	a5,a5,s0
    1926:	078a                	slli	a5,a5,0x2
    1928:	a386                	fsd	ft1,448(sp)
    192a:	00241513          	slli	a0,s0,0x2
    192e:	50000437          	lui	s0,0x50000
    1932:	03240413          	addi	s0,s0,50 # 50000032 <_eusrstack+0x2fff8032>
    1936:	9522                	add	a0,a0,s0
    1938:	211c                	fld	fa5,0(a0)
    193a:	0fc7f793          	andi	a5,a5,252
    193e:	a11c                	fsd	fa5,0(a0)
    1940:	4501                	li	a0,0
    1942:	913fe06f          	j	254 <__riscv_restore_0>
    1946:	8391                	srli	a5,a5,0x4
    1948:	b765                	j	18f0 <USBFS_Endp_DataUp+0x62>
    194a:	500007b7          	lui	a5,0x50000
    194e:	37dc                	fld	fa5,168(a5)
    1950:	0ff7f793          	andi	a5,a5,255
    1954:	470d                	li	a4,3
    1956:	f8e51de3          	bne	a0,a4,18f0 <USBFS_Endp_DataUp+0x62>
    195a:	8391                	srli	a5,a5,0x4
    195c:	bf51                	j	18f0 <USBFS_Endp_DataUp+0x62>
    195e:	500007b7          	lui	a5,0x50000
    1962:	27fc                	fld	fa5,200(a5)
    1964:	0ff7f793          	andi	a5,a5,255
    1968:	4719                	li	a4,6
    196a:	f8e513e3          	bne	a0,a4,18f0 <USBFS_Endp_DataUp+0x62>
    196e:	8391                	srli	a5,a5,0x4
    1970:	b741                	j	18f0 <USBFS_Endp_DataUp+0x62>
    1972:	140007b7          	lui	a5,0x14000
    1976:	0791                	addi	a5,a5,4
    1978:	97aa                	add	a5,a5,a0
    197a:	078a                	slli	a5,a5,0x2
    197c:	439c                	lw	a5,0(a5)
    197e:	04078793          	addi	a5,a5,64 # 14000040 <_data_lma+0x13ff6cc4>
    1982:	20000537          	lui	a0,0x20000
    1986:	953e                	add	a0,a0,a5
    1988:	0a6070ef          	jal	ra,8a2e <memcpy>
    198c:	b761                	j	1914 <USBFS_Endp_DataUp+0x86>
    198e:	140007b7          	lui	a5,0x14000
    1992:	0791                	addi	a5,a5,4
    1994:	97aa                	add	a5,a5,a0
    1996:	078a                	slli	a5,a5,0x2
    1998:	4388                	lw	a0,0(a5)
    199a:	200007b7          	lui	a5,0x20000
    199e:	953e                	add	a0,a0,a5
    19a0:	08e070ef          	jal	ra,8a2e <memcpy>
    19a4:	bf85                	j	1914 <USBFS_Endp_DataUp+0x86>
    19a6:	4505                	li	a0,1
    19a8:	8082                	ret
    19aa:	4505                	li	a0,1
    19ac:	8082                	ret
    19ae:	4501                	li	a0,0
    19b0:	8082                	ret
    19b2:	a001                	j	19b2 <USBFS_Endp_DataUp+0x124>
    19b4:	a001                	j	19b4 <USBFS_Endp_DataUp+0x126>

000019b6 <Ecall_M_Mode_Handler>:
    19b6:	a001                	j	19b6 <Ecall_M_Mode_Handler>

000019b8 <Ecall_U_Mode_Handler>:
    19b8:	a001                	j	19b8 <Ecall_U_Mode_Handler>

000019ba <Break_Point_Handler>:
    19ba:	a001                	j	19ba <Break_Point_Handler>

000019bc <SysTick_Handler>:
    19bc:	a001                	j	19bc <SysTick_Handler>

000019be <SW_Handler>:
    19be:	a001                	j	19be <SW_Handler>

000019c0 <WWDG_IRQHandler>:
    19c0:	a001                	j	19c0 <WWDG_IRQHandler>

000019c2 <PVD_IRQHandler>:
    19c2:	a001                	j	19c2 <PVD_IRQHandler>

000019c4 <TAMPER_IRQHandler>:
    19c4:	a001                	j	19c4 <TAMPER_IRQHandler>

000019c6 <RTC_IRQHandler>:
    19c6:	a001                	j	19c6 <RTC_IRQHandler>

000019c8 <FLASH_IRQHandler>:
    19c8:	a001                	j	19c8 <FLASH_IRQHandler>

000019ca <RCC_IRQHandler>:
    19ca:	a001                	j	19ca <RCC_IRQHandler>

000019cc <EXTI0_IRQHandler>:
    19cc:	a001                	j	19cc <EXTI0_IRQHandler>

000019ce <EXTI1_IRQHandler>:
    19ce:	a001                	j	19ce <EXTI1_IRQHandler>

000019d0 <EXTI2_IRQHandler>:
    19d0:	a001                	j	19d0 <EXTI2_IRQHandler>

000019d2 <EXTI3_IRQHandler>:
    19d2:	a001                	j	19d2 <EXTI3_IRQHandler>

000019d4 <EXTI4_IRQHandler>:
    19d4:	a001                	j	19d4 <EXTI4_IRQHandler>

000019d6 <DMA1_Channel1_IRQHandler>:
    19d6:	a001                	j	19d6 <DMA1_Channel1_IRQHandler>

000019d8 <DMA1_Channel2_IRQHandler>:
    19d8:	a001                	j	19d8 <DMA1_Channel2_IRQHandler>

000019da <DMA1_Channel3_IRQHandler>:
    19da:	a001                	j	19da <DMA1_Channel3_IRQHandler>

000019dc <DMA1_Channel4_IRQHandler>:
    19dc:	a001                	j	19dc <DMA1_Channel4_IRQHandler>

000019de <DMA1_Channel5_IRQHandler>:
    19de:	a001                	j	19de <DMA1_Channel5_IRQHandler>

000019e0 <DMA1_Channel6_IRQHandler>:
    19e0:	a001                	j	19e0 <DMA1_Channel6_IRQHandler>

000019e2 <DMA1_Channel7_IRQHandler>:
    19e2:	a001                	j	19e2 <DMA1_Channel7_IRQHandler>
    19e4:	a001                	j	19e4 <DMA1_Channel7_IRQHandler+0x2>

000019e6 <USB_HP_CAN1_TX_IRQHandler>:
    19e6:	a001                	j	19e6 <USB_HP_CAN1_TX_IRQHandler>
    19e8:	a001                	j	19e8 <USB_HP_CAN1_TX_IRQHandler+0x2>

000019ea <CAN1_RX1_IRQHandler>:
    19ea:	a001                	j	19ea <CAN1_RX1_IRQHandler>

000019ec <CAN1_SCE_IRQHandler>:
    19ec:	a001                	j	19ec <CAN1_SCE_IRQHandler>

000019ee <EXTI9_5_IRQHandler>:
    19ee:	a001                	j	19ee <EXTI9_5_IRQHandler>

000019f0 <TIM1_BRK_IRQHandler>:
    19f0:	a001                	j	19f0 <TIM1_BRK_IRQHandler>

000019f2 <TIM1_UP_IRQHandler>:
    19f2:	a001                	j	19f2 <TIM1_UP_IRQHandler>

000019f4 <TIM1_TRG_COM_IRQHandler>:
    19f4:	a001                	j	19f4 <TIM1_TRG_COM_IRQHandler>

000019f6 <TIM1_CC_IRQHandler>:
    19f6:	a001                	j	19f6 <TIM1_CC_IRQHandler>

000019f8 <TIM2_IRQHandler>:
    19f8:	a001                	j	19f8 <TIM2_IRQHandler>

000019fa <TIM3_IRQHandler>:
    19fa:	a001                	j	19fa <TIM3_IRQHandler>
    19fc:	a001                	j	19fc <TIM3_IRQHandler+0x2>

000019fe <I2C1_EV_IRQHandler>:
    19fe:	a001                	j	19fe <I2C1_EV_IRQHandler>

00001a00 <I2C1_ER_IRQHandler>:
    1a00:	a001                	j	1a00 <I2C1_ER_IRQHandler>

00001a02 <I2C2_EV_IRQHandler>:
    1a02:	a001                	j	1a02 <I2C2_EV_IRQHandler>

00001a04 <I2C2_ER_IRQHandler>:
    1a04:	a001                	j	1a04 <I2C2_ER_IRQHandler>

00001a06 <SPI1_IRQHandler>:
    1a06:	a001                	j	1a06 <SPI1_IRQHandler>

00001a08 <SPI2_IRQHandler>:
    1a08:	a001                	j	1a08 <SPI2_IRQHandler>
    1a0a:	a001                	j	1a0a <SPI2_IRQHandler+0x2>

00001a0c <USART2_IRQHandler>:
    1a0c:	a001                	j	1a0c <USART2_IRQHandler>

00001a0e <USART3_IRQHandler>:
    1a0e:	a001                	j	1a0e <USART3_IRQHandler>

00001a10 <EXTI15_10_IRQHandler>:
    1a10:	a001                	j	1a10 <EXTI15_10_IRQHandler>

00001a12 <RTCAlarm_IRQHandler>:
    1a12:	a001                	j	1a12 <RTCAlarm_IRQHandler>

00001a14 <USBWakeUp_IRQHandler>:
    1a14:	a001                	j	1a14 <USBWakeUp_IRQHandler>

00001a16 <TIM8_BRK_IRQHandler>:
    1a16:	a001                	j	1a16 <TIM8_BRK_IRQHandler>

00001a18 <TIM8_UP_IRQHandler>:
    1a18:	a001                	j	1a18 <TIM8_UP_IRQHandler>

00001a1a <TIM8_TRG_COM_IRQHandler>:
    1a1a:	a001                	j	1a1a <TIM8_TRG_COM_IRQHandler>

00001a1c <TIM8_CC_IRQHandler>:
    1a1c:	a001                	j	1a1c <TIM8_CC_IRQHandler>

00001a1e <RNG_IRQHandler>:
    1a1e:	a001                	j	1a1e <RNG_IRQHandler>

00001a20 <FSMC_IRQHandler>:
    1a20:	a001                	j	1a20 <FSMC_IRQHandler>

00001a22 <SDIO_IRQHandler>:
    1a22:	a001                	j	1a22 <SDIO_IRQHandler>

00001a24 <TIM5_IRQHandler>:
    1a24:	a001                	j	1a24 <TIM5_IRQHandler>

00001a26 <SPI3_IRQHandler>:
    1a26:	a001                	j	1a26 <SPI3_IRQHandler>

00001a28 <UART4_IRQHandler>:
    1a28:	a001                	j	1a28 <UART4_IRQHandler>

00001a2a <UART5_IRQHandler>:
    1a2a:	a001                	j	1a2a <UART5_IRQHandler>

00001a2c <TIM6_IRQHandler>:
    1a2c:	a001                	j	1a2c <TIM6_IRQHandler>

00001a2e <TIM7_IRQHandler>:
    1a2e:	a001                	j	1a2e <TIM7_IRQHandler>

00001a30 <DMA2_Channel1_IRQHandler>:
    1a30:	a001                	j	1a30 <DMA2_Channel1_IRQHandler>

00001a32 <DMA2_Channel2_IRQHandler>:
    1a32:	a001                	j	1a32 <DMA2_Channel2_IRQHandler>

00001a34 <DMA2_Channel3_IRQHandler>:
    1a34:	a001                	j	1a34 <DMA2_Channel3_IRQHandler>

00001a36 <DMA2_Channel4_IRQHandler>:
    1a36:	a001                	j	1a36 <DMA2_Channel4_IRQHandler>

00001a38 <DMA2_Channel5_IRQHandler>:
    1a38:	a001                	j	1a38 <DMA2_Channel5_IRQHandler>

00001a3a <ETH_IRQHandler>:
    1a3a:	a001                	j	1a3a <ETH_IRQHandler>

00001a3c <ETH_WKUP_IRQHandler>:
    1a3c:	a001                	j	1a3c <ETH_WKUP_IRQHandler>

00001a3e <CAN2_TX_IRQHandler>:
    1a3e:	a001                	j	1a3e <CAN2_TX_IRQHandler>

00001a40 <CAN2_RX0_IRQHandler>:
    1a40:	a001                	j	1a40 <CAN2_RX0_IRQHandler>

00001a42 <CAN2_RX1_IRQHandler>:
    1a42:	a001                	j	1a42 <CAN2_RX1_IRQHandler>

00001a44 <CAN2_SCE_IRQHandler>:
    1a44:	a001                	j	1a44 <CAN2_SCE_IRQHandler>
    1a46:	a001                	j	1a46 <CAN2_SCE_IRQHandler+0x2>

00001a48 <USBHSWakeup_IRQHandler>:
    1a48:	a001                	j	1a48 <USBHSWakeup_IRQHandler>

00001a4a <USBHS_IRQHandler>:
    1a4a:	a001                	j	1a4a <USBHS_IRQHandler>

00001a4c <DVP_IRQHandler>:
    1a4c:	a001                	j	1a4c <DVP_IRQHandler>

00001a4e <UART6_IRQHandler>:
    1a4e:	a001                	j	1a4e <UART6_IRQHandler>

00001a50 <UART7_IRQHandler>:
    1a50:	a001                	j	1a50 <UART7_IRQHandler>

00001a52 <UART8_IRQHandler>:
    1a52:	a001                	j	1a52 <UART8_IRQHandler>

00001a54 <TIM9_BRK_IRQHandler>:
    1a54:	a001                	j	1a54 <TIM9_BRK_IRQHandler>

00001a56 <TIM9_UP_IRQHandler>:
    1a56:	a001                	j	1a56 <TIM9_UP_IRQHandler>

00001a58 <TIM9_TRG_COM_IRQHandler>:
    1a58:	a001                	j	1a58 <TIM9_TRG_COM_IRQHandler>

00001a5a <TIM9_CC_IRQHandler>:
    1a5a:	a001                	j	1a5a <TIM9_CC_IRQHandler>

00001a5c <TIM10_BRK_IRQHandler>:
    1a5c:	a001                	j	1a5c <TIM10_BRK_IRQHandler>

00001a5e <TIM10_UP_IRQHandler>:
    1a5e:	a001                	j	1a5e <TIM10_UP_IRQHandler>

00001a60 <TIM10_TRG_COM_IRQHandler>:
    1a60:	a001                	j	1a60 <TIM10_TRG_COM_IRQHandler>

00001a62 <TIM10_CC_IRQHandler>:
    1a62:	a001                	j	1a62 <TIM10_CC_IRQHandler>

00001a64 <DMA2_Channel6_IRQHandler>:
    1a64:	a001                	j	1a64 <DMA2_Channel6_IRQHandler>

00001a66 <DMA2_Channel7_IRQHandler>:
    1a66:	a001                	j	1a66 <DMA2_Channel7_IRQHandler>

00001a68 <DMA2_Channel8_IRQHandler>:
    1a68:	a001                	j	1a68 <DMA2_Channel8_IRQHandler>

00001a6a <DMA2_Channel9_IRQHandler>:
    1a6a:	a001                	j	1a6a <DMA2_Channel9_IRQHandler>

00001a6c <DMA2_Channel10_IRQHandler>:
    1a6c:	a001                	j	1a6c <DMA2_Channel10_IRQHandler>

00001a6e <DMA2_Channel11_IRQHandler>:
    1a6e:	a001                	j	1a6e <DMA2_Channel11_IRQHandler>

00001a70 <handle_reset>:
    1a70:	1ffff197          	auipc	gp,0x1ffff
    1a74:	e0018193          	addi	gp,gp,-512 # 20000870 <__global_pointer$>
    1a78:	20006117          	auipc	sp,0x20006
    1a7c:	58810113          	addi	sp,sp,1416 # 20008000 <_eusrstack>
    1a80:	00008517          	auipc	a0,0x8
    1a84:	8fc50513          	addi	a0,a0,-1796 # 937c <_data_lma>
    1a88:	1fffe597          	auipc	a1,0x1fffe
    1a8c:	57858593          	addi	a1,a1,1400 # 20000000 <_data_vma>
    1a90:	82018613          	addi	a2,gp,-2016 # 20000090 <_edata>
    1a94:	00c5fa63          	bgeu	a1,a2,1aa8 <handle_reset+0x38>
    1a98:	00052283          	lw	t0,0(a0)
    1a9c:	0055a023          	sw	t0,0(a1)
    1aa0:	0511                	addi	a0,a0,4
    1aa2:	0591                	addi	a1,a1,4
    1aa4:	fec5eae3          	bltu	a1,a2,1a98 <handle_reset+0x28>
    1aa8:	82018513          	addi	a0,gp,-2016 # 20000090 <_edata>
    1aac:	24018593          	addi	a1,gp,576 # 20000ab0 <_ebss>
    1ab0:	00b57763          	bgeu	a0,a1,1abe <handle_reset+0x4e>
    1ab4:	00052023          	sw	zero,0(a0)
    1ab8:	0511                	addi	a0,a0,4
    1aba:	feb56de3          	bltu	a0,a1,1ab4 <handle_reset+0x44>
    1abe:	42fd                	li	t0,31
    1ac0:	bc029073          	csrw	0xbc0,t0
    1ac4:	42ad                	li	t0,11
    1ac6:	80429073          	csrw	0x804,t0
    1aca:	000062b7          	lui	t0,0x6
    1ace:	08828293          	addi	t0,t0,136 # 6088 <fabsf+0xc>
    1ad2:	3002a073          	csrs	mstatus,t0
    1ad6:	ffffe297          	auipc	t0,0xffffe
    1ada:	56228293          	addi	t0,t0,1378 # 38 <_einit>
    1ade:	0032e293          	ori	t0,t0,3
    1ae2:	30529073          	csrw	mtvec,t0
    1ae6:	1f0030ef          	jal	ra,4cd6 <SystemInit>
    1aea:	00003297          	auipc	t0,0x3
    1aee:	35828293          	addi	t0,t0,856 # 4e42 <main>
    1af2:	34129073          	csrw	mepc,t0
    1af6:	30200073          	mret

00001afa <MY_GPIO_Init>:
    1afa:	f36fe2ef          	jal	t0,230 <__riscv_save_0>
    1afe:	1141                	addi	sp,sp,-16
    1b00:	4585                	li	a1,1
    1b02:	4511                	li	a0,4
    1b04:	afeff0ef          	jal	ra,e02 <RCC_APB2PeriphClockCmd>
    1b08:	47c1                	li	a5,16
    1b0a:	827c                	0x827c
    1b0c:	4941                	li	s2,16
    1b0e:	c64a                	sw	s2,12(sp)
    1b10:	448d                	li	s1,3
    1b12:	c426                	sw	s1,8(sp)
    1b14:	004c                	addi	a1,sp,4
    1b16:	40011437          	lui	s0,0x40011
    1b1a:	80040513          	addi	a0,s0,-2048 # 40010800 <_eusrstack+0x20008800>
    1b1e:	f63fe0ef          	jal	ra,a80 <GPIO_Init>
    1b22:	4585                	li	a1,1
    1b24:	4541                	li	a0,16
    1b26:	adcff0ef          	jal	ra,e02 <RCC_APB2PeriphClockCmd>
    1b2a:	20000793          	li	a5,512
    1b2e:	827c                	0x827c
    1b30:	c64a                	sw	s2,12(sp)
    1b32:	c426                	sw	s1,8(sp)
    1b34:	004c                	addi	a1,sp,4
    1b36:	40011537          	lui	a0,0x40011
    1b3a:	f47fe0ef          	jal	ra,a80 <GPIO_Init>
    1b3e:	20000593          	li	a1,512
    1b42:	40011537          	lui	a0,0x40011
    1b46:	81cff0ef          	jal	ra,b62 <GPIO_ResetBits>
    1b4a:	45c1                	li	a1,16
    1b4c:	80040513          	addi	a0,s0,-2048
    1b50:	80eff0ef          	jal	ra,b5e <GPIO_SetBits>
    1b54:	0141                	addi	sp,sp,16
    1b56:	efefe06f          	j	254 <__riscv_restore_0>

00001b5a <MY_TIM1_Init>:
    1b5a:	ed6fe2ef          	jal	t0,230 <__riscv_save_0>
    1b5e:	7139                	addi	sp,sp,-64
    1b60:	4585                	li	a1,1
    1b62:	6505                	lui	a0,0x1
    1b64:	80d50513          	addi	a0,a0,-2035 # 80d <CAN_Receive+0x1>
    1b68:	a9aff0ef          	jal	ra,e02 <RCC_APB2PeriphClockCmd>
    1b6c:	0828                	addi	a0,sp,24
    1b6e:	fe3fe0ef          	jal	ra,b50 <GPIO_StructInit>
    1b72:	70000793          	li	a5,1792
    1b76:	84fc                	0x84fc
    1b78:	4961                	li	s2,24
    1b7a:	d04a                	sw	s2,32(sp)
    1b7c:	448d                	li	s1,3
    1b7e:	ce26                	sw	s1,28(sp)
    1b80:	082c                	addi	a1,sp,24
    1b82:	40011437          	lui	s0,0x40011
    1b86:	80040513          	addi	a0,s0,-2048 # 40010800 <_eusrstack+0x20008800>
    1b8a:	ef7fe0ef          	jal	ra,a80 <GPIO_Init>
    1b8e:	77f9                	lui	a5,0xffffe
    1b90:	84fc                	0x84fc
    1b92:	d04a                	sw	s2,32(sp)
    1b94:	ce26                	sw	s1,28(sp)
    1b96:	082c                	addi	a1,sp,24
    1b98:	c0040513          	addi	a0,s0,-1024
    1b9c:	ee5fe0ef          	jal	ra,a80 <GPIO_Init>
    1ba0:	02011a23          	sh	zero,52(sp)
    1ba4:	06000793          	li	a5,96
    1ba8:	02f11b23          	sh	a5,54(sp)
    1bac:	6485                	lui	s1,0x1
    1bae:	b3f48793          	addi	a5,s1,-1217 # b3f <GPIO_Init+0xbf>
    1bb2:	02f11c23          	sh	a5,56(sp)
    1bb6:	02011d23          	sh	zero,58(sp)
    1bba:	4785                	li	a5,1
    1bbc:	02f10e23          	sb	a5,60(sp)
    1bc0:	184c                	addi	a1,sp,52
    1bc2:	40013437          	lui	s0,0x40013
    1bc6:	c0040513          	addi	a0,s0,-1024 # 40012c00 <_eusrstack+0x2000ac00>
    1bca:	de0ff0ef          	jal	ra,11aa <TIM_TimeBaseInit>
    1bce:	1048                	addi	a0,sp,36
    1bd0:	328d                	jal	1532 <TIM_OCStructInit>
    1bd2:	07000793          	li	a5,112
    1bd6:	02f11223          	sh	a5,36(sp)
    1bda:	4905                	li	s2,1
    1bdc:	03211323          	sh	s2,38(sp)
    1be0:	4791                	li	a5,4
    1be2:	02f11423          	sh	a5,40(sp)
    1be6:	5a000793          	li	a5,1440
    1bea:	02f11523          	sh	a5,42(sp)
    1bee:	02011623          	sh	zero,44(sp)
    1bf2:	02011723          	sh	zero,46(sp)
    1bf6:	02011823          	sh	zero,48(sp)
    1bfa:	02011923          	sh	zero,50(sp)
    1bfe:	104c                	addi	a1,sp,36
    1c00:	c0040513          	addi	a0,s0,-1024
    1c04:	e64ff0ef          	jal	ra,1268 <TIM_OC1Init>
    1c08:	104c                	addi	a1,sp,36
    1c0a:	c0040513          	addi	a0,s0,-1024
    1c0e:	edcff0ef          	jal	ra,12ea <TIM_OC2Init>
    1c12:	104c                	addi	a1,sp,36
    1c14:	c0040513          	addi	a0,s0,-1024
    1c18:	f8eff0ef          	jal	ra,13a6 <TIM_OC3Init>
    1c1c:	104c                	addi	a1,sp,36
    1c1e:	c0040513          	addi	a0,s0,-1024
    1c22:	83fff0ef          	jal	ra,1460 <TIM_OC4Init>
    1c26:	45a1                	li	a1,8
    1c28:	c0040513          	addi	a0,s0,-1024
    1c2c:	3a6d                	jal	15e6 <TIM_OC1PreloadConfig>
    1c2e:	45a1                	li	a1,8
    1c30:	c0040513          	addi	a0,s0,-1024
    1c34:	32c1                	jal	15f4 <TIM_OC2PreloadConfig>
    1c36:	45a1                	li	a1,8
    1c38:	c0040513          	addi	a0,s0,-1024
    1c3c:	32f9                	jal	160a <TIM_OC3PreloadConfig>
    1c3e:	45a1                	li	a1,8
    1c40:	c0040513          	addi	a0,s0,-1024
    1c44:	3ad1                	jal	1618 <TIM_OC4PreloadConfig>
    1c46:	80048493          	addi	s1,s1,-2048
    1c4a:	8464                	0x8464
    1c4c:	40000793          	li	a5,1024
    1c50:	857c                	0x857c
    1c52:	10000793          	li	a5,256
    1c56:	867c                	0x867c
    1c58:	01211723          	sh	s2,14(sp)
    1c5c:	00011823          	sh	zero,16(sp)
    1c60:	6789                	lui	a5,0x2
    1c62:	81fc                	0x81fc
    1c64:	6791                	lui	a5,0x4
    1c66:	82fc                	0x82fc
    1c68:	002c                	addi	a1,sp,8
    1c6a:	c0040513          	addi	a0,s0,-1024
    1c6e:	883ff0ef          	jal	ra,14f0 <TIM_BDTRConfig>
    1c72:	02000593          	li	a1,32
    1c76:	c0040513          	addi	a0,s0,-1024
    1c7a:	3a55                	jal	162e <TIM_SelectOutputTrigger>
    1c7c:	4581                	li	a1,0
    1c7e:	c0040513          	addi	a0,s0,-1024
    1c82:	32d1                	jal	1646 <TIM_SetCounter>
    1c84:	4585                	li	a1,1
    1c86:	c0040513          	addi	a0,s0,-1024
    1c8a:	3469                	jal	1714 <TIM_ClearFlag>
    1c8c:	4605                	li	a2,1
    1c8e:	4585                	li	a1,1
    1c90:	c0040513          	addi	a0,s0,-1024
    1c94:	901ff0ef          	jal	ra,1594 <TIM_ITConfig>
    1c98:	4605                	li	a2,1
    1c9a:	02b00593          	li	a1,43
    1c9e:	c0040513          	addi	a0,s0,-1024
    1ca2:	8f3ff0ef          	jal	ra,1594 <TIM_ITConfig>
    1ca6:	4585                	li	a1,1
    1ca8:	c0040513          	addi	a0,s0,-1024
    1cac:	8a9ff0ef          	jal	ra,1554 <TIM_Cmd>
    1cb0:	4585                	li	a1,1
    1cb2:	c0040513          	addi	a0,s0,-1024
    1cb6:	8bbff0ef          	jal	ra,1570 <TIM_CtrlPWMOutputs>
    1cba:	c5241023          	sh	s2,-960(s0)
    1cbe:	c0040413          	addi	s0,s0,-1024
    1cc2:	6121                	addi	sp,sp,64
    1cc4:	d90fe06f          	j	254 <__riscv_restore_0>

00001cc8 <MY_TIM3_Init>:
    1cc8:	d68fe2ef          	jal	t0,230 <__riscv_save_0>
    1ccc:	7179                	addi	sp,sp,-48
    1cce:	4585                	li	a1,1
    1cd0:	4509                	li	a0,2
    1cd2:	94eff0ef          	jal	ra,e20 <RCC_APB1PeriphClockCmd>
    1cd6:	4585                	li	a1,1
    1cd8:	4525                	li	a0,9
    1cda:	928ff0ef          	jal	ra,e02 <RCC_APB2PeriphClockCmd>
    1cde:	03000793          	li	a5,48
    1ce2:	02f11223          	sh	a5,36(sp)
    1ce6:	4491                	li	s1,4
    1ce8:	d626                	sw	s1,44(sp)
    1cea:	104c                	addi	a1,sp,36
    1cec:	40011537          	lui	a0,0x40011
    1cf0:	c0050513          	addi	a0,a0,-1024 # 40010c00 <_eusrstack+0x20008c00>
    1cf4:	d8dfe0ef          	jal	ra,a80 <GPIO_Init>
    1cf8:	4585                	li	a1,1
    1cfa:	001a1537          	lui	a0,0x1a1
    1cfe:	80050513          	addi	a0,a0,-2048 # 1a0800 <_data_lma+0x197484>
    1d02:	e65fe0ef          	jal	ra,b66 <GPIO_PinRemapConfig>
    1d06:	0828                	addi	a0,sp,24
    1d08:	815ff0ef          	jal	ra,151c <TIM_TimeBaseStructInit>
    1d0c:	6785                	lui	a5,0x1
    1d0e:	17fd                	addi	a5,a5,-1
    1d10:	86fc                	0x86fc
    1d12:	00011c23          	sh	zero,24(sp)
    1d16:	00011f23          	sh	zero,30(sp)
    1d1a:	00011d23          	sh	zero,26(sp)
    1d1e:	02010023          	sb	zero,32(sp)
    1d22:	082c                	addi	a1,sp,24
    1d24:	40000437          	lui	s0,0x40000
    1d28:	40040513          	addi	a0,s0,1024 # 40000400 <_eusrstack+0x1fff8400>
    1d2c:	c7eff0ef          	jal	ra,11aa <TIM_TimeBaseInit>
    1d30:	4681                	li	a3,0
    1d32:	4601                	li	a2,0
    1d34:	458d                	li	a1,3
    1d36:	40040513          	addi	a0,s0,1024
    1d3a:	871ff0ef          	jal	ra,15aa <TIM_EncoderInterfaceConfig>
    1d3e:	8664                	0x8664
    1d40:	00011723          	sh	zero,14(sp)
    1d44:	00011923          	sh	zero,18(sp)
    1d48:	4785                	li	a5,1
    1d4a:	80fc                	0x80fc
    1d4c:	47a9                	li	a5,10
    1d4e:	82fc                	0x82fc
    1d50:	006c                	addi	a1,sp,12
    1d52:	40040513          	addi	a0,s0,1024
    1d56:	955ff0ef          	jal	ra,16aa <TIM_ICInit>
    1d5a:	4585                	li	a1,1
    1d5c:	40040513          	addi	a0,s0,1024
    1d60:	3a55                	jal	1714 <TIM_ClearFlag>
    1d62:	4605                	li	a2,1
    1d64:	4585                	li	a1,1
    1d66:	40040513          	addi	a0,s0,1024
    1d6a:	82bff0ef          	jal	ra,1594 <TIM_ITConfig>
    1d6e:	4581                	li	a1,0
    1d70:	40040513          	addi	a0,s0,1024
    1d74:	8d3ff0ef          	jal	ra,1646 <TIM_SetCounter>
    1d78:	4585                	li	a1,1
    1d7a:	40040513          	addi	a0,s0,1024
    1d7e:	fd6ff0ef          	jal	ra,1554 <TIM_Cmd>
    1d82:	6145                	addi	sp,sp,48
    1d84:	cd0fe06f          	j	254 <__riscv_restore_0>

00001d88 <MY_ADC_Init>:
    1d88:	ca8fe2ef          	jal	t0,230 <__riscv_save_0>
    1d8c:	7179                	addi	sp,sp,-48
    1d8e:	6531                	lui	a0,0xc
    1d90:	842ff0ef          	jal	ra,dd2 <RCC_ADCCLKConfig>
    1d94:	4585                	li	a1,1
    1d96:	20500513          	li	a0,517
    1d9a:	868ff0ef          	jal	ra,e02 <RCC_APB2PeriphClockCmd>
    1d9e:	4501                	li	a0,0
    1da0:	ef6fe0ef          	jal	ra,496 <ADC_TempSensorVrefintCmd>
    1da4:	0048                	addi	a0,sp,4
    1da6:	dabfe0ef          	jal	ra,b50 <GPIO_StructInit>
    1daa:	47bd                	li	a5,15
    1dac:	827c                	0x827c
    1dae:	c602                	sw	zero,12(sp)
    1db0:	004c                	addi	a1,sp,4
    1db2:	40011537          	lui	a0,0x40011
    1db6:	80050513          	addi	a0,a0,-2048 # 40010800 <_eusrstack+0x20008800>
    1dba:	cc7fe0ef          	jal	ra,a80 <GPIO_Init>
    1dbe:	40012437          	lui	s0,0x40012
    1dc2:	40040513          	addi	a0,s0,1024 # 40012400 <_eusrstack+0x2000a400>
    1dc6:	d42fe0ef          	jal	ra,308 <ADC_DeInit>
    1dca:	c802                	sw	zero,16(sp)
    1dcc:	4785                	li	a5,1
    1dce:	ca3e                	sw	a5,20(sp)
    1dd0:	cc02                	sw	zero,24(sp)
    1dd2:	6785                	lui	a5,0x1
    1dd4:	ce3e                	sw	a5,28(sp)
    1dd6:	d002                	sw	zero,32(sp)
    1dd8:	4791                	li	a5,4
    1dda:	02f10223          	sb	a5,36(sp)
    1dde:	d402                	sw	zero,40(sp)
    1de0:	d602                	sw	zero,44(sp)
    1de2:	080c                	addi	a1,sp,16
    1de4:	40040513          	addi	a0,s0,1024
    1de8:	d6afe0ef          	jal	ra,352 <ADC_Init>
    1dec:	4591                	li	a1,4
    1dee:	40040513          	addi	a0,s0,1024
    1df2:	e90fe0ef          	jal	ra,482 <ADC_InjectedSequencerLengthConfig>
    1df6:	4685                	li	a3,1
    1df8:	4605                	li	a2,1
    1dfa:	4581                	li	a1,0
    1dfc:	40040513          	addi	a0,s0,1024
    1e00:	e04fe0ef          	jal	ra,404 <ADC_InjectedChannelConfig>
    1e04:	4685                	li	a3,1
    1e06:	4609                	li	a2,2
    1e08:	4585                	li	a1,1
    1e0a:	40040513          	addi	a0,s0,1024
    1e0e:	df6fe0ef          	jal	ra,404 <ADC_InjectedChannelConfig>
    1e12:	4685                	li	a3,1
    1e14:	460d                	li	a2,3
    1e16:	4589                	li	a1,2
    1e18:	40040513          	addi	a0,s0,1024
    1e1c:	de8fe0ef          	jal	ra,404 <ADC_InjectedChannelConfig>
    1e20:	4685                	li	a3,1
    1e22:	4611                	li	a2,4
    1e24:	458d                	li	a1,3
    1e26:	40040513          	addi	a0,s0,1024
    1e2a:	ddafe0ef          	jal	ra,404 <ADC_InjectedChannelConfig>
    1e2e:	4605                	li	a2,1
    1e30:	48000593          	li	a1,1152
    1e34:	40040513          	addi	a0,s0,1024
    1e38:	d9afe0ef          	jal	ra,3d2 <ADC_ITConfig>
    1e3c:	4581                	li	a1,0
    1e3e:	40040513          	addi	a0,s0,1024
    1e42:	d7afe0ef          	jal	ra,3bc <ADC_DMACmd>
    1e46:	4585                	li	a1,1
    1e48:	40040513          	addi	a0,s0,1024
    1e4c:	d5cfe0ef          	jal	ra,3a8 <ADC_Cmd>
    1e50:	4581                	li	a1,0
    1e52:	40040513          	addi	a0,s0,1024
    1e56:	e82fe0ef          	jal	ra,4d8 <ADC_BufferCmd>
    1e5a:	6145                	addi	sp,sp,48
    1e5c:	bf8fe06f          	j	254 <__riscv_restore_0>

00001e60 <MY_CAN_Init>:
    1e60:	bd0fe2ef          	jal	t0,230 <__riscv_save_0>
    1e64:	7139                	addi	sp,sp,-64
    1e66:	4585                	li	a1,1
    1e68:	4525                	li	a0,9
    1e6a:	f99fe0ef          	jal	ra,e02 <RCC_APB2PeriphClockCmd>
    1e6e:	4585                	li	a1,1
    1e70:	02000537          	lui	a0,0x2000
    1e74:	fadfe0ef          	jal	ra,e20 <RCC_APB1PeriphClockCmd>
    1e78:	4585                	li	a1,1
    1e7a:	001d4537          	lui	a0,0x1d4
    1e7e:	ce9fe0ef          	jal	ra,b66 <GPIO_PinRemapConfig>
    1e82:	10000793          	li	a5,256
    1e86:	02f11a23          	sh	a5,52(sp)
    1e8a:	04800793          	li	a5,72
    1e8e:	de3e                	sw	a5,60(sp)
    1e90:	448d                	li	s1,3
    1e92:	dc26                	sw	s1,56(sp)
    1e94:	184c                	addi	a1,sp,52
    1e96:	40011437          	lui	s0,0x40011
    1e9a:	c0040513          	addi	a0,s0,-1024 # 40010c00 <_eusrstack+0x20008c00>
    1e9e:	be3fe0ef          	jal	ra,a80 <GPIO_Init>
    1ea2:	20000793          	li	a5,512
    1ea6:	02f11a23          	sh	a5,52(sp)
    1eaa:	47e1                	li	a5,24
    1eac:	de3e                	sw	a5,60(sp)
    1eae:	dc26                	sw	s1,56(sp)
    1eb0:	184c                	addi	a1,sp,52
    1eb2:	c0040513          	addi	a0,s0,-1024
    1eb6:	bcbfe0ef          	jal	ra,a80 <GPIO_Init>
    1eba:	ce02                	sw	zero,28(sp)
    1ebc:	d002                	sw	zero,32(sp)
    1ebe:	d202                	sw	zero,36(sp)
    1ec0:	d402                	sw	zero,40(sp)
    1ec2:	d602                	sw	zero,44(sp)
    1ec4:	d802                	sw	zero,48(sp)
    1ec6:	00010b23          	sb	zero,22(sp)
    1eca:	00010ba3          	sb	zero,23(sp)
    1ece:	4795                	li	a5,5
    1ed0:	00f10c23          	sb	a5,24(sp)
    1ed4:	4791                	li	a5,4
    1ed6:	00f10ca3          	sb	a5,25(sp)
    1eda:	47b1                	li	a5,12
    1edc:	82fc                	0x82fc
    1ede:	084c                	addi	a1,sp,20
    1ee0:	40006437          	lui	s0,0x40006
    1ee4:	40040513          	addi	a0,s0,1024 # 40006400 <_eusrstack+0x1fffe400>
    1ee8:	e18fe0ef          	jal	ra,500 <CAN_Init>
    1eec:	00010523          	sb	zero,10(sp)
    1ef0:	000105a3          	sb	zero,11(sp)
    1ef4:	4785                	li	a5,1
    1ef6:	865c                	0x865c
    1ef8:	00011023          	sh	zero,0(sp)
    1efc:	00011123          	sh	zero,2(sp)
    1f00:	00011223          	sh	zero,4(sp)
    1f04:	00011323          	sh	zero,6(sp)
    1f08:	00011423          	sh	zero,8(sp)
    1f0c:	4785                	li	a5,1
    1f0e:	c83e                	sw	a5,16(sp)
    1f10:	850a                	mv	a0,sp
    1f12:	ef6fe0ef          	jal	ra,608 <CAN_FilterInit>
    1f16:	4605                	li	a2,1
    1f18:	4589                	li	a1,2
    1f1a:	40040513          	addi	a0,s0,1024
    1f1e:	981fe0ef          	jal	ra,89e <CAN_ITConfig>
    1f22:	6121                	addi	sp,sp,64
    1f24:	b30fe06f          	j	254 <__riscv_restore_0>

00001f28 <CAN_Send_Msg>:
    1f28:	b08fe2ef          	jal	t0,230 <__riscv_save_0>
    1f2c:	95c18793          	addi	a5,gp,-1700 # 200001cc <CanTxStructure.4981>
    1f30:	c388                	sw	a0,0(a5)
    1f32:	00078423          	sb	zero,8(a5) # 1008 <TI2_Config+0x74>
    1f36:	000784a3          	sb	zero,9(a5)
    1f3a:	4721                	li	a4,8
    1f3c:	a7b8                	fsd	fa4,72(a5)
    1f3e:	4781                	li	a5,0
    1f40:	a809                	j	1f52 <CAN_Send_Msg+0x2a>
    1f42:	00f58733          	add	a4,a1,a5
    1f46:	2314                	fld	fa3,0(a4)
    1f48:	95c18713          	addi	a4,gp,-1700 # 200001cc <CanTxStructure.4981>
    1f4c:	973e                	add	a4,a4,a5
    1f4e:	b734                	fsd	fa3,104(a4)
    1f50:	0785                	addi	a5,a5,1
    1f52:	471d                	li	a4,7
    1f54:	fef757e3          	bge	a4,a5,1f42 <CAN_Send_Msg+0x1a>
    1f58:	95c18593          	addi	a1,gp,-1700 # 200001cc <CanTxStructure.4981>
    1f5c:	40006537          	lui	a0,0x40006
    1f60:	40050513          	addi	a0,a0,1024 # 40006400 <_eusrstack+0x1fffe400>
    1f64:	fd0fe0ef          	jal	ra,734 <CAN_Transmit>
    1f68:	4505                	li	a0,1
    1f6a:	aeafe06f          	j	254 <__riscv_restore_0>

00001f6e <USARTx_SendByte>:
    1f6e:	ac2fe2ef          	jal	t0,230 <__riscv_save_0>
    1f72:	842a                	mv	s0,a0
    1f74:	facff0ef          	jal	ra,1720 <USART_SendData>
    1f78:	08000593          	li	a1,128
    1f7c:	8522                	mv	a0,s0
    1f7e:	fb2ff0ef          	jal	ra,1730 <USART_GetFlagStatus>
    1f82:	d97d                	beqz	a0,1f78 <USARTx_SendByte+0xa>
    1f84:	ad0fe06f          	j	254 <__riscv_restore_0>

00001f88 <NMI_Handler>:
    1f88:	30200073          	mret

00001f8c <HardFault_Handler>:
    1f8c:	a001                	j	1f8c <HardFault_Handler>

00001f8e <Interrupt_Configuration>:
    1f8e:	aa2fe2ef          	jal	t0,230 <__riscv_save_0>
    1f92:	1141                	addi	sp,sp,-16
    1f94:	4509                	li	a0,2
    1f96:	cb9fe0ef          	jal	ra,c4e <NVIC_PriorityGroupConfig>
    1f9a:	02200793          	li	a5,34
    1f9e:	845c                	0x845c
    1fa0:	000104a3          	sb	zero,9(sp)
    1fa4:	00010523          	sb	zero,10(sp)
    1fa8:	4405                	li	s0,1
    1faa:	c622                	sw	s0,12(sp)
    1fac:	0028                	addi	a0,sp,8
    1fae:	ca7fe0ef          	jal	ra,c54 <NVIC_Init>
    1fb2:	02e00793          	li	a5,46
    1fb6:	845c                	0x845c
    1fb8:	4789                	li	a5,2
    1fba:	84dc                	0x84dc
    1fbc:	00010523          	sb	zero,10(sp)
    1fc0:	c622                	sw	s0,12(sp)
    1fc2:	0028                	addi	a0,sp,8
    1fc4:	c91fe0ef          	jal	ra,c54 <NVIC_Init>
    1fc8:	02400793          	li	a5,36
    1fcc:	845c                	0x845c
    1fce:	84c0                	0x84c0
    1fd0:	8540                	0x8540
    1fd2:	c622                	sw	s0,12(sp)
    1fd4:	0028                	addi	a0,sp,8
    1fd6:	c7ffe0ef          	jal	ra,c54 <NVIC_Init>
    1fda:	03500793          	li	a5,53
    1fde:	845c                	0x845c
    1fe0:	84c0                	0x84c0
    1fe2:	00010523          	sb	zero,10(sp)
    1fe6:	c622                	sw	s0,12(sp)
    1fe8:	0028                	addi	a0,sp,8
    1fea:	c6bfe0ef          	jal	ra,c54 <NVIC_Init>
    1fee:	0141                	addi	sp,sp,16
    1ff0:	a64fe06f          	j	254 <__riscv_restore_0>

00001ff4 <OTG_FS_IRQHandler>:
    1ff4:	711d                	addi	sp,sp,-96
    1ff6:	cea2                	sw	s0,92(sp)
    1ff8:	cca6                	sw	s1,88(sp)
    1ffa:	caca                	sw	s2,84(sp)
    1ffc:	c8ce                	sw	s3,80(sp)
    1ffe:	e682                	fsw	ft0,76(sp)
    2000:	e486                	fsw	ft1,72(sp)
    2002:	e28a                	fsw	ft2,68(sp)
    2004:	e08e                	fsw	ft3,64(sp)
    2006:	fe12                	fsw	ft4,60(sp)
    2008:	fc16                	fsw	ft5,56(sp)
    200a:	fa1a                	fsw	ft6,52(sp)
    200c:	f81e                	fsw	ft7,48(sp)
    200e:	f62a                	fsw	fa0,44(sp)
    2010:	f42e                	fsw	fa1,40(sp)
    2012:	f232                	fsw	fa2,36(sp)
    2014:	f036                	fsw	fa3,32(sp)
    2016:	ee3a                	fsw	fa4,28(sp)
    2018:	ec3e                	fsw	fa5,24(sp)
    201a:	ea42                	fsw	fa6,20(sp)
    201c:	e846                	fsw	fa7,16(sp)
    201e:	e672                	fsw	ft8,12(sp)
    2020:	e476                	fsw	ft9,8(sp)
    2022:	e27a                	fsw	ft10,4(sp)
    2024:	e07e                	fsw	ft11,0(sp)
    2026:	50000737          	lui	a4,0x50000
    202a:	237c                	fld	fa5,192(a4)
    202c:	0ff7f793          	andi	a5,a5,255
    2030:	3378                	fld	fa4,224(a4)
    2032:	0027f693          	andi	a3,a5,2
    2036:	68068d63          	beqz	a3,26d0 <OTG_FS_IRQHandler+0x6dc>
    203a:	0ff77713          	andi	a4,a4,255
    203e:	03077793          	andi	a5,a4,48
    2042:	02000693          	li	a3,32
    2046:	04d78763          	beq	a5,a3,2094 <OTG_FS_IRQHandler+0xa0>
    204a:	03000693          	li	a3,48
    204e:	1ad78c63          	beq	a5,a3,2206 <OTG_FS_IRQHandler+0x212>
    2052:	16078563          	beqz	a5,21bc <OTG_FS_IRQHandler+0x1c8>
    2056:	500007b7          	lui	a5,0x50000
    205a:	4709                	li	a4,2
    205c:	a3f8                	fsd	fa4,192(a5)
    205e:	4476                	lw	s0,92(sp)
    2060:	44e6                	lw	s1,88(sp)
    2062:	4956                	lw	s2,84(sp)
    2064:	49c6                	lw	s3,80(sp)
    2066:	6036                	flw	ft0,76(sp)
    2068:	60a6                	flw	ft1,72(sp)
    206a:	6116                	flw	ft2,68(sp)
    206c:	6186                	flw	ft3,64(sp)
    206e:	7272                	flw	ft4,60(sp)
    2070:	72e2                	flw	ft5,56(sp)
    2072:	7352                	flw	ft6,52(sp)
    2074:	73c2                	flw	ft7,48(sp)
    2076:	7532                	flw	fa0,44(sp)
    2078:	75a2                	flw	fa1,40(sp)
    207a:	7612                	flw	fa2,36(sp)
    207c:	7682                	flw	fa3,32(sp)
    207e:	6772                	flw	fa4,28(sp)
    2080:	67e2                	flw	fa5,24(sp)
    2082:	6852                	flw	fa6,20(sp)
    2084:	68c2                	flw	fa7,16(sp)
    2086:	6e32                	flw	ft8,12(sp)
    2088:	6ea2                	flw	ft9,8(sp)
    208a:	6f12                	flw	ft10,4(sp)
    208c:	6f82                	flw	ft11,0(sp)
    208e:	6125                	addi	sp,sp,96
    2090:	30200073          	mret
    2094:	03f77713          	andi	a4,a4,63
    2098:	02100793          	li	a5,33
    209c:	0cf70463          	beq	a4,a5,2164 <OTG_FS_IRQHandler+0x170>
    20a0:	02300793          	li	a5,35
    20a4:	0ef70663          	beq	a4,a5,2190 <OTG_FS_IRQHandler+0x19c>
    20a8:	02000793          	li	a5,32
    20ac:	faf715e3          	bne	a4,a5,2056 <OTG_FS_IRQHandler+0x62>
    20b0:	83818793          	addi	a5,gp,-1992 # 200000a8 <USBFS_SetupReqLen>
    20b4:	239e                	fld	ft7,448(sp)
    20b6:	07c2                	slli	a5,a5,0x10
    20b8:	83c1                	srli	a5,a5,0x10
    20ba:	e791                	bnez	a5,20c6 <OTG_FS_IRQHandler+0xd2>
    20bc:	500007b7          	lui	a5,0x50000
    20c0:	4711                	li	a4,4
    20c2:	02e789a3          	sb	a4,51(a5) # 50000033 <_eusrstack+0x2fff8033>
    20c6:	83a18793          	addi	a5,gp,-1990 # 200000aa <USBFS_SetupReqType>
    20ca:	239c                	fld	fa5,0(a5)
    20cc:	0607f793          	andi	a5,a5,96
    20d0:	f3d9                	bnez	a5,2056 <OTG_FS_IRQHandler+0x62>
    20d2:	83418793          	addi	a5,gp,-1996 # 200000a4 <USBFS_SetupReqCode>
    20d6:	239c                	fld	fa5,0(a5)
    20d8:	0ff7f793          	andi	a5,a5,255
    20dc:	4715                	li	a4,5
    20de:	06e78463          	beq	a5,a4,2146 <OTG_FS_IRQHandler+0x152>
    20e2:	4719                	li	a4,6
    20e4:	f6e799e3          	bne	a5,a4,2056 <OTG_FS_IRQHandler+0x62>
    20e8:	83818793          	addi	a5,gp,-1992 # 200000a8 <USBFS_SetupReqLen>
    20ec:	239e                	fld	ft7,448(sp)
    20ee:	07c2                	slli	a5,a5,0x10
    20f0:	83c1                	srli	a5,a5,0x10
    20f2:	03f00713          	li	a4,63
    20f6:	04f76563          	bltu	a4,a5,2140 <OTG_FS_IRQHandler+0x14c>
    20fa:	83818793          	addi	a5,gp,-1992 # 200000a8 <USBFS_SetupReqLen>
    20fe:	2382                	fld	ft7,0(sp)
    2100:	0442                	slli	s0,s0,0x10
    2102:	8041                	srli	s0,s0,0x10
    2104:	84018913          	addi	s2,gp,-1984 # 200000b0 <pUSBFS_Descr>
    2108:	00092483          	lw	s1,0(s2)
    210c:	8622                	mv	a2,s0
    210e:	85a6                	mv	a1,s1
    2110:	85c18513          	addi	a0,gp,-1956 # 200000cc <USBFS_EP0_Buf>
    2114:	11b060ef          	jal	ra,8a2e <memcpy>
    2118:	83818713          	addi	a4,gp,-1992 # 200000a8 <USBFS_SetupReqLen>
    211c:	231e                	fld	ft6,448(sp)
    211e:	8f81                	sub	a5,a5,s0
    2120:	07c2                	slli	a5,a5,0x10
    2122:	83c1                	srli	a5,a5,0x10
    2124:	a31e                	fsd	ft7,384(sp)
    2126:	94a2                	add	s1,s1,s0
    2128:	00992023          	sw	s1,0(s2)
    212c:	500007b7          	lui	a5,0x50000
    2130:	bb82                	fsd	ft0,496(sp)
    2132:	0327c703          	lbu	a4,50(a5) # 50000032 <_eusrstack+0x2fff8032>
    2136:	00474713          	xori	a4,a4,4
    213a:	02e78923          	sb	a4,50(a5)
    213e:	bf21                	j	2056 <OTG_FS_IRQHandler+0x62>
    2140:	04000413          	li	s0,64
    2144:	b7c1                	j	2104 <OTG_FS_IRQHandler+0x110>
    2146:	50000737          	lui	a4,0x50000
    214a:	333c                	fld	fa5,96(a4)
    214c:	07e2                	slli	a5,a5,0x18
    214e:	87e1                	srai	a5,a5,0x18
    2150:	f807f793          	andi	a5,a5,-128
    2154:	82818693          	addi	a3,gp,-2008 # 20000098 <USBFS_DevAddr>
    2158:	2294                	fld	fa3,0(a3)
    215a:	8fd5                	or	a5,a5,a3
    215c:	0ff7f793          	andi	a5,a5,255
    2160:	b33c                	fsd	fa5,96(a4)
    2162:	bdd5                	j	2056 <OTG_FS_IRQHandler+0x62>
    2164:	50000737          	lui	a4,0x50000
    2168:	03674783          	lbu	a5,54(a4) # 50000036 <_eusrstack+0x2fff8036>
    216c:	0047c793          	xori	a5,a5,4
    2170:	02f70b23          	sb	a5,54(a4)
    2174:	03674783          	lbu	a5,54(a4)
    2178:	07e2                	slli	a5,a5,0x18
    217a:	87e1                	srai	a5,a5,0x18
    217c:	9bf1                	andi	a5,a5,-4
    217e:	0027e793          	ori	a5,a5,2
    2182:	0ff7f793          	andi	a5,a5,255
    2186:	02f70b23          	sb	a5,54(a4)
    218a:	820186a3          	sb	zero,-2003(gp) # 2000009d <USBFS_Endp_Busy+0x1>
    218e:	b5e1                	j	2056 <OTG_FS_IRQHandler+0x62>
    2190:	50000737          	lui	a4,0x50000
    2194:	03e74783          	lbu	a5,62(a4) # 5000003e <_eusrstack+0x2fff803e>
    2198:	0047c793          	xori	a5,a5,4
    219c:	02f70f23          	sb	a5,62(a4)
    21a0:	03e74783          	lbu	a5,62(a4)
    21a4:	07e2                	slli	a5,a5,0x18
    21a6:	87e1                	srai	a5,a5,0x18
    21a8:	9bf1                	andi	a5,a5,-4
    21aa:	0027e793          	ori	a5,a5,2
    21ae:	0ff7f793          	andi	a5,a5,255
    21b2:	02f70f23          	sb	a5,62(a4)
    21b6:	820187a3          	sb	zero,-2001(gp) # 2000009f <USBFS_Endp_Busy+0x3>
    21ba:	bd71                	j	2056 <OTG_FS_IRQHandler+0x62>
    21bc:	03f77793          	andi	a5,a4,63
    21c0:	e8079be3          	bnez	a5,2056 <OTG_FS_IRQHandler+0x62>
    21c4:	500007b7          	lui	a5,0x50000
    21c8:	279e                	fld	fa5,448(sp)
    21ca:	04077713          	andi	a4,a4,64
    21ce:	e80704e3          	beqz	a4,2056 <OTG_FS_IRQHandler+0x62>
    21d2:	83a18793          	addi	a5,gp,-1990 # 200000aa <USBFS_SetupReqType>
    21d6:	239c                	fld	fa5,0(a5)
    21d8:	0607f793          	andi	a5,a5,96
    21dc:	c791                	beqz	a5,21e8 <OTG_FS_IRQHandler+0x1f4>
    21de:	82019c23          	sh	zero,-1992(gp) # 200000a8 <USBFS_SetupReqLen>
    21e2:	83418793          	addi	a5,gp,-1996 # 200000a4 <USBFS_SetupReqCode>
    21e6:	239c                	fld	fa5,0(a5)
    21e8:	83818793          	addi	a5,gp,-1992 # 200000a8 <USBFS_SetupReqLen>
    21ec:	239e                	fld	ft7,448(sp)
    21ee:	07c2                	slli	a5,a5,0x10
    21f0:	83c1                	srli	a5,a5,0x10
    21f2:	e60792e3          	bnez	a5,2056 <OTG_FS_IRQHandler+0x62>
    21f6:	500007b7          	lui	a5,0x50000
    21fa:	02079823          	sh	zero,48(a5) # 50000030 <_eusrstack+0x2fff8030>
    21fe:	4711                	li	a4,4
    2200:	02e78923          	sb	a4,50(a5)
    2204:	bd89                	j	2056 <OTG_FS_IRQHandler+0x62>
    2206:	500007b7          	lui	a5,0x50000
    220a:	4719                	li	a4,6
    220c:	02e78923          	sb	a4,50(a5) # 50000032 <_eusrstack+0x2fff8032>
    2210:	02e789a3          	sb	a4,51(a5)
    2214:	85c18793          	addi	a5,gp,-1956 # 200000cc <USBFS_EP0_Buf>
    2218:	2394                	fld	fa3,0(a5)
    221a:	83a18713          	addi	a4,gp,-1990 # 200000aa <USBFS_SetupReqType>
    221e:	a314                	fsd	fa3,0(a4)
    2220:	3394                	fld	fa3,32(a5)
    2222:	82d18a23          	sb	a3,-1996(gp) # 200000a4 <USBFS_SetupReqCode>
    2226:	23f6                	fld	ft7,344(sp)
    2228:	82d19c23          	sh	a3,-1992(gp) # 200000a8 <USBFS_SetupReqLen>
    222c:	23b6                	fld	ft7,328(sp)
    222e:	82d19e23          	sh	a3,-1988(gp) # 200000ac <USBFS_SetupReqValue>
    2232:	23de                	fld	ft7,464(sp)
    2234:	82f19b23          	sh	a5,-1994(gp) # 200000a6 <USBFS_SetupReqIndex>
    2238:	231c                	fld	fa5,0(a4)
    223a:	0607f793          	andi	a5,a5,96
    223e:	c7c5                	beqz	a5,22e6 <OTG_FS_IRQHandler+0x2f2>
    2240:	231c                	fld	fa5,0(a4)
    2242:	0207f793          	andi	a5,a5,32
    2246:	cfbd                	beqz	a5,22c4 <OTG_FS_IRQHandler+0x2d0>
    2248:	83418793          	addi	a5,gp,-1996 # 200000a4 <USBFS_SetupReqCode>
    224c:	239c                	fld	fa5,0(a5)
    224e:	1781                	addi	a5,a5,-32
    2250:	470d                	li	a4,3
    2252:	08f76163          	bltu	a4,a5,22d4 <OTG_FS_IRQHandler+0x2e0>
    2256:	4981                	li	s3,0
    2258:	83818793          	addi	a5,gp,-1992 # 200000a8 <USBFS_SetupReqLen>
    225c:	239e                	fld	ft7,448(sp)
    225e:	07c2                	slli	a5,a5,0x10
    2260:	83c1                	srli	a5,a5,0x10
    2262:	03f00713          	li	a4,63
    2266:	06f76d63          	bltu	a4,a5,22e0 <OTG_FS_IRQHandler+0x2ec>
    226a:	83818793          	addi	a5,gp,-1992 # 200000a8 <USBFS_SetupReqLen>
    226e:	2382                	fld	ft7,0(sp)
    2270:	01041493          	slli	s1,s0,0x10
    2274:	80c1                	srli	s1,s1,0x10
    2276:	84018913          	addi	s2,gp,-1984 # 200000b0 <pUSBFS_Descr>
    227a:	00092403          	lw	s0,0(s2)
    227e:	8626                	mv	a2,s1
    2280:	85a2                	mv	a1,s0
    2282:	85c18513          	addi	a0,gp,-1956 # 200000cc <USBFS_EP0_Buf>
    2286:	7a8060ef          	jal	ra,8a2e <memcpy>
    228a:	9426                	add	s0,s0,s1
    228c:	00892023          	sw	s0,0(s2)
    2290:	0ff00793          	li	a5,255
    2294:	1ef98d63          	beq	s3,a5,248e <OTG_FS_IRQHandler+0x49a>
    2298:	83a18793          	addi	a5,gp,-1990 # 200000aa <USBFS_SetupReqType>
    229c:	239c                	fld	fa5,0(a5)
    229e:	07e2                	slli	a5,a5,0x18
    22a0:	87e1                	srai	a5,a5,0x18
    22a2:	3e07c263          	bltz	a5,2686 <OTG_FS_IRQHandler+0x692>
    22a6:	83818793          	addi	a5,gp,-1992 # 200000a8 <USBFS_SetupReqLen>
    22aa:	239e                	fld	ft7,448(sp)
    22ac:	07c2                	slli	a5,a5,0x10
    22ae:	83c1                	srli	a5,a5,0x10
    22b0:	40079a63          	bnez	a5,26c4 <OTG_FS_IRQHandler+0x6d0>
    22b4:	500007b7          	lui	a5,0x50000
    22b8:	02079823          	sh	zero,48(a5) # 50000030 <_eusrstack+0x2fff8030>
    22bc:	4711                	li	a4,4
    22be:	02e78923          	sb	a4,50(a5)
    22c2:	bb51                	j	2056 <OTG_FS_IRQHandler+0x62>
    22c4:	83a18793          	addi	a5,gp,-1990 # 200000aa <USBFS_SetupReqType>
    22c8:	239c                	fld	fa5,0(a5)
    22ca:	0407f793          	andi	a5,a5,64
    22ce:	c791                	beqz	a5,22da <OTG_FS_IRQHandler+0x2e6>
    22d0:	4981                	li	s3,0
    22d2:	b759                	j	2258 <OTG_FS_IRQHandler+0x264>
    22d4:	0ff00993          	li	s3,255
    22d8:	b741                	j	2258 <OTG_FS_IRQHandler+0x264>
    22da:	0ff00993          	li	s3,255
    22de:	bfad                	j	2258 <OTG_FS_IRQHandler+0x264>
    22e0:	04000493          	li	s1,64
    22e4:	bf49                	j	2276 <OTG_FS_IRQHandler+0x282>
    22e6:	83418793          	addi	a5,gp,-1996 # 200000a4 <USBFS_SetupReqCode>
    22ea:	239c                	fld	fa5,0(a5)
    22ec:	0ff7f793          	andi	a5,a5,255
    22f0:	472d                	li	a4,11
    22f2:	18f76e63          	bltu	a4,a5,248e <OTG_FS_IRQHandler+0x49a>
    22f6:	078a                	slli	a5,a5,0x2
    22f8:	00007717          	auipc	a4,0x7
    22fc:	88070713          	addi	a4,a4,-1920 # 8b78 <MySerNumInfo+0x18>
    2300:	97ba                	add	a5,a5,a4
    2302:	439c                	lw	a5,0(a5)
    2304:	97ba                	add	a5,a5,a4
    2306:	8782                	jr	a5
    2308:	83c18793          	addi	a5,gp,-1988 # 200000ac <USBFS_SetupReqValue>
    230c:	239e                	fld	ft7,448(sp)
    230e:	83a1                	srli	a5,a5,0x8
    2310:	4709                	li	a4,2
    2312:	06e78a63          	beq	a5,a4,2386 <OTG_FS_IRQHandler+0x392>
    2316:	470d                	li	a4,3
    2318:	08e78563          	beq	a5,a4,23a2 <OTG_FS_IRQHandler+0x3ae>
    231c:	4705                	li	a4,1
    231e:	04e78b63          	beq	a5,a4,2374 <OTG_FS_IRQHandler+0x380>
    2322:	4781                	li	a5,0
    2324:	0ff00993          	li	s3,255
    2328:	83818713          	addi	a4,gp,-1992 # 200000a8 <USBFS_SetupReqLen>
    232c:	231a                	fld	ft6,384(sp)
    232e:	0742                	slli	a4,a4,0x10
    2330:	8341                	srli	a4,a4,0x10
    2332:	00e7f463          	bgeu	a5,a4,233a <OTG_FS_IRQHandler+0x346>
    2336:	82f19c23          	sh	a5,-1992(gp) # 200000a8 <USBFS_SetupReqLen>
    233a:	83818793          	addi	a5,gp,-1992 # 200000a8 <USBFS_SetupReqLen>
    233e:	239e                	fld	ft7,448(sp)
    2340:	07c2                	slli	a5,a5,0x10
    2342:	83c1                	srli	a5,a5,0x10
    2344:	03f00713          	li	a4,63
    2348:	0cf76563          	bltu	a4,a5,2412 <OTG_FS_IRQHandler+0x41e>
    234c:	83818793          	addi	a5,gp,-1992 # 200000a8 <USBFS_SetupReqLen>
    2350:	2382                	fld	ft7,0(sp)
    2352:	01041493          	slli	s1,s0,0x10
    2356:	80c1                	srli	s1,s1,0x10
    2358:	84018913          	addi	s2,gp,-1984 # 200000b0 <pUSBFS_Descr>
    235c:	00092403          	lw	s0,0(s2)
    2360:	8626                	mv	a2,s1
    2362:	85a2                	mv	a1,s0
    2364:	85c18513          	addi	a0,gp,-1956 # 200000cc <USBFS_EP0_Buf>
    2368:	6c6060ef          	jal	ra,8a2e <memcpy>
    236c:	9426                	add	s0,s0,s1
    236e:	00892023          	sw	s0,0(s2)
    2372:	bf39                	j	2290 <OTG_FS_IRQHandler+0x29c>
    2374:	00006797          	auipc	a5,0x6
    2378:	7b078793          	addi	a5,a5,1968 # 8b24 <MyDevDescr>
    237c:	84f1a023          	sw	a5,-1984(gp) # 200000b0 <pUSBFS_Descr>
    2380:	239c                	fld	fa5,0(a5)
    2382:	4981                	li	s3,0
    2384:	b755                	j	2328 <OTG_FS_IRQHandler+0x334>
    2386:	00006717          	auipc	a4,0x6
    238a:	75a70713          	addi	a4,a4,1882 # 8ae0 <MyCfgDescr>
    238e:	84e1a023          	sw	a4,-1984(gp) # 200000b0 <pUSBFS_Descr>
    2392:	233c                	fld	fa5,64(a4)
    2394:	3338                	fld	fa4,96(a4)
    2396:	0722                	slli	a4,a4,0x8
    2398:	97ba                	add	a5,a5,a4
    239a:	07c2                	slli	a5,a5,0x10
    239c:	83c1                	srli	a5,a5,0x10
    239e:	4981                	li	s3,0
    23a0:	b761                	j	2328 <OTG_FS_IRQHandler+0x334>
    23a2:	83c18793          	addi	a5,gp,-1988 # 200000ac <USBFS_SetupReqValue>
    23a6:	239e                	fld	ft7,448(sp)
    23a8:	0ff7f793          	andi	a5,a5,255
    23ac:	4705                	li	a4,1
    23ae:	02e78763          	beq	a5,a4,23dc <OTG_FS_IRQHandler+0x3e8>
    23b2:	01879713          	slli	a4,a5,0x18
    23b6:	8761                	srai	a4,a4,0x18
    23b8:	cb19                	beqz	a4,23ce <OTG_FS_IRQHandler+0x3da>
    23ba:	4709                	li	a4,2
    23bc:	02e78963          	beq	a5,a4,23ee <OTG_FS_IRQHandler+0x3fa>
    23c0:	470d                	li	a4,3
    23c2:	02e78f63          	beq	a5,a4,2400 <OTG_FS_IRQHandler+0x40c>
    23c6:	4781                	li	a5,0
    23c8:	0ff00993          	li	s3,255
    23cc:	bfb1                	j	2328 <OTG_FS_IRQHandler+0x334>
    23ce:	81018793          	addi	a5,gp,-2032 # 20000080 <MyLangDescr>
    23d2:	84f1a023          	sw	a5,-1984(gp) # 200000b0 <pUSBFS_Descr>
    23d6:	239c                	fld	fa5,0(a5)
    23d8:	4981                	li	s3,0
    23da:	b7b9                	j	2328 <OTG_FS_IRQHandler+0x334>
    23dc:	00006797          	auipc	a5,0x6
    23e0:	75c78793          	addi	a5,a5,1884 # 8b38 <MyManuInfo>
    23e4:	84f1a023          	sw	a5,-1984(gp) # 200000b0 <pUSBFS_Descr>
    23e8:	239c                	fld	fa5,0(a5)
    23ea:	4981                	li	s3,0
    23ec:	bf35                	j	2328 <OTG_FS_IRQHandler+0x334>
    23ee:	00006797          	auipc	a5,0x6
    23f2:	75a78793          	addi	a5,a5,1882 # 8b48 <MyProdInfo>
    23f6:	84f1a023          	sw	a5,-1984(gp) # 200000b0 <pUSBFS_Descr>
    23fa:	239c                	fld	fa5,0(a5)
    23fc:	4981                	li	s3,0
    23fe:	b72d                	j	2328 <OTG_FS_IRQHandler+0x334>
    2400:	00006797          	auipc	a5,0x6
    2404:	76078793          	addi	a5,a5,1888 # 8b60 <MySerNumInfo>
    2408:	84f1a023          	sw	a5,-1984(gp) # 200000b0 <pUSBFS_Descr>
    240c:	239c                	fld	fa5,0(a5)
    240e:	4981                	li	s3,0
    2410:	bf21                	j	2328 <OTG_FS_IRQHandler+0x334>
    2412:	04000493          	li	s1,64
    2416:	b789                	j	2358 <OTG_FS_IRQHandler+0x364>
    2418:	83c18793          	addi	a5,gp,-1988 # 200000ac <USBFS_SetupReqValue>
    241c:	239e                	fld	ft7,448(sp)
    241e:	82f18423          	sb	a5,-2008(gp) # 20000098 <USBFS_DevAddr>
    2422:	bd9d                	j	2298 <OTG_FS_IRQHandler+0x2a4>
    2424:	82918793          	addi	a5,gp,-2007 # 20000099 <USBFS_DevConfig>
    2428:	239c                	fld	fa5,0(a5)
    242a:	84f18e23          	sb	a5,-1956(gp) # 200000cc <USBFS_EP0_Buf>
    242e:	83818793          	addi	a5,gp,-1992 # 200000a8 <USBFS_SetupReqLen>
    2432:	239e                	fld	ft7,448(sp)
    2434:	07c2                	slli	a5,a5,0x10
    2436:	83c1                	srli	a5,a5,0x10
    2438:	4705                	li	a4,1
    243a:	e4f77fe3          	bgeu	a4,a5,2298 <OTG_FS_IRQHandler+0x2a4>
    243e:	4785                	li	a5,1
    2440:	82f19c23          	sh	a5,-1992(gp) # 200000a8 <USBFS_SetupReqLen>
    2444:	bd91                	j	2298 <OTG_FS_IRQHandler+0x2a4>
    2446:	83c18793          	addi	a5,gp,-1988 # 200000ac <USBFS_SetupReqValue>
    244a:	239e                	fld	ft7,448(sp)
    244c:	82f184a3          	sb	a5,-2007(gp) # 20000099 <USBFS_DevConfig>
    2450:	4785                	li	a5,1
    2452:	82f18523          	sb	a5,-2006(gp) # 2000009a <USBFS_DevEnumStatus>
    2456:	b589                	j	2298 <OTG_FS_IRQHandler+0x2a4>
    2458:	83a18793          	addi	a5,gp,-1990 # 200000aa <USBFS_SetupReqType>
    245c:	239c                	fld	fa5,0(a5)
    245e:	8bfd                	andi	a5,a5,31
    2460:	e385                	bnez	a5,2480 <OTG_FS_IRQHandler+0x48c>
    2462:	83c18793          	addi	a5,gp,-1988 # 200000ac <USBFS_SetupReqValue>
    2466:	239e                	fld	ft7,448(sp)
    2468:	0ff7f793          	andi	a5,a5,255
    246c:	4705                	li	a4,1
    246e:	e2e795e3          	bne	a5,a4,2298 <OTG_FS_IRQHandler+0x2a4>
    2472:	82b18713          	addi	a4,gp,-2005 # 2000009b <USBFS_DevSleepStatus>
    2476:	231c                	fld	fa5,0(a4)
    2478:	0fe7f793          	andi	a5,a5,254
    247c:	a31c                	fsd	fa5,0(a4)
    247e:	bd29                	j	2298 <OTG_FS_IRQHandler+0x2a4>
    2480:	83a18793          	addi	a5,gp,-1990 # 200000aa <USBFS_SetupReqType>
    2484:	239c                	fld	fa5,0(a5)
    2486:	8bfd                	andi	a5,a5,31
    2488:	4709                	li	a4,2
    248a:	00e78a63          	beq	a5,a4,249e <OTG_FS_IRQHandler+0x4aa>
    248e:	500007b7          	lui	a5,0x50000
    2492:	471d                	li	a4,7
    2494:	02e78923          	sb	a4,50(a5) # 50000032 <_eusrstack+0x2fff8032>
    2498:	02e789a3          	sb	a4,51(a5)
    249c:	be6d                	j	2056 <OTG_FS_IRQHandler+0x62>
    249e:	83c18793          	addi	a5,gp,-1988 # 200000ac <USBFS_SetupReqValue>
    24a2:	239e                	fld	ft7,448(sp)
    24a4:	0ff7f793          	andi	a5,a5,255
    24a8:	f3fd                	bnez	a5,248e <OTG_FS_IRQHandler+0x49a>
    24aa:	83618793          	addi	a5,gp,-1994 # 200000a6 <USBFS_SetupReqIndex>
    24ae:	239e                	fld	ft7,448(sp)
    24b0:	0ff7f793          	andi	a5,a5,255
    24b4:	08100713          	li	a4,129
    24b8:	00e78e63          	beq	a5,a4,24d4 <OTG_FS_IRQHandler+0x4e0>
    24bc:	08300713          	li	a4,131
    24c0:	02e78063          	beq	a5,a4,24e0 <OTG_FS_IRQHandler+0x4ec>
    24c4:	4709                	li	a4,2
    24c6:	fce794e3          	bne	a5,a4,248e <OTG_FS_IRQHandler+0x49a>
    24ca:	500007b7          	lui	a5,0x50000
    24ce:	02078da3          	sb	zero,59(a5) # 5000003b <_eusrstack+0x2fff803b>
    24d2:	b3d9                	j	2298 <OTG_FS_IRQHandler+0x2a4>
    24d4:	500007b7          	lui	a5,0x50000
    24d8:	4709                	li	a4,2
    24da:	02e78b23          	sb	a4,54(a5) # 50000036 <_eusrstack+0x2fff8036>
    24de:	bb6d                	j	2298 <OTG_FS_IRQHandler+0x2a4>
    24e0:	500007b7          	lui	a5,0x50000
    24e4:	4709                	li	a4,2
    24e6:	02e78f23          	sb	a4,62(a5) # 5000003e <_eusrstack+0x2fff803e>
    24ea:	b37d                	j	2298 <OTG_FS_IRQHandler+0x2a4>
    24ec:	83a18793          	addi	a5,gp,-1990 # 200000aa <USBFS_SetupReqType>
    24f0:	239c                	fld	fa5,0(a5)
    24f2:	8bfd                	andi	a5,a5,31
    24f4:	e79d                	bnez	a5,2522 <OTG_FS_IRQHandler+0x52e>
    24f6:	83c18793          	addi	a5,gp,-1988 # 200000ac <USBFS_SetupReqValue>
    24fa:	239e                	fld	ft7,448(sp)
    24fc:	0ff7f793          	andi	a5,a5,255
    2500:	4705                	li	a4,1
    2502:	f8e796e3          	bne	a5,a4,248e <OTG_FS_IRQHandler+0x49a>
    2506:	00006797          	auipc	a5,0x6
    250a:	5e17c783          	lbu	a5,1505(a5) # 8ae7 <MyCfgDescr+0x7>
    250e:	0207f793          	andi	a5,a5,32
    2512:	dfb5                	beqz	a5,248e <OTG_FS_IRQHandler+0x49a>
    2514:	82b18713          	addi	a4,gp,-2005 # 2000009b <USBFS_DevSleepStatus>
    2518:	231c                	fld	fa5,0(a4)
    251a:	0017e793          	ori	a5,a5,1
    251e:	a31c                	fsd	fa5,0(a4)
    2520:	bba5                	j	2298 <OTG_FS_IRQHandler+0x2a4>
    2522:	83a18793          	addi	a5,gp,-1990 # 200000aa <USBFS_SetupReqType>
    2526:	239c                	fld	fa5,0(a5)
    2528:	8bfd                	andi	a5,a5,31
    252a:	4709                	li	a4,2
    252c:	f6e791e3          	bne	a5,a4,248e <OTG_FS_IRQHandler+0x49a>
    2530:	83c18793          	addi	a5,gp,-1988 # 200000ac <USBFS_SetupReqValue>
    2534:	239e                	fld	ft7,448(sp)
    2536:	0ff7f793          	andi	a5,a5,255
    253a:	fbb1                	bnez	a5,248e <OTG_FS_IRQHandler+0x49a>
    253c:	83618793          	addi	a5,gp,-1994 # 200000a6 <USBFS_SetupReqIndex>
    2540:	239e                	fld	ft7,448(sp)
    2542:	0ff7f793          	andi	a5,a5,255
    2546:	08100713          	li	a4,129
    254a:	02e78263          	beq	a5,a4,256e <OTG_FS_IRQHandler+0x57a>
    254e:	08300713          	li	a4,131
    2552:	02e78763          	beq	a5,a4,2580 <OTG_FS_IRQHandler+0x58c>
    2556:	4709                	li	a4,2
    2558:	f2e79be3          	bne	a5,a4,248e <OTG_FS_IRQHandler+0x49a>
    255c:	50000737          	lui	a4,0x50000
    2560:	03b74783          	lbu	a5,59(a4) # 5000003b <_eusrstack+0x2fff803b>
    2564:	0037e793          	ori	a5,a5,3
    2568:	02f70da3          	sb	a5,59(a4)
    256c:	b335                	j	2298 <OTG_FS_IRQHandler+0x2a4>
    256e:	50000737          	lui	a4,0x50000
    2572:	03674783          	lbu	a5,54(a4) # 50000036 <_eusrstack+0x2fff8036>
    2576:	0037e793          	ori	a5,a5,3
    257a:	02f70b23          	sb	a5,54(a4)
    257e:	bb29                	j	2298 <OTG_FS_IRQHandler+0x2a4>
    2580:	50000737          	lui	a4,0x50000
    2584:	03e74783          	lbu	a5,62(a4) # 5000003e <_eusrstack+0x2fff803e>
    2588:	0037e793          	ori	a5,a5,3
    258c:	02f70f23          	sb	a5,62(a4)
    2590:	b321                	j	2298 <OTG_FS_IRQHandler+0x2a4>
    2592:	84018e23          	sb	zero,-1956(gp) # 200000cc <USBFS_EP0_Buf>
    2596:	83818793          	addi	a5,gp,-1992 # 200000a8 <USBFS_SetupReqLen>
    259a:	239e                	fld	ft7,448(sp)
    259c:	07c2                	slli	a5,a5,0x10
    259e:	83c1                	srli	a5,a5,0x10
    25a0:	4705                	li	a4,1
    25a2:	cef77be3          	bgeu	a4,a5,2298 <OTG_FS_IRQHandler+0x2a4>
    25a6:	4785                	li	a5,1
    25a8:	82f19c23          	sh	a5,-1992(gp) # 200000a8 <USBFS_SetupReqLen>
    25ac:	b1f5                	j	2298 <OTG_FS_IRQHandler+0x2a4>
    25ae:	85c18793          	addi	a5,gp,-1956 # 200000cc <USBFS_EP0_Buf>
    25b2:	00078023          	sb	zero,0(a5)
    25b6:	000780a3          	sb	zero,1(a5)
    25ba:	83a18793          	addi	a5,gp,-1990 # 200000aa <USBFS_SetupReqType>
    25be:	239c                	fld	fa5,0(a5)
    25c0:	8bfd                	andi	a5,a5,31
    25c2:	eb99                	bnez	a5,25d8 <OTG_FS_IRQHandler+0x5e4>
    25c4:	82b18793          	addi	a5,gp,-2005 # 2000009b <USBFS_DevSleepStatus>
    25c8:	239c                	fld	fa5,0(a5)
    25ca:	8b85                	andi	a5,a5,1
    25cc:	cbdd                	beqz	a5,2682 <OTG_FS_IRQHandler+0x68e>
    25ce:	4789                	li	a5,2
    25d0:	84f18e23          	sb	a5,-1956(gp) # 200000cc <USBFS_EP0_Buf>
    25d4:	4981                	li	s3,0
    25d6:	a811                	j	25ea <OTG_FS_IRQHandler+0x5f6>
    25d8:	83a18793          	addi	a5,gp,-1990 # 200000aa <USBFS_SetupReqType>
    25dc:	239c                	fld	fa5,0(a5)
    25de:	8bfd                	andi	a5,a5,31
    25e0:	4709                	li	a4,2
    25e2:	02e78063          	beq	a5,a4,2602 <OTG_FS_IRQHandler+0x60e>
    25e6:	0ff00993          	li	s3,255
    25ea:	83818793          	addi	a5,gp,-1992 # 200000a8 <USBFS_SetupReqLen>
    25ee:	239e                	fld	ft7,448(sp)
    25f0:	07c2                	slli	a5,a5,0x10
    25f2:	83c1                	srli	a5,a5,0x10
    25f4:	4709                	li	a4,2
    25f6:	c8f77de3          	bgeu	a4,a5,2290 <OTG_FS_IRQHandler+0x29c>
    25fa:	4789                	li	a5,2
    25fc:	82f19c23          	sh	a5,-1992(gp) # 200000a8 <USBFS_SetupReqLen>
    2600:	b941                	j	2290 <OTG_FS_IRQHandler+0x29c>
    2602:	83618793          	addi	a5,gp,-1994 # 200000a6 <USBFS_SetupReqIndex>
    2606:	239e                	fld	ft7,448(sp)
    2608:	0ff7f793          	andi	a5,a5,255
    260c:	08100713          	li	a4,129
    2610:	00e78c63          	beq	a5,a4,2628 <OTG_FS_IRQHandler+0x634>
    2614:	08300713          	li	a4,131
    2618:	04e78663          	beq	a5,a4,2664 <OTG_FS_IRQHandler+0x670>
    261c:	4709                	li	a4,2
    261e:	02e78463          	beq	a5,a4,2646 <OTG_FS_IRQHandler+0x652>
    2622:	0ff00993          	li	s3,255
    2626:	b7d1                	j	25ea <OTG_FS_IRQHandler+0x5f6>
    2628:	500007b7          	lui	a5,0x50000
    262c:	0367c783          	lbu	a5,54(a5) # 50000036 <_eusrstack+0x2fff8036>
    2630:	8b8d                	andi	a5,a5,3
    2632:	470d                	li	a4,3
    2634:	00e78463          	beq	a5,a4,263c <OTG_FS_IRQHandler+0x648>
    2638:	4981                	li	s3,0
    263a:	bf45                	j	25ea <OTG_FS_IRQHandler+0x5f6>
    263c:	4785                	li	a5,1
    263e:	84f18e23          	sb	a5,-1956(gp) # 200000cc <USBFS_EP0_Buf>
    2642:	4981                	li	s3,0
    2644:	b75d                	j	25ea <OTG_FS_IRQHandler+0x5f6>
    2646:	500007b7          	lui	a5,0x50000
    264a:	03b7c783          	lbu	a5,59(a5) # 5000003b <_eusrstack+0x2fff803b>
    264e:	8b8d                	andi	a5,a5,3
    2650:	470d                	li	a4,3
    2652:	00e78463          	beq	a5,a4,265a <OTG_FS_IRQHandler+0x666>
    2656:	4981                	li	s3,0
    2658:	bf49                	j	25ea <OTG_FS_IRQHandler+0x5f6>
    265a:	4785                	li	a5,1
    265c:	84f18e23          	sb	a5,-1956(gp) # 200000cc <USBFS_EP0_Buf>
    2660:	4981                	li	s3,0
    2662:	b761                	j	25ea <OTG_FS_IRQHandler+0x5f6>
    2664:	500007b7          	lui	a5,0x50000
    2668:	03e7c783          	lbu	a5,62(a5) # 5000003e <_eusrstack+0x2fff803e>
    266c:	8b8d                	andi	a5,a5,3
    266e:	470d                	li	a4,3
    2670:	00e78463          	beq	a5,a4,2678 <OTG_FS_IRQHandler+0x684>
    2674:	4981                	li	s3,0
    2676:	bf95                	j	25ea <OTG_FS_IRQHandler+0x5f6>
    2678:	4785                	li	a5,1
    267a:	84f18e23          	sb	a5,-1956(gp) # 200000cc <USBFS_EP0_Buf>
    267e:	4981                	li	s3,0
    2680:	b7ad                	j	25ea <OTG_FS_IRQHandler+0x5f6>
    2682:	4981                	li	s3,0
    2684:	b79d                	j	25ea <OTG_FS_IRQHandler+0x5f6>
    2686:	83818793          	addi	a5,gp,-1992 # 200000a8 <USBFS_SetupReqLen>
    268a:	239e                	fld	ft7,448(sp)
    268c:	07c2                	slli	a5,a5,0x10
    268e:	83c1                	srli	a5,a5,0x10
    2690:	04000713          	li	a4,64
    2694:	02f76563          	bltu	a4,a5,26be <OTG_FS_IRQHandler+0x6ca>
    2698:	83818793          	addi	a5,gp,-1992 # 200000a8 <USBFS_SetupReqLen>
    269c:	239a                	fld	ft7,384(sp)
    269e:	0742                	slli	a4,a4,0x10
    26a0:	8341                	srli	a4,a4,0x10
    26a2:	83818693          	addi	a3,gp,-1992 # 200000a8 <USBFS_SetupReqLen>
    26a6:	229e                	fld	ft5,448(sp)
    26a8:	8f99                	sub	a5,a5,a4
    26aa:	07c2                	slli	a5,a5,0x10
    26ac:	83c1                	srli	a5,a5,0x10
    26ae:	a29e                	fsd	ft7,320(sp)
    26b0:	500007b7          	lui	a5,0x50000
    26b4:	bb9a                	fsd	ft6,496(sp)
    26b6:	4711                	li	a4,4
    26b8:	02e78923          	sb	a4,50(a5) # 50000032 <_eusrstack+0x2fff8032>
    26bc:	ba69                	j	2056 <OTG_FS_IRQHandler+0x62>
    26be:	04000713          	li	a4,64
    26c2:	b7c5                	j	26a2 <OTG_FS_IRQHandler+0x6ae>
    26c4:	500007b7          	lui	a5,0x50000
    26c8:	4711                	li	a4,4
    26ca:	02e789a3          	sb	a4,51(a5) # 50000033 <_eusrstack+0x2fff8033>
    26ce:	b261                	j	2056 <OTG_FS_IRQHandler+0x62>
    26d0:	0017f713          	andi	a4,a5,1
    26d4:	e70d                	bnez	a4,26fe <OTG_FS_IRQHandler+0x70a>
    26d6:	0047f713          	andi	a4,a5,4
    26da:	cb39                	beqz	a4,2730 <OTG_FS_IRQHandler+0x73c>
    26dc:	500007b7          	lui	a5,0x50000
    26e0:	33dc                	fld	fa5,160(a5)
    26e2:	8b91                	andi	a5,a5,4
    26e4:	cf9d                	beqz	a5,2722 <OTG_FS_IRQHandler+0x72e>
    26e6:	82b18793          	addi	a5,gp,-2005 # 2000009b <USBFS_DevSleepStatus>
    26ea:	2398                	fld	fa4,0(a5)
    26ec:	00276713          	ori	a4,a4,2
    26f0:	a398                	fsd	fa4,0(a5)
    26f2:	239c                	fld	fa5,0(a5)
    26f4:	500007b7          	lui	a5,0x50000
    26f8:	4711                	li	a4,4
    26fa:	a3f8                	fsd	fa4,192(a5)
    26fc:	b28d                	j	205e <OTG_FS_IRQHandler+0x6a>
    26fe:	820184a3          	sb	zero,-2007(gp) # 20000099 <USBFS_DevConfig>
    2702:	82018423          	sb	zero,-2008(gp) # 20000098 <USBFS_DevAddr>
    2706:	820185a3          	sb	zero,-2005(gp) # 2000009b <USBFS_DevSleepStatus>
    270a:	82018523          	sb	zero,-2006(gp) # 2000009a <USBFS_DevEnumStatus>
    270e:	50000437          	lui	s0,0x50000
    2712:	000401a3          	sb	zero,3(s0) # 50000003 <_eusrstack+0x2fff8003>
    2716:	8bcff0ef          	jal	ra,17d2 <USBFS_Device_Endp_Init>
    271a:	4785                	li	a5,1
    271c:	a07c                	fsd	fa5,192(s0)
    271e:	941ff06f          	j	205e <OTG_FS_IRQHandler+0x6a>
    2722:	82b18713          	addi	a4,gp,-2005 # 2000009b <USBFS_DevSleepStatus>
    2726:	231c                	fld	fa5,0(a4)
    2728:	0fd7f793          	andi	a5,a5,253
    272c:	a31c                	fsd	fa5,0(a4)
    272e:	b7d9                	j	26f4 <OTG_FS_IRQHandler+0x700>
    2730:	50000737          	lui	a4,0x50000
    2734:	a37c                	fsd	fa5,192(a4)
    2736:	929ff06f          	j	205e <OTG_FS_IRQHandler+0x6a>

0000273a <OpenMV_SendoneByte>:
    273a:	af7fd2ef          	jal	t0,230 <__riscv_save_0>
    273e:	85aa                	mv	a1,a0
    2740:	40014537          	lui	a0,0x40014
    2744:	80050513          	addi	a0,a0,-2048 # 40013800 <_eusrstack+0x2000b800>
    2748:	827ff0ef          	jal	ra,1f6e <USARTx_SendByte>
    274c:	b09fd06f          	j	254 <__riscv_restore_0>

00002750 <xiaociandchongci>:
    2750:	ae1fd2ef          	jal	t0,230 <__riscv_save_0>
    2754:	1141                	addi	sp,sp,-16
    2756:	c402                	sw	zero,8(sp)
    2758:	c602                	sw	zero,12(sp)
    275a:	8448                	0x8448
    275c:	002c                	addi	a1,sp,8
    275e:	4505                	li	a0,1
    2760:	fc8ff0ef          	jal	ra,1f28 <CAN_Send_Msg>
    2764:	06400513          	li	a0,100
    2768:	b63fd0ef          	jal	ra,2ca <Delay_Ms>
    276c:	0141                	addi	sp,sp,16
    276e:	ae7fd06f          	j	254 <__riscv_restore_0>

00002772 <USART1_IRQHandler>:
    2772:	711d                	addi	sp,sp,-96
    2774:	cea2                	sw	s0,92(sp)
    2776:	e682                	fsw	ft0,76(sp)
    2778:	e486                	fsw	ft1,72(sp)
    277a:	e28a                	fsw	ft2,68(sp)
    277c:	e08e                	fsw	ft3,64(sp)
    277e:	fe12                	fsw	ft4,60(sp)
    2780:	fc16                	fsw	ft5,56(sp)
    2782:	fa1a                	fsw	ft6,52(sp)
    2784:	f81e                	fsw	ft7,48(sp)
    2786:	f62a                	fsw	fa0,44(sp)
    2788:	f42e                	fsw	fa1,40(sp)
    278a:	f232                	fsw	fa2,36(sp)
    278c:	f036                	fsw	fa3,32(sp)
    278e:	ee3a                	fsw	fa4,28(sp)
    2790:	ec3e                	fsw	fa5,24(sp)
    2792:	ea42                	fsw	fa6,20(sp)
    2794:	e846                	fsw	fa7,16(sp)
    2796:	e672                	fsw	ft8,12(sp)
    2798:	e476                	fsw	ft9,8(sp)
    279a:	e27a                	fsw	ft10,4(sp)
    279c:	e07e                	fsw	ft11,0(sp)
    279e:	52500593          	li	a1,1317
    27a2:	40014537          	lui	a0,0x40014
    27a6:	80050513          	addi	a0,a0,-2048 # 40013800 <_eusrstack+0x2000b800>
    27aa:	f95fe0ef          	jal	ra,173e <USART_GetITStatus>
    27ae:	e90d                	bnez	a0,27e0 <USART1_IRQHandler+0x6e>
    27b0:	4476                	lw	s0,92(sp)
    27b2:	6036                	flw	ft0,76(sp)
    27b4:	60a6                	flw	ft1,72(sp)
    27b6:	6116                	flw	ft2,68(sp)
    27b8:	6186                	flw	ft3,64(sp)
    27ba:	7272                	flw	ft4,60(sp)
    27bc:	72e2                	flw	ft5,56(sp)
    27be:	7352                	flw	ft6,52(sp)
    27c0:	73c2                	flw	ft7,48(sp)
    27c2:	7532                	flw	fa0,44(sp)
    27c4:	75a2                	flw	fa1,40(sp)
    27c6:	7612                	flw	fa2,36(sp)
    27c8:	7682                	flw	fa3,32(sp)
    27ca:	6772                	flw	fa4,28(sp)
    27cc:	67e2                	flw	fa5,24(sp)
    27ce:	6852                	flw	fa6,20(sp)
    27d0:	68c2                	flw	fa7,16(sp)
    27d2:	6e32                	flw	ft8,12(sp)
    27d4:	6ea2                	flw	ft9,8(sp)
    27d6:	6f12                	flw	ft10,4(sp)
    27d8:	6f82                	flw	ft11,0(sp)
    27da:	6125                	addi	sp,sp,96
    27dc:	30200073          	mret
    27e0:	52500593          	li	a1,1317
    27e4:	40014437          	lui	s0,0x40014
    27e8:	80040513          	addi	a0,s0,-2048 # 40013800 <_eusrstack+0x2000b800>
    27ec:	f95fe0ef          	jal	ra,1780 <USART_ClearITPendingBit>
    27f0:	80040513          	addi	a0,s0,-2048
    27f4:	f35fe0ef          	jal	ra,1728 <USART_ReceiveData>
    27f8:	0ff57513          	andi	a0,a0,255
    27fc:	8451c783          	lbu	a5,-1979(gp) # 200000b5 <USART1_IRQHandler::task_num>
    2800:	4705                	li	a4,1
    2802:	04e78263          	beq	a5,a4,2846 <USART1_IRQHandler+0xd4>
    2806:	01879713          	slli	a4,a5,0x18
    280a:	8761                	srai	a4,a4,0x18
    280c:	c315                	beqz	a4,2830 <USART1_IRQHandler+0xbe>
    280e:	4709                	li	a4,2
    2810:	fae790e3          	bne	a5,a4,27b0 <USART1_IRQHandler+0x3e>
    2814:	8441c783          	lbu	a5,-1980(gp) # 200000b4 <USART1_IRQHandler::index>
    2818:	4725                	li	a4,9
    281a:	04f76163          	bltu	a4,a5,285c <USART1_IRQHandler+0xea>
    281e:	00178713          	addi	a4,a5,1 # 50000001 <_eusrstack+0x2fff8001>
    2822:	84e18223          	sb	a4,-1980(gp) # 200000b4 <USART1_IRQHandler::index>
    2826:	98418713          	addi	a4,gp,-1660 # 200001f4 <USART_Rbuffer>
    282a:	97ba                	add	a5,a5,a4
    282c:	a388                	fsd	fa0,0(a5)
    282e:	b749                	j	27b0 <USART1_IRQHandler+0x3e>
    2830:	0aa00713          	li	a4,170
    2834:	00e50563          	beq	a0,a4,283e <USART1_IRQHandler+0xcc>
    2838:	840182a3          	sb	zero,-1979(gp) # 200000b5 <USART1_IRQHandler::task_num>
    283c:	bf95                	j	27b0 <USART1_IRQHandler+0x3e>
    283e:	0785                	addi	a5,a5,1
    2840:	84f182a3          	sb	a5,-1979(gp) # 200000b5 <USART1_IRQHandler::task_num>
    2844:	b7b5                	j	27b0 <USART1_IRQHandler+0x3e>
    2846:	0ab00713          	li	a4,171
    284a:	00e50563          	beq	a0,a4,2854 <USART1_IRQHandler+0xe2>
    284e:	840182a3          	sb	zero,-1979(gp) # 200000b5 <USART1_IRQHandler::task_num>
    2852:	bfb9                	j	27b0 <USART1_IRQHandler+0x3e>
    2854:	0785                	addi	a5,a5,1
    2856:	84f182a3          	sb	a5,-1979(gp) # 200000b5 <USART1_IRQHandler::task_num>
    285a:	bf99                	j	27b0 <USART1_IRQHandler+0x3e>
    285c:	84018223          	sb	zero,-1980(gp) # 200000b4 <USART1_IRQHandler::index>
    2860:	840182a3          	sb	zero,-1979(gp) # 200000b5 <USART1_IRQHandler::task_num>
    2864:	98418793          	addi	a5,gp,-1660 # 200001f4 <USART_Rbuffer>
    2868:	2398                	fld	fa4,0(a5)
    286a:	84818693          	addi	a3,gp,-1976 # 200000b8 <p1>
    286e:	a298                	fsd	fa4,0(a3)
    2870:	3398                	fld	fa4,32(a5)
    2872:	b298                	fsd	fa4,32(a3)
    2874:	23b8                	fld	fa4,64(a5)
    2876:	a2b8                	fsd	fa4,64(a3)
    2878:	33b8                	fld	fa4,96(a5)
    287a:	b2b8                	fsd	fa4,96(a3)
    287c:	23d0                	fld	fa2,128(a5)
    287e:	84c18713          	addi	a4,gp,-1972 # 200000bc <p2>
    2882:	a310                	fsd	fa2,0(a4)
    2884:	33d0                	fld	fa2,160(a5)
    2886:	b310                	fsd	fa2,32(a4)
    2888:	23f0                	fld	fa2,192(a5)
    288a:	a330                	fsd	fa2,64(a4)
    288c:	33f0                	fld	fa2,224(a5)
    288e:	b330                	fsd	fa2,96(a4)
    2890:	279c                	fld	fa5,8(a5)
    2892:	84f18323          	sb	a5,-1978(gp) # 200000b6 <mode>
    2896:	629c                	flw	fa5,0(a3)
    2898:	00006797          	auipc	a5,0x6
    289c:	3747a707          	flw	fa4,884(a5) # 8c0c <MySerNumInfo+0xac>
    28a0:	08e7f7d3          	fsub.s	fa5,fa5,fa4
    28a4:	84f1a827          	fsw	fa5,-1968(gp) # 200000c0 <pos1>
    28a8:	6318                	flw	fa4,0(a4)
    28aa:	00006797          	auipc	a5,0x6
    28ae:	3667a687          	flw	fa3,870(a5) # 8c10 <MySerNumInfo+0xb0>
    28b2:	00d77753          	fadd.s	fa4,fa4,fa3
    28b6:	84e1aa27          	fsw	fa4,-1964(gp) # 200000c4 <pos2>
    28ba:	f00006d3          	fmv.w.x	fa3,zero
    28be:	a0d797d3          	flt.s	a5,fa5,fa3
    28c2:	eb99                	bnez	a5,28d8 <USART1_IRQHandler+0x166>
    28c4:	00006797          	auipc	a5,0x6
    28c8:	3507a687          	flw	fa3,848(a5) # 8c14 <MySerNumInfo+0xb4>
    28cc:	a0f697d3          	flt.s	a5,fa3,fa5
    28d0:	c799                	beqz	a5,28de <USART1_IRQHandler+0x16c>
    28d2:	84d1a827          	fsw	fa3,-1968(gp) # 200000c0 <pos1>
    28d6:	a021                	j	28de <USART1_IRQHandler+0x16c>
    28d8:	85018793          	addi	a5,gp,-1968 # 200000c0 <pos1>
    28dc:	e394                	fsw	fa3,0(a5)
    28de:	00006797          	auipc	a5,0x6
    28e2:	33a7a787          	flw	fa5,826(a5) # 8c18 <MySerNumInfo+0xb8>
    28e6:	a0f717d3          	flt.s	a5,fa4,fa5
    28ea:	cb81                	beqz	a5,28fa <USART1_IRQHandler+0x188>
    28ec:	84f1aa27          	fsw	fa5,-1964(gp) # 200000c4 <pos2>
    28f0:	8541a787          	flw	fa5,-1964(gp) # 200000c4 <pos2>
    28f4:	1ef1a427          	fsw	fa5,488(gp) # 20000a58 <__global_pointer$+0x1e8>
    28f8:	bd65                	j	27b0 <USART1_IRQHandler+0x3e>
    28fa:	f00007d3          	fmv.w.x	fa5,zero
    28fe:	a0e797d3          	flt.s	a5,fa5,fa4
    2902:	d7fd                	beqz	a5,28f0 <USART1_IRQHandler+0x17e>
    2904:	85418793          	addi	a5,gp,-1964 # 200000c4 <pos2>
    2908:	e39c                	fsw	fa5,0(a5)
    290a:	b7dd                	j	28f0 <USART1_IRQHandler+0x17e>

0000290c <ADC1_2_IRQHandler>:
    290c:	7159                	addi	sp,sp,-112
    290e:	d6a2                	sw	s0,108(sp)
    2910:	ee82                	fsw	ft0,92(sp)
    2912:	ec86                	fsw	ft1,88(sp)
    2914:	ea8a                	fsw	ft2,84(sp)
    2916:	e88e                	fsw	ft3,80(sp)
    2918:	e692                	fsw	ft4,76(sp)
    291a:	e496                	fsw	ft5,72(sp)
    291c:	e29a                	fsw	ft6,68(sp)
    291e:	e09e                	fsw	ft7,64(sp)
    2920:	fe2a                	fsw	fa0,60(sp)
    2922:	fc2e                	fsw	fa1,56(sp)
    2924:	fa32                	fsw	fa2,52(sp)
    2926:	f836                	fsw	fa3,48(sp)
    2928:	f63a                	fsw	fa4,44(sp)
    292a:	f43e                	fsw	fa5,40(sp)
    292c:	f242                	fsw	fa6,36(sp)
    292e:	f046                	fsw	fa7,32(sp)
    2930:	ee72                	fsw	ft8,28(sp)
    2932:	ec76                	fsw	ft9,24(sp)
    2934:	ea7a                	fsw	ft10,20(sp)
    2936:	e87e                	fsw	ft11,16(sp)
    2938:	1fffe797          	auipc	a5,0x1fffe
    293c:	94878793          	addi	a5,a5,-1720 # 20000280 <motor>
    2940:	6807a787          	flw	fa5,1664(a5)
    2944:	9ec18413          	addi	s0,gp,-1556 # 2000025c <vofa_float>
    2948:	e01c                	fsw	fa5,0(s0)
    294a:	6507a787          	flw	fa5,1616(a5)
    294e:	e05c                	fsw	fa5,4(s0)
    2950:	6547a787          	flw	fa5,1620(a5)
    2954:	e41c                	fsw	fa5,8(s0)
    2956:	6587a787          	flw	fa5,1624(a5)
    295a:	e45c                	fsw	fa5,12(s0)
    295c:	70c7a787          	flw	fa5,1804(a5)
    2960:	e81c                	fsw	fa5,16(s0)
    2962:	7307a787          	flw	fa5,1840(a5)
    2966:	e85c                	fsw	fa5,20(s0)
    2968:	6d87a787          	flw	fa5,1752(a5)
    296c:	ec1c                	fsw	fa5,24(s0)
    296e:	00042e23          	sw	zero,28(s0)
    2972:	40006537          	lui	a0,0x40006
    2976:	40050513          	addi	a0,a0,1024 # 40006400 <_eusrstack+0x1fffe400>
    297a:	f1dfd0ef          	jal	ra,896 <CAN_GetLastErrorCode>
    297e:	d01577d3          	fcvt.s.wu	fa5,a0
    2982:	e0078553          	fmv.x.w	a0,fa5
    2986:	f01c                	fsw	fa5,32(s0)
    2988:	9c418593          	addi	a1,gp,-1596 # 20000234 <vofa_data>
    298c:	00042e03          	lw	t3,0(s0)
    2990:	00442303          	lw	t1,4(s0)
    2994:	00842883          	lw	a7,8(s0)
    2998:	00c42803          	lw	a6,12(s0)
    299c:	4810                	lw	a2,16(s0)
    299e:	4854                	lw	a3,20(s0)
    29a0:	4c18                	lw	a4,24(s0)
    29a2:	4c5c                	lw	a5,28(s0)
    29a4:	01c5a023          	sw	t3,0(a1)
    29a8:	0065a223          	sw	t1,4(a1)
    29ac:	0115a423          	sw	a7,8(a1)
    29b0:	0105a623          	sw	a6,12(a1)
    29b4:	c990                	sw	a2,16(a1)
    29b6:	c9d4                	sw	a3,20(a1)
    29b8:	cd98                	sw	a4,24(a1)
    29ba:	cddc                	sw	a5,28(a1)
    29bc:	d188                	sw	a0,32(a1)
    29be:	f8000793          	li	a5,-128
    29c2:	02f58323          	sb	a5,38(a1)
    29c6:	07f00793          	li	a5,127
    29ca:	02f583a3          	sb	a5,39(a1)
    29ce:	4681                	li	a3,0
    29d0:	02800613          	li	a2,40
    29d4:	450d                	li	a0,3
    29d6:	eb9fe0ef          	jal	ra,188e <USBFS_Endp_DataUp>
    29da:	4591                	li	a1,4
    29dc:	40012537          	lui	a0,0x40012
    29e0:	40050513          	addi	a0,a0,1024 # 40012400 <_eusrstack+0x2000a400>
    29e4:	adffd0ef          	jal	ra,4c2 <ADC_GetFlagStatus>
    29e8:	c529                	beqz	a0,2a32 <ADC1_2_IRQHandler+0x126>
    29ea:	400137b7          	lui	a5,0x40013
    29ee:	c0078793          	addi	a5,a5,-1024 # 40012c00 <_eusrstack+0x2000ac00>
    29f2:	0407d783          	lhu	a5,64(a5)
    29f6:	07c2                	slli	a5,a5,0x10
    29f8:	83c1                	srli	a5,a5,0x10
    29fa:	4705                	li	a4,1
    29fc:	06e78363          	beq	a5,a4,2a62 <ADC1_2_IRQHandler+0x156>
    2a00:	400137b7          	lui	a5,0x40013
    2a04:	c0078793          	addi	a5,a5,-1024 # 40012c00 <_eusrstack+0x2000ac00>
    2a08:	0407d783          	lhu	a5,64(a5)
    2a0c:	07c2                	slli	a5,a5,0x10
    2a0e:	83c1                	srli	a5,a5,0x10
    2a10:	d007f753          	fcvt.s.w	fa4,a5
    2a14:	00006797          	auipc	a5,0x6
    2a18:	1e87a787          	flw	fa5,488(a5) # 8bfc <MySerNumInfo+0x9c>
    2a1c:	a0f727d3          	feq.s	a5,fa4,fa5
    2a20:	48079163          	bnez	a5,2ea2 <ADC1_2_IRQHandler+0x596>
    2a24:	4591                	li	a1,4
    2a26:	40012537          	lui	a0,0x40012
    2a2a:	40050513          	addi	a0,a0,1024 # 40012400 <_eusrstack+0x2000a400>
    2a2e:	aa3fd0ef          	jal	ra,4d0 <ADC_ClearFlag>
    2a32:	5436                	lw	s0,108(sp)
    2a34:	6076                	flw	ft0,92(sp)
    2a36:	60e6                	flw	ft1,88(sp)
    2a38:	6156                	flw	ft2,84(sp)
    2a3a:	61c6                	flw	ft3,80(sp)
    2a3c:	6236                	flw	ft4,76(sp)
    2a3e:	62a6                	flw	ft5,72(sp)
    2a40:	6316                	flw	ft6,68(sp)
    2a42:	6386                	flw	ft7,64(sp)
    2a44:	7572                	flw	fa0,60(sp)
    2a46:	75e2                	flw	fa1,56(sp)
    2a48:	7652                	flw	fa2,52(sp)
    2a4a:	76c2                	flw	fa3,48(sp)
    2a4c:	7732                	flw	fa4,44(sp)
    2a4e:	77a2                	flw	fa5,40(sp)
    2a50:	7812                	flw	fa6,36(sp)
    2a52:	7882                	flw	fa7,32(sp)
    2a54:	6e72                	flw	ft8,28(sp)
    2a56:	6ee2                	flw	ft9,24(sp)
    2a58:	6f52                	flw	ft10,20(sp)
    2a5a:	6fc2                	flw	ft11,16(sp)
    2a5c:	6165                	addi	sp,sp,112
    2a5e:	30200073          	mret
    2a62:	400137b7          	lui	a5,0x40013
    2a66:	6705                	lui	a4,0x1
    2a68:	b3e70713          	addi	a4,a4,-1218 # b3e <GPIO_Init+0xbe>
    2a6c:	c4e79023          	sh	a4,-960(a5) # 40012c40 <_eusrstack+0x2000ac40>
    2a70:	400127b7          	lui	a5,0x40012
    2a74:	4407a583          	lw	a1,1088(a5) # 40012440 <_eusrstack+0x2000a440>
    2a78:	4447a603          	lw	a2,1092(a5)
    2a7c:	4487a683          	lw	a3,1096(a5)
    2a80:	06c2                	slli	a3,a3,0x10
    2a82:	82c1                	srli	a3,a3,0x10
    2a84:	0642                	slli	a2,a2,0x10
    2a86:	8241                	srli	a2,a2,0x10
    2a88:	05c2                	slli	a1,a1,0x10
    2a8a:	81c1                	srli	a1,a1,0x10
    2a8c:	1fffd517          	auipc	a0,0x1fffd
    2a90:	7f450513          	addi	a0,a0,2036 # 20000280 <motor>
    2a94:	70f000ef          	jal	ra,39a2 <Motor::measure_currents(unsigned short, unsigned short, unsigned short)>
    2a98:	1fffd797          	auipc	a5,0x1fffd
    2a9c:	7e878793          	addi	a5,a5,2024 # 20000280 <motor>
    2aa0:	6507a707          	flw	fa4,1616(a5)
    2aa4:	6547a787          	flw	fa5,1620(a5)
    2aa8:	6587a607          	flw	fa2,1624(a5)
    2aac:	00c7f6d3          	fadd.s	fa3,fa5,fa2
    2ab0:	00006717          	auipc	a4,0x6
    2ab4:	12c72587          	flw	fa1,300(a4) # 8bdc <MySerNumInfo+0x7c>
    2ab8:	10b6f6d3          	fmul.s	fa3,fa3,fa1
    2abc:	08d77753          	fsub.s	fa4,fa4,fa3
    2ac0:	00006717          	auipc	a4,0x6
    2ac4:	12072687          	flw	fa3,288(a4) # 8be0 <MySerNumInfo+0x80>
    2ac8:	10d77753          	fmul.s	fa4,fa4,fa3
    2acc:	08c7f7d3          	fsub.s	fa5,fa5,fa2
    2ad0:	00006717          	auipc	a4,0x6
    2ad4:	11472607          	flw	fa2,276(a4) # 8be4 <MySerNumInfo+0x84>
    2ad8:	10c7f7d3          	fmul.s	fa5,fa5,fa2
    2adc:	10d7f7d3          	fmul.s	fa5,fa5,fa3
    2ae0:	66e7ac27          	fsw	fa4,1656(a5)
    2ae4:	66f7ae27          	fsw	fa5,1660(a5)
    2ae8:	6847a783          	lw	a5,1668(a5)
    2aec:	4715                	li	a4,5
    2aee:	20f76063          	bltu	a4,a5,2cee <ADC1_2_IRQHandler+0x3e2>
    2af2:	078a                	slli	a5,a5,0x2
    2af4:	00006717          	auipc	a4,0x6
    2af8:	0b470713          	addi	a4,a4,180 # 8ba8 <MySerNumInfo+0x48>
    2afc:	97ba                	add	a5,a5,a4
    2afe:	439c                	lw	a5,0(a5)
    2b00:	97ba                	add	a5,a5,a4
    2b02:	8782                	jr	a5
    2b04:	1fffd517          	auipc	a0,0x1fffd
    2b08:	77c50513          	addi	a0,a0,1916 # 20000280 <motor>
    2b0c:	418010ef          	jal	ra,3f24 <Motor::shut()>
    2b10:	aaf9                	j	2cee <ADC1_2_IRQHandler+0x3e2>
    2b12:	1fffd517          	auipc	a0,0x1fffd
    2b16:	76e50513          	addi	a0,a0,1902 # 20000280 <motor>
    2b1a:	7ff010ef          	jal	ra,4b18 <Motor::go_zero()>
    2b1e:	aac1                	j	2cee <ADC1_2_IRQHandler+0x3e2>
    2b20:	1fffd517          	auipc	a0,0x1fffd
    2b24:	76050513          	addi	a0,a0,1888 # 20000280 <motor>
    2b28:	76b000ef          	jal	ra,3a92 <Motor::measureResistance()>
    2b2c:	a2c9                	j	2cee <ADC1_2_IRQHandler+0x3e2>
    2b2e:	85818793          	addi	a5,gp,-1960 # 200000c8 <timestamp_>
    2b32:	438c                	lw	a1,0(a5)
    2b34:	1fffd517          	auipc	a0,0x1fffd
    2b38:	74c50513          	addi	a0,a0,1868 # 20000280 <motor>
    2b3c:	172010ef          	jal	ra,3cae <Motor::measureInductance(unsigned long)>
    2b40:	a27d                	j	2cee <ADC1_2_IRQHandler+0x3e2>
    2b42:	85818793          	addi	a5,gp,-1960 # 200000c8 <timestamp_>
    2b46:	438c                	lw	a1,0(a5)
    2b48:	1fffd517          	auipc	a0,0x1fffd
    2b4c:	73850513          	addi	a0,a0,1848 # 20000280 <motor>
    2b50:	670010ef          	jal	ra,41c0 <Motor::measureEncoder(unsigned long)>
    2b54:	aa69                	j	2cee <ADC1_2_IRQHandler+0x3e2>
    2b56:	1fffe797          	auipc	a5,0x1fffe
    2b5a:	72a78793          	addi	a5,a5,1834 # 20001280 <_ebss+0x7d0>
    2b5e:	8207a783          	lw	a5,-2016(a5)
    2b62:	c7d1                	beqz	a5,2bee <ADC1_2_IRQHandler+0x2e2>
    2b64:	4705                	li	a4,1
    2b66:	00e79b63          	bne	a5,a4,2b7c <ADC1_2_IRQHandler+0x270>
    2b6a:	85818793          	addi	a5,gp,-1960 # 200000c8 <timestamp_>
    2b6e:	438c                	lw	a1,0(a5)
    2b70:	1fffd517          	auipc	a0,0x1fffd
    2b74:	71050513          	addi	a0,a0,1808 # 20000280 <motor>
    2b78:	695010ef          	jal	ra,4a0c <Motor::positionLoop(unsigned long)>
    2b7c:	1a018613          	addi	a2,gp,416 # 20000a10 <__global_pointer$+0x1a0>
    2b80:	85818793          	addi	a5,gp,-1960 # 200000c8 <timestamp_>
    2b84:	438c                	lw	a1,0(a5)
    2b86:	1fffd517          	auipc	a0,0x1fffd
    2b8a:	6fa50513          	addi	a0,a0,1786 # 20000280 <motor>
    2b8e:	233010ef          	jal	ra,45c0 <Motor::get_alpha_beta_output(unsigned long, Motor::float2D*)>
    2b92:	1fffd797          	auipc	a5,0x1fffd
    2b96:	6ee78793          	addi	a5,a5,1774 # 20000280 <motor>
    2b9a:	7907a707          	flw	fa4,1936(a5)
    2b9e:	7947a787          	flw	fa5,1940(a5)
    2ba2:	f00006d3          	fmv.w.x	fa3,zero
    2ba6:	a0f687d3          	fle.s	a5,fa3,fa5
    2baa:	c3c9                	beqz	a5,2c2c <ADC1_2_IRQHandler+0x320>
    2bac:	a0e687d3          	fle.s	a5,fa3,fa4
    2bb0:	cfa9                	beqz	a5,2c0a <ADC1_2_IRQHandler+0x2fe>
    2bb2:	00006797          	auipc	a5,0x6
    2bb6:	0367a687          	flw	fa3,54(a5) # 8be8 <MySerNumInfo+0x88>
    2bba:	10d7f6d3          	fmul.s	fa3,fa5,fa3
    2bbe:	a0d717d3          	flt.s	a5,fa4,fa3
    2bc2:	c3a1                	beqz	a5,2c02 <ADC1_2_IRQHandler+0x2f6>
    2bc4:	4789                	li	a5,2
    2bc6:	1af1aa23          	sw	a5,436(gp) # 20000a24 <__global_pointer$+0x1b4>
    2bca:	1fffd797          	auipc	a5,0x1fffd
    2bce:	6b678793          	addi	a5,a5,1718 # 20000280 <motor>
    2bd2:	7a47a783          	lw	a5,1956(a5)
    2bd6:	4719                	li	a4,6
    2bd8:	0ef76b63          	bltu	a4,a5,2cce <ADC1_2_IRQHandler+0x3c2>
    2bdc:	078a                	slli	a5,a5,0x2
    2bde:	00006717          	auipc	a4,0x6
    2be2:	fe270713          	addi	a4,a4,-30 # 8bc0 <MySerNumInfo+0x60>
    2be6:	97ba                	add	a5,a5,a4
    2be8:	439c                	lw	a5,0(a5)
    2bea:	97ba                	add	a5,a5,a4
    2bec:	8782                	jr	a5
    2bee:	85818793          	addi	a5,gp,-1960 # 200000c8 <timestamp_>
    2bf2:	438c                	lw	a1,0(a5)
    2bf4:	1fffd517          	auipc	a0,0x1fffd
    2bf8:	68c50513          	addi	a0,a0,1676 # 20000280 <motor>
    2bfc:	4d5010ef          	jal	ra,48d0 <Motor::velovityLoop(unsigned long)>
    2c00:	bfb5                	j	2b7c <ADC1_2_IRQHandler+0x270>
    2c02:	4785                	li	a5,1
    2c04:	1af1aa23          	sw	a5,436(gp) # 20000a24 <__global_pointer$+0x1b4>
    2c08:	b7c9                	j	2bca <ADC1_2_IRQHandler+0x2be>
    2c0a:	00006797          	auipc	a5,0x6
    2c0e:	fe27a687          	flw	fa3,-30(a5) # 8bec <MySerNumInfo+0x8c>
    2c12:	10d7f6d3          	fmul.s	fa3,fa5,fa3
    2c16:	a0d717d3          	flt.s	a5,fa4,fa3
    2c1a:	c789                	beqz	a5,2c24 <ADC1_2_IRQHandler+0x318>
    2c1c:	478d                	li	a5,3
    2c1e:	1af1aa23          	sw	a5,436(gp) # 20000a24 <__global_pointer$+0x1b4>
    2c22:	b765                	j	2bca <ADC1_2_IRQHandler+0x2be>
    2c24:	4789                	li	a5,2
    2c26:	1af1aa23          	sw	a5,436(gp) # 20000a24 <__global_pointer$+0x1b4>
    2c2a:	b745                	j	2bca <ADC1_2_IRQHandler+0x2be>
    2c2c:	f00006d3          	fmv.w.x	fa3,zero
    2c30:	a0e687d3          	fle.s	a5,fa3,fa4
    2c34:	c395                	beqz	a5,2c58 <ADC1_2_IRQHandler+0x34c>
    2c36:	00006797          	auipc	a5,0x6
    2c3a:	fb67a687          	flw	fa3,-74(a5) # 8bec <MySerNumInfo+0x8c>
    2c3e:	10d7f6d3          	fmul.s	fa3,fa5,fa3
    2c42:	a0d717d3          	flt.s	a5,fa4,fa3
    2c46:	c789                	beqz	a5,2c50 <ADC1_2_IRQHandler+0x344>
    2c48:	4795                	li	a5,5
    2c4a:	1af1aa23          	sw	a5,436(gp) # 20000a24 <__global_pointer$+0x1b4>
    2c4e:	bfb5                	j	2bca <ADC1_2_IRQHandler+0x2be>
    2c50:	4799                	li	a5,6
    2c52:	1af1aa23          	sw	a5,436(gp) # 20000a24 <__global_pointer$+0x1b4>
    2c56:	bf95                	j	2bca <ADC1_2_IRQHandler+0x2be>
    2c58:	00006797          	auipc	a5,0x6
    2c5c:	f907a687          	flw	fa3,-112(a5) # 8be8 <MySerNumInfo+0x88>
    2c60:	10d7f6d3          	fmul.s	fa3,fa5,fa3
    2c64:	a0d717d3          	flt.s	a5,fa4,fa3
    2c68:	c789                	beqz	a5,2c72 <ADC1_2_IRQHandler+0x366>
    2c6a:	4791                	li	a5,4
    2c6c:	1af1aa23          	sw	a5,436(gp) # 20000a24 <__global_pointer$+0x1b4>
    2c70:	bfa9                	j	2bca <ADC1_2_IRQHandler+0x2be>
    2c72:	4795                	li	a5,5
    2c74:	1af1aa23          	sw	a5,436(gp) # 20000a24 <__global_pointer$+0x1b4>
    2c78:	bf89                	j	2bca <ADC1_2_IRQHandler+0x2be>
    2c7a:	00006797          	auipc	a5,0x6
    2c7e:	f6e7a687          	flw	fa3,-146(a5) # 8be8 <MySerNumInfo+0x88>
    2c82:	10d7f6d3          	fmul.s	fa3,fa5,fa3
    2c86:	08d77753          	fsub.s	fa4,fa4,fa3
    2c8a:	00006797          	auipc	a5,0x6
    2c8e:	f667a687          	flw	fa3,-154(a5) # 8bf0 <MySerNumInfo+0x90>
    2c92:	10d7f7d3          	fmul.s	fa5,fa5,fa3
    2c96:	00006797          	auipc	a5,0x6
    2c9a:	f5e7a687          	flw	fa3,-162(a5) # 8bf4 <MySerNumInfo+0x94>
    2c9e:	08e6f6d3          	fsub.s	fa3,fa3,fa4
    2ca2:	08f6f6d3          	fsub.s	fa3,fa3,fa5
    2ca6:	00006797          	auipc	a5,0x6
    2caa:	f367a607          	flw	fa2,-202(a5) # 8bdc <MySerNumInfo+0x7c>
    2cae:	10c6f6d3          	fmul.s	fa3,fa3,fa2
    2cb2:	1fffd797          	auipc	a5,0x1fffd
    2cb6:	5ce78793          	addi	a5,a5,1486 # 20000280 <motor>
    2cba:	78d7ac27          	fsw	fa3,1944(a5)
    2cbe:	00d77753          	fadd.s	fa4,fa4,fa3
    2cc2:	78e7ae27          	fsw	fa4,1948(a5)
    2cc6:	00e7f7d3          	fadd.s	fa5,fa5,fa4
    2cca:	7af7a027          	fsw	fa5,1952(a5)
    2cce:	1fffd797          	auipc	a5,0x1fffd
    2cd2:	5b278793          	addi	a5,a5,1458 # 20000280 <motor>
    2cd6:	7987a787          	flw	fa5,1944(a5)
    2cda:	64f7ae27          	fsw	fa5,1628(a5)
    2cde:	79c7a787          	flw	fa5,1948(a5)
    2ce2:	66f7a027          	fsw	fa5,1632(a5)
    2ce6:	7a07a787          	flw	fa5,1952(a5)
    2cea:	66f7a227          	fsw	fa5,1636(a5)
    2cee:	1fffd517          	auipc	a0,0x1fffd
    2cf2:	59250513          	addi	a0,a0,1426 # 20000280 <motor>
    2cf6:	3c5000ef          	jal	ra,38ba <Motor::apply_pwm_timings()>
    2cfa:	b32d                	j	2a24 <ADC1_2_IRQHandler+0x118>
    2cfc:	00006797          	auipc	a5,0x6
    2d00:	eec7a687          	flw	fa3,-276(a5) # 8be8 <MySerNumInfo+0x88>
    2d04:	10d7f7d3          	fmul.s	fa5,fa5,fa3
    2d08:	00f776d3          	fadd.s	fa3,fa4,fa5
    2d0c:	08e7f7d3          	fsub.s	fa5,fa5,fa4
    2d10:	00006797          	auipc	a5,0x6
    2d14:	ee47a707          	flw	fa4,-284(a5) # 8bf4 <MySerNumInfo+0x94>
    2d18:	08d77753          	fsub.s	fa4,fa4,fa3
    2d1c:	08f77753          	fsub.s	fa4,fa4,fa5
    2d20:	00006797          	auipc	a5,0x6
    2d24:	ebc7a607          	flw	fa2,-324(a5) # 8bdc <MySerNumInfo+0x7c>
    2d28:	10c77753          	fmul.s	fa4,fa4,fa2
    2d2c:	1fffd797          	auipc	a5,0x1fffd
    2d30:	55478793          	addi	a5,a5,1364 # 20000280 <motor>
    2d34:	78e7ae27          	fsw	fa4,1948(a5)
    2d38:	00e7f7d3          	fadd.s	fa5,fa5,fa4
    2d3c:	78f7ac27          	fsw	fa5,1944(a5)
    2d40:	00f6f7d3          	fadd.s	fa5,fa3,fa5
    2d44:	7af7a027          	fsw	fa5,1952(a5)
    2d48:	b759                	j	2cce <ADC1_2_IRQHandler+0x3c2>
    2d4a:	00006797          	auipc	a5,0x6
    2d4e:	ea67a687          	flw	fa3,-346(a5) # 8bf0 <MySerNumInfo+0x90>
    2d52:	10d7f6d3          	fmul.s	fa3,fa5,fa3
    2d56:	20e71753          	fneg.s	fa4,fa4
    2d5a:	00006797          	auipc	a5,0x6
    2d5e:	e8e7a607          	flw	fa2,-370(a5) # 8be8 <MySerNumInfo+0x88>
    2d62:	10c7f7d3          	fmul.s	fa5,fa5,fa2
    2d66:	08f777d3          	fsub.s	fa5,fa4,fa5
    2d6a:	00006797          	auipc	a5,0x6
    2d6e:	e8a7a707          	flw	fa4,-374(a5) # 8bf4 <MySerNumInfo+0x94>
    2d72:	08d77753          	fsub.s	fa4,fa4,fa3
    2d76:	08f77753          	fsub.s	fa4,fa4,fa5
    2d7a:	00006797          	auipc	a5,0x6
    2d7e:	e627a607          	flw	fa2,-414(a5) # 8bdc <MySerNumInfo+0x7c>
    2d82:	10c77753          	fmul.s	fa4,fa4,fa2
    2d86:	1fffd797          	auipc	a5,0x1fffd
    2d8a:	4fa78793          	addi	a5,a5,1274 # 20000280 <motor>
    2d8e:	78e7ae27          	fsw	fa4,1948(a5)
    2d92:	00e6f753          	fadd.s	fa4,fa3,fa4
    2d96:	7ae7a027          	fsw	fa4,1952(a5)
    2d9a:	00e7f7d3          	fadd.s	fa5,fa5,fa4
    2d9e:	78f7ac27          	fsw	fa5,1944(a5)
    2da2:	b735                	j	2cce <ADC1_2_IRQHandler+0x3c2>
    2da4:	00006797          	auipc	a5,0x6
    2da8:	e447a687          	flw	fa3,-444(a5) # 8be8 <MySerNumInfo+0x88>
    2dac:	10d7f6d3          	fmul.s	fa3,fa5,fa3
    2db0:	08e6f753          	fsub.s	fa4,fa3,fa4
    2db4:	00006797          	auipc	a5,0x6
    2db8:	e447a687          	flw	fa3,-444(a5) # 8bf8 <MySerNumInfo+0x98>
    2dbc:	10d7f7d3          	fmul.s	fa5,fa5,fa3
    2dc0:	00006797          	auipc	a5,0x6
    2dc4:	e347a687          	flw	fa3,-460(a5) # 8bf4 <MySerNumInfo+0x94>
    2dc8:	08e6f6d3          	fsub.s	fa3,fa3,fa4
    2dcc:	08f6f6d3          	fsub.s	fa3,fa3,fa5
    2dd0:	00006797          	auipc	a5,0x6
    2dd4:	e0c7a607          	flw	fa2,-500(a5) # 8bdc <MySerNumInfo+0x7c>
    2dd8:	10c6f6d3          	fmul.s	fa3,fa3,fa2
    2ddc:	1fffd797          	auipc	a5,0x1fffd
    2de0:	4a478793          	addi	a5,a5,1188 # 20000280 <motor>
    2de4:	7ad7a027          	fsw	fa3,1952(a5)
    2de8:	00d7f7d3          	fadd.s	fa5,fa5,fa3
    2dec:	78f7ae27          	fsw	fa5,1948(a5)
    2df0:	00f77753          	fadd.s	fa4,fa4,fa5
    2df4:	78e7ac27          	fsw	fa4,1944(a5)
    2df8:	bdd9                	j	2cce <ADC1_2_IRQHandler+0x3c2>
    2dfa:	20e716d3          	fneg.s	fa3,fa4
    2dfe:	00006797          	auipc	a5,0x6
    2e02:	dea7a607          	flw	fa2,-534(a5) # 8be8 <MySerNumInfo+0x88>
    2e06:	10c7f7d3          	fmul.s	fa5,fa5,fa2
    2e0a:	08f6f6d3          	fsub.s	fa3,fa3,fa5
    2e0e:	08f777d3          	fsub.s	fa5,fa4,fa5
    2e12:	00006797          	auipc	a5,0x6
    2e16:	de27a707          	flw	fa4,-542(a5) # 8bf4 <MySerNumInfo+0x94>
    2e1a:	08d77753          	fsub.s	fa4,fa4,fa3
    2e1e:	08f77753          	fsub.s	fa4,fa4,fa5
    2e22:	00006797          	auipc	a5,0x6
    2e26:	dba7a607          	flw	fa2,-582(a5) # 8bdc <MySerNumInfo+0x7c>
    2e2a:	10c77753          	fmul.s	fa4,fa4,fa2
    2e2e:	1fffd797          	auipc	a5,0x1fffd
    2e32:	45278793          	addi	a5,a5,1106 # 20000280 <motor>
    2e36:	7ae7a027          	fsw	fa4,1952(a5)
    2e3a:	00e6f753          	fadd.s	fa4,fa3,fa4
    2e3e:	78e7ac27          	fsw	fa4,1944(a5)
    2e42:	00e7f7d3          	fadd.s	fa5,fa5,fa4
    2e46:	78f7ae27          	fsw	fa5,1948(a5)
    2e4a:	b551                	j	2cce <ADC1_2_IRQHandler+0x3c2>
    2e4c:	00006797          	auipc	a5,0x6
    2e50:	dac7a687          	flw	fa3,-596(a5) # 8bf8 <MySerNumInfo+0x98>
    2e54:	10d7f6d3          	fmul.s	fa3,fa5,fa3
    2e58:	00006797          	auipc	a5,0x6
    2e5c:	d907a607          	flw	fa2,-624(a5) # 8be8 <MySerNumInfo+0x88>
    2e60:	10c7f7d3          	fmul.s	fa5,fa5,fa2
    2e64:	00f777d3          	fadd.s	fa5,fa4,fa5
    2e68:	00006797          	auipc	a5,0x6
    2e6c:	d8c7a707          	flw	fa4,-628(a5) # 8bf4 <MySerNumInfo+0x94>
    2e70:	08d77753          	fsub.s	fa4,fa4,fa3
    2e74:	08f77753          	fsub.s	fa4,fa4,fa5
    2e78:	00006797          	auipc	a5,0x6
    2e7c:	d647a607          	flw	fa2,-668(a5) # 8bdc <MySerNumInfo+0x7c>
    2e80:	10c77753          	fmul.s	fa4,fa4,fa2
    2e84:	1fffd797          	auipc	a5,0x1fffd
    2e88:	3fc78793          	addi	a5,a5,1020 # 20000280 <motor>
    2e8c:	78e7ac27          	fsw	fa4,1944(a5)
    2e90:	00e7f7d3          	fadd.s	fa5,fa5,fa4
    2e94:	7af7a027          	fsw	fa5,1952(a5)
    2e98:	00f6f7d3          	fadd.s	fa5,fa3,fa5
    2e9c:	78f7ae27          	fsw	fa5,1948(a5)
    2ea0:	b53d                	j	2cce <ADC1_2_IRQHandler+0x3c2>
    2ea2:	400137b7          	lui	a5,0x40013
    2ea6:	4705                	li	a4,1
    2ea8:	c4e79023          	sh	a4,-960(a5) # 40012c40 <_eusrstack+0x2000ac40>
    2eac:	85818713          	addi	a4,gp,-1960 # 200000c8 <timestamp_>
    2eb0:	431c                	lw	a5,0(a4)
    2eb2:	0785                	addi	a5,a5,1
    2eb4:	c31c                	sw	a5,0(a4)
    2eb6:	1fffd517          	auipc	a0,0x1fffd
    2eba:	3ca50513          	addi	a0,a0,970 # 20000280 <motor>
    2ebe:	07c010ef          	jal	ra,3f3a <Motor::measurePhasePhaseVel()>
    2ec2:	40012737          	lui	a4,0x40012
    2ec6:	43c72783          	lw	a5,1084(a4) # 4001243c <_eusrstack+0x2000a43c>
    2eca:	07c2                	slli	a5,a5,0x10
    2ecc:	83c1                	srli	a5,a5,0x10
    2ece:	44072603          	lw	a2,1088(a4)
    2ed2:	1fffe697          	auipc	a3,0x1fffe
    2ed6:	3ae68693          	addi	a3,a3,942 # 20001280 <_ebss+0x7d0>
    2eda:	82c69423          	sh	a2,-2008(a3)
    2ede:	44472603          	lw	a2,1092(a4)
    2ee2:	40070713          	addi	a4,a4,1024
    2ee6:	82c69523          	sh	a2,-2006(a3)
    2eea:	4738                	lw	a4,72(a4)
    2eec:	82e69623          	sh	a4,-2004(a3)
    2ef0:	d017f7d3          	fcvt.s.wu	fa5,a5
    2ef4:	00006797          	auipc	a5,0x6
    2ef8:	d0c7a707          	flw	fa4,-756(a5) # 8c00 <MySerNumInfo+0xa0>
    2efc:	10e7f7d3          	fmul.s	fa5,fa5,fa4
    2f00:	00006797          	auipc	a5,0x6
    2f04:	d047a707          	flw	fa4,-764(a5) # 8c04 <MySerNumInfo+0xa4>
    2f08:	10e7f7d3          	fmul.s	fa5,fa5,fa4
    2f0c:	00006797          	auipc	a5,0x6
    2f10:	cfc7a707          	flw	fa4,-772(a5) # 8c08 <MySerNumInfo+0xa8>
    2f14:	10e7f7d3          	fmul.s	fa5,fa5,fa4
    2f18:	08f1a827          	fsw	fa5,144(gp) # 20000900 <__global_pointer$+0x90>
    2f1c:	b621                	j	2a24 <ADC1_2_IRQHandler+0x118>

00002f1e <TIM4_IRQHandler>:
    2f1e:	715d                	addi	sp,sp,-80
    2f20:	e682                	fsw	ft0,76(sp)
    2f22:	e486                	fsw	ft1,72(sp)
    2f24:	e28a                	fsw	ft2,68(sp)
    2f26:	e08e                	fsw	ft3,64(sp)
    2f28:	fe12                	fsw	ft4,60(sp)
    2f2a:	fc16                	fsw	ft5,56(sp)
    2f2c:	fa1a                	fsw	ft6,52(sp)
    2f2e:	f81e                	fsw	ft7,48(sp)
    2f30:	f62a                	fsw	fa0,44(sp)
    2f32:	f42e                	fsw	fa1,40(sp)
    2f34:	f232                	fsw	fa2,36(sp)
    2f36:	f036                	fsw	fa3,32(sp)
    2f38:	ee3a                	fsw	fa4,28(sp)
    2f3a:	ec3e                	fsw	fa5,24(sp)
    2f3c:	ea42                	fsw	fa6,20(sp)
    2f3e:	e846                	fsw	fa7,16(sp)
    2f40:	e672                	fsw	ft8,12(sp)
    2f42:	e476                	fsw	ft9,8(sp)
    2f44:	e27a                	fsw	ft10,4(sp)
    2f46:	e07e                	fsw	ft11,0(sp)
    2f48:	4585                	li	a1,1
    2f4a:	40001537          	lui	a0,0x40001
    2f4e:	80050513          	addi	a0,a0,-2048 # 40000800 <_eusrstack+0x1fff8800>
    2f52:	fb4fe0ef          	jal	ra,1706 <TIM_GetFlagStatus>
    2f56:	cd11                	beqz	a0,2f72 <TIM4_IRQHandler+0x54>
    2f58:	8461c783          	lbu	a5,-1978(gp) # 200000b6 <mode>
    2f5c:	c3b1                	beqz	a5,2fa0 <TIM4_IRQHandler+0x82>
    2f5e:	4705                	li	a4,1
    2f60:	04e78463          	beq	a5,a4,2fa8 <TIM4_IRQHandler+0x8a>
    2f64:	4585                	li	a1,1
    2f66:	40001537          	lui	a0,0x40001
    2f6a:	80050513          	addi	a0,a0,-2048 # 40000800 <_eusrstack+0x1fff8800>
    2f6e:	fa6fe0ef          	jal	ra,1714 <TIM_ClearFlag>
    2f72:	6036                	flw	ft0,76(sp)
    2f74:	60a6                	flw	ft1,72(sp)
    2f76:	6116                	flw	ft2,68(sp)
    2f78:	6186                	flw	ft3,64(sp)
    2f7a:	7272                	flw	ft4,60(sp)
    2f7c:	72e2                	flw	ft5,56(sp)
    2f7e:	7352                	flw	ft6,52(sp)
    2f80:	73c2                	flw	ft7,48(sp)
    2f82:	7532                	flw	fa0,44(sp)
    2f84:	75a2                	flw	fa1,40(sp)
    2f86:	7612                	flw	fa2,36(sp)
    2f88:	7682                	flw	fa3,32(sp)
    2f8a:	6772                	flw	fa4,28(sp)
    2f8c:	67e2                	flw	fa5,24(sp)
    2f8e:	6852                	flw	fa6,20(sp)
    2f90:	68c2                	flw	fa7,16(sp)
    2f92:	6e32                	flw	ft8,12(sp)
    2f94:	6ea2                	flw	ft9,8(sp)
    2f96:	6f12                	flw	ft10,4(sp)
    2f98:	6f82                	flw	ft11,0(sp)
    2f9a:	6161                	addi	sp,sp,80
    2f9c:	30200073          	mret
    2fa0:	4501                	li	a0,0
    2fa2:	faeff0ef          	jal	ra,2750 <xiaociandchongci>
    2fa6:	bf7d                	j	2f64 <TIM4_IRQHandler+0x46>
    2fa8:	4505                	li	a0,1
    2faa:	fa6ff0ef          	jal	ra,2750 <xiaociandchongci>
    2fae:	bf5d                	j	2f64 <TIM4_IRQHandler+0x46>

00002fb0 <USB_LP_CAN1_RX0_IRQHandler>:
    2fb0:	711d                	addi	sp,sp,-96
    2fb2:	cea2                	sw	s0,92(sp)
    2fb4:	e682                	fsw	ft0,76(sp)
    2fb6:	e486                	fsw	ft1,72(sp)
    2fb8:	e28a                	fsw	ft2,68(sp)
    2fba:	e08e                	fsw	ft3,64(sp)
    2fbc:	fe12                	fsw	ft4,60(sp)
    2fbe:	fc16                	fsw	ft5,56(sp)
    2fc0:	fa1a                	fsw	ft6,52(sp)
    2fc2:	f81e                	fsw	ft7,48(sp)
    2fc4:	f62a                	fsw	fa0,44(sp)
    2fc6:	f42e                	fsw	fa1,40(sp)
    2fc8:	f232                	fsw	fa2,36(sp)
    2fca:	f036                	fsw	fa3,32(sp)
    2fcc:	ee3a                	fsw	fa4,28(sp)
    2fce:	ec3e                	fsw	fa5,24(sp)
    2fd0:	ea42                	fsw	fa6,20(sp)
    2fd2:	e846                	fsw	fa7,16(sp)
    2fd4:	e672                	fsw	ft8,12(sp)
    2fd6:	e476                	fsw	ft9,8(sp)
    2fd8:	e27a                	fsw	ft10,4(sp)
    2fda:	e07e                	fsw	ft11,0(sp)
    2fdc:	4589                	li	a1,2
    2fde:	40006537          	lui	a0,0x40006
    2fe2:	40050513          	addi	a0,a0,1024 # 40006400 <_eusrstack+0x1fffe400>
    2fe6:	8cffd0ef          	jal	ra,8b4 <CAN_GetITStatus>
    2fea:	e121                	bnez	a0,302a <USB_LP_CAN1_RX0_IRQHandler+0x7a>
    2fec:	4589                	li	a1,2
    2fee:	40006537          	lui	a0,0x40006
    2ff2:	40050513          	addi	a0,a0,1024 # 40006400 <_eusrstack+0x1fffe400>
    2ff6:	9c9fd0ef          	jal	ra,9be <CAN_ClearITPendingBit>
    2ffa:	4476                	lw	s0,92(sp)
    2ffc:	6036                	flw	ft0,76(sp)
    2ffe:	60a6                	flw	ft1,72(sp)
    3000:	6116                	flw	ft2,68(sp)
    3002:	6186                	flw	ft3,64(sp)
    3004:	7272                	flw	ft4,60(sp)
    3006:	72e2                	flw	ft5,56(sp)
    3008:	7352                	flw	ft6,52(sp)
    300a:	73c2                	flw	ft7,48(sp)
    300c:	7532                	flw	fa0,44(sp)
    300e:	75a2                	flw	fa1,40(sp)
    3010:	7612                	flw	fa2,36(sp)
    3012:	7682                	flw	fa3,32(sp)
    3014:	6772                	flw	fa4,28(sp)
    3016:	67e2                	flw	fa5,24(sp)
    3018:	6852                	flw	fa6,20(sp)
    301a:	68c2                	flw	fa7,16(sp)
    301c:	6e32                	flw	ft8,12(sp)
    301e:	6ea2                	flw	ft9,8(sp)
    3020:	6f12                	flw	ft10,4(sp)
    3022:	6f82                	flw	ft11,0(sp)
    3024:	6125                	addi	sp,sp,96
    3026:	30200073          	mret
    302a:	97018413          	addi	s0,gp,-1680 # 200001e0 <CanRxStructure>
    302e:	8622                	mv	a2,s0
    3030:	4581                	li	a1,0
    3032:	40006537          	lui	a0,0x40006
    3036:	40050513          	addi	a0,a0,1024 # 40006400 <_eusrstack+0x1fffe400>
    303a:	fd2fd0ef          	jal	ra,80c <CAN_Receive>
    303e:	4018                	lw	a4,0(s0)
    3040:	4791                	li	a5,4
    3042:	faf715e3          	bne	a4,a5,2fec <USB_LP_CAN1_RX0_IRQHandler+0x3c>
    3046:	245c                	fld	fa5,136(s0)
    3048:	d017f7d3          	fcvt.s.wu	fa5,a5
    304c:	343c                	fld	fa5,104(s0)
    304e:	e399                	bnez	a5,3054 <USB_LP_CAN1_RX0_IRQHandler+0xa4>
    3050:	20f797d3          	fneg.s	fa5,fa5
    3054:	1cf1a427          	fsw	fa5,456(gp) # 20000a38 <__global_pointer$+0x1c8>
    3058:	bf51                	j	2fec <USB_LP_CAN1_RX0_IRQHandler+0x3c>

0000305a <__static_initialization_and_destruction_0(int, int)>:
    305a:	4785                	li	a5,1
    305c:	00f50363          	beq	a0,a5,3062 <__static_initialization_and_destruction_0(int, int)+0x8>
    3060:	8082                	ret
    3062:	67c1                	lui	a5,0x10
    3064:	17fd                	addi	a5,a5,-1
    3066:	fef59de3          	bne	a1,a5,3060 <__static_initialization_and_destruction_0(int, int)+0x6>
    306a:	1fffd797          	auipc	a5,0x1fffd
    306e:	21678793          	addi	a5,a5,534 # 20000280 <motor>
    3072:	00078423          	sb	zero,8(a5)
    3076:	4739                	li	a4,14
    3078:	c7d8                	sw	a4,12(a5)
    307a:	00006717          	auipc	a4,0x6
    307e:	bba72707          	flw	fa4,-1094(a4) # 8c34 <MySerNumInfo+0xd4>
    3082:	eb98                	fsw	fa4,16(a5)
    3084:	00006717          	auipc	a4,0x6
    3088:	bb472607          	flw	fa2,-1100(a4) # 8c38 <MySerNumInfo+0xd8>
    308c:	ebd0                	fsw	fa2,20(a5)
    308e:	0007ac23          	sw	zero,24(a5)
    3092:	0007ae23          	sw	zero,28(a5)
    3096:	00006717          	auipc	a4,0x6
    309a:	ba672787          	flw	fa5,-1114(a4) # 8c3c <MySerNumInfo+0xdc>
    309e:	f39c                	fsw	fa5,32(a5)
    30a0:	0207a223          	sw	zero,36(a5)
    30a4:	f798                	fsw	fa4,40(a5)
    30a6:	00006717          	auipc	a4,0x6
    30aa:	b9a72787          	flw	fa5,-1126(a4) # 8c40 <MySerNumInfo+0xe0>
    30ae:	f7dc                	fsw	fa5,44(a5)
    30b0:	00006717          	auipc	a4,0x6
    30b4:	b9472687          	flw	fa3,-1132(a4) # 8c44 <MySerNumInfo+0xe4>
    30b8:	fb94                	fsw	fa3,48(a5)
    30ba:	00006717          	auipc	a4,0x6
    30be:	b8e72587          	flw	fa1,-1138(a4) # 8c48 <MySerNumInfo+0xe8>
    30c2:	fbcc                	fsw	fa1,52(a5)
    30c4:	00006717          	auipc	a4,0x6
    30c8:	b8872787          	flw	fa5,-1144(a4) # 8c4c <MySerNumInfo+0xec>
    30cc:	ff9c                	fsw	fa5,56(a5)
    30ce:	00006717          	auipc	a4,0x6
    30d2:	b8272787          	flw	fa5,-1150(a4) # 8c50 <MySerNumInfo+0xf0>
    30d6:	ffdc                	fsw	fa5,60(a5)
    30d8:	e3b8                	fsw	fa4,64(a5)
    30da:	e3f8                	fsw	fa4,68(a5)
    30dc:	04078423          	sb	zero,72(a5)
    30e0:	e7f8                	fsw	fa4,76(a5)
    30e2:	00006717          	auipc	a4,0x6
    30e6:	b1272787          	flw	fa5,-1262(a4) # 8bf4 <MySerNumInfo+0x94>
    30ea:	ebbc                	fsw	fa5,80(a5)
    30ec:	4685                	li	a3,1
    30ee:	04d78a23          	sb	a3,84(a5)
    30f2:	04078aa3          	sb	zero,85(a5)
    30f6:	00006717          	auipc	a4,0x6
    30fa:	b5e72507          	flw	fa0,-1186(a4) # 8c54 <MySerNumInfo+0xf4>
    30fe:	efa8                	fsw	fa0,88(a5)
    3100:	00006717          	auipc	a4,0x6
    3104:	b5872507          	flw	fa0,-1192(a4) # 8c58 <MySerNumInfo+0xf8>
    3108:	efe8                	fsw	fa0,92(a5)
    310a:	00006717          	auipc	a4,0x6
    310e:	b5272507          	flw	fa0,-1198(a4) # 8c5c <MySerNumInfo+0xfc>
    3112:	f3a8                	fsw	fa0,96(a5)
    3114:	00006717          	auipc	a4,0x6
    3118:	b4c72507          	flw	fa0,-1204(a4) # 8c60 <MySerNumInfo+0x100>
    311c:	f3e8                	fsw	fa0,100(a5)
    311e:	0607a423          	sw	zero,104(a5)
    3122:	00006717          	auipc	a4,0x6
    3126:	b4272507          	flw	fa0,-1214(a4) # 8c64 <MySerNumInfo+0x104>
    312a:	f7e8                	fsw	fa0,108(a5)
    312c:	00006717          	auipc	a4,0x6
    3130:	b3c72507          	flw	fa0,-1220(a4) # 8c68 <MySerNumInfo+0x108>
    3134:	fba8                	fsw	fa0,112(a5)
    3136:	00006717          	auipc	a4,0x6
    313a:	b3672507          	flw	fa0,-1226(a4) # 8c6c <MySerNumInfo+0x10c>
    313e:	fbe8                	fsw	fa0,116(a5)
    3140:	ffac                	fsw	fa1,120(a5)
    3142:	0607ae23          	sw	zero,124(a5)
    3146:	0807a023          	sw	zero,128(a5)
    314a:	3e800713          	li	a4,1000
    314e:	08e7a223          	sw	a4,132(a5)
    3152:	0807a423          	sw	zero,136(a5)
    3156:	08078623          	sb	zero,140(a5)
    315a:	080786a3          	sb	zero,141(a5)
    315e:	4705                	li	a4,1
    3160:	08e7a823          	sw	a4,144(a5)
    3164:	08e78a23          	sb	a4,148(a5)
    3168:	08d78aa3          	sb	a3,149(a5)
    316c:	08078b23          	sb	zero,150(a5)
    3170:	08078ba3          	sb	zero,151(a5)
    3174:	0807ac23          	sw	zero,152(a5)
    3178:	62078e23          	sb	zero,1596(a5)
    317c:	62078ea3          	sb	zero,1597(a5)
    3180:	64d7a027          	fsw	fa3,1600(a5)
    3184:	64f7a227          	fsw	fa5,1604(a5)
    3188:	64f7a427          	fsw	fa5,1608(a5)
    318c:	64078623          	sb	zero,1612(a5)
    3190:	6407a823          	sw	zero,1616(a5)
    3194:	6407aa23          	sw	zero,1620(a5)
    3198:	6407ac23          	sw	zero,1624(a5)
    319c:	6407ae23          	sw	zero,1628(a5)
    31a0:	6607a023          	sw	zero,1632(a5)
    31a4:	6607a223          	sw	zero,1636(a5)
    31a8:	6607a423          	sw	zero,1640(a5)
    31ac:	66f7a627          	fsw	fa5,1644(a5)
    31b0:	6607a823          	sw	zero,1648(a5)
    31b4:	66d7aa27          	fsw	fa3,1652(a5)
    31b8:	6607ac23          	sw	zero,1656(a5)
    31bc:	6607ae23          	sw	zero,1660(a5)
    31c0:	00006697          	auipc	a3,0x6
    31c4:	ab06a687          	flw	fa3,-1360(a3) # 8c70 <MySerNumInfo+0x110>
    31c8:	68d7a027          	fsw	fa3,1664(a5)
    31cc:	6807a223          	sw	zero,1668(a5)
    31d0:	6807a423          	sw	zero,1672(a5)
    31d4:	6807a623          	sw	zero,1676(a5)
    31d8:	6807a823          	sw	zero,1680(a5)
    31dc:	00006697          	auipc	a3,0x6
    31e0:	a986a687          	flw	fa3,-1384(a3) # 8c74 <MySerNumInfo+0x114>
    31e4:	68d7aa27          	fsw	fa3,1684(a5)
    31e8:	6807ac23          	sw	zero,1688(a5)
    31ec:	00006697          	auipc	a3,0x6
    31f0:	9f06a687          	flw	fa3,-1552(a3) # 8bdc <MySerNumInfo+0x7c>
    31f4:	68d7ae27          	fsw	fa3,1692(a5)
    31f8:	6a07a023          	sw	zero,1696(a5)
    31fc:	6a07a223          	sw	zero,1700(a5)
    3200:	6a07a423          	sw	zero,1704(a5)
    3204:	6a07a623          	sw	zero,1708(a5)
    3208:	6a07a823          	sw	zero,1712(a5)
    320c:	6a07aa23          	sw	zero,1716(a5)
    3210:	6a07ac23          	sw	zero,1720(a5)
    3214:	6a07ae23          	sw	zero,1724(a5)
    3218:	6c07a023          	sw	zero,1728(a5)
    321c:	6c07a223          	sw	zero,1732(a5)
    3220:	00006697          	auipc	a3,0x6
    3224:	a586a687          	flw	fa3,-1448(a3) # 8c78 <MySerNumInfo+0x118>
    3228:	6cd7a427          	fsw	fa3,1736(a5)
    322c:	00006697          	auipc	a3,0x6
    3230:	a506a687          	flw	fa3,-1456(a3) # 8c7c <MySerNumInfo+0x11c>
    3234:	6cd7a627          	fsw	fa3,1740(a5)
    3238:	6c07a823          	sw	zero,1744(a5)
    323c:	6c07aa23          	sw	zero,1748(a5)
    3240:	6c07ac23          	sw	zero,1752(a5)
    3244:	6c07ae23          	sw	zero,1756(a5)
    3248:	6e07a023          	sw	zero,1760(a5)
    324c:	6e07a223          	sw	zero,1764(a5)
    3250:	6e078423          	sb	zero,1768(a5)
    3254:	6ef7a627          	fsw	fa5,1772(a5)
    3258:	00006697          	auipc	a3,0x6
    325c:	a286a687          	flw	fa3,-1496(a3) # 8c80 <MySerNumInfo+0x120>
    3260:	6ed7a827          	fsw	fa3,1776(a5)
    3264:	6ef7aa27          	fsw	fa5,1780(a5)
    3268:	6e07ac23          	sw	zero,1784(a5)
    326c:	6ee7ae27          	fsw	fa4,1788(a5)
    3270:	7007a023          	sw	zero,1792(a5)
    3274:	7007a223          	sw	zero,1796(a5)
    3278:	00006697          	auipc	a3,0x6
    327c:	a0c6a707          	flw	fa4,-1524(a3) # 8c84 <MySerNumInfo+0x124>
    3280:	70e7a427          	fsw	fa4,1800(a5)
    3284:	7007a623          	sw	zero,1804(a5)
    3288:	7007a823          	sw	zero,1808(a5)
    328c:	70c7aa27          	fsw	fa2,1812(a5)
    3290:	70078c23          	sb	zero,1816(a5)
    3294:	7007ae23          	sw	zero,1820(a5)
    3298:	72e7a027          	fsw	fa4,1824(a5)
    329c:	7207a223          	sw	zero,1828(a5)
    32a0:	7207a423          	sw	zero,1832(a5)
    32a4:	7207a623          	sw	zero,1836(a5)
    32a8:	7207a823          	sw	zero,1840(a5)
    32ac:	00006697          	auipc	a3,0x6
    32b0:	9dc6a707          	flw	fa4,-1572(a3) # 8c88 <MySerNumInfo+0x128>
    32b4:	72e7aa27          	fsw	fa4,1844(a5)
    32b8:	7207ac23          	sw	zero,1848(a5)
    32bc:	7207ae23          	sw	zero,1852(a5)
    32c0:	74f7a027          	fsw	fa5,1856(a5)
    32c4:	7407a823          	sw	zero,1872(a5)
    32c8:	7407aa23          	sw	zero,1876(a5)
    32cc:	7407ac23          	sw	zero,1880(a5)
    32d0:	7407ae23          	sw	zero,1884(a5)
    32d4:	7607a023          	sw	zero,1888(a5)
    32d8:	7607a223          	sw	zero,1892(a5)
    32dc:	7607a423          	sw	zero,1896(a5)
    32e0:	7607a623          	sw	zero,1900(a5)
    32e4:	00006697          	auipc	a3,0x6
    32e8:	9a86a787          	flw	fa5,-1624(a3) # 8c8c <MySerNumInfo+0x12c>
    32ec:	76f7ac27          	fsw	fa5,1912(a5)
    32f0:	00006697          	auipc	a3,0x6
    32f4:	9a06a787          	flw	fa5,-1632(a3) # 8c90 <MySerNumInfo+0x130>
    32f8:	76f7ae27          	fsw	fa5,1916(a5)
    32fc:	00006697          	auipc	a3,0x6
    3300:	9986a787          	flw	fa5,-1640(a3) # 8c94 <MySerNumInfo+0x134>
    3304:	7af7aa27          	fsw	fa5,1972(a5)
    3308:	7a07ac23          	sw	zero,1976(a5)
    330c:	00006697          	auipc	a3,0x6
    3310:	98c6a787          	flw	fa5,-1652(a3) # 8c98 <MySerNumInfo+0x138>
    3314:	7af7ae27          	fsw	fa5,1980(a5)
    3318:	00006697          	auipc	a3,0x6
    331c:	9846a787          	flw	fa5,-1660(a3) # 8c9c <MySerNumInfo+0x13c>
    3320:	7cf7a027          	fsw	fa5,1984(a5)
    3324:	7c07a223          	sw	zero,1988(a5)
    3328:	7c07a423          	sw	zero,1992(a5)
    332c:	7c07a623          	sw	zero,1996(a5)
    3330:	00006697          	auipc	a3,0x6
    3334:	9706a787          	flw	fa5,-1680(a3) # 8ca0 <MySerNumInfo+0x140>
    3338:	7cf7a827          	fsw	fa5,2000(a5)
    333c:	7c07aa23          	sw	zero,2004(a5)
    3340:	7c07ac23          	sw	zero,2008(a5)
    3344:	00006697          	auipc	a3,0x6
    3348:	9606a787          	flw	fa5,-1696(a3) # 8ca4 <MySerNumInfo+0x144>
    334c:	7cf7ae27          	fsw	fa5,2012(a5)
    3350:	7e07a223          	sw	zero,2020(a5)
    3354:	00006697          	auipc	a3,0x6
    3358:	9546a787          	flw	fa5,-1708(a3) # 8ca8 <MySerNumInfo+0x148>
    335c:	7ef7a427          	fsw	fa5,2024(a5)
    3360:	7e07a623          	sw	zero,2028(a5)
    3364:	7e07a823          	sw	zero,2032(a5)
    3368:	00006697          	auipc	a3,0x6
    336c:	9446a787          	flw	fa5,-1724(a3) # 8cac <MySerNumInfo+0x14c>
    3370:	7ef7aa27          	fsw	fa5,2036(a5)
    3374:	7e07ac23          	sw	zero,2040(a5)
    3378:	1fffe797          	auipc	a5,0x1fffe
    337c:	f0878793          	addi	a5,a5,-248 # 20001280 <_ebss+0x7d0>
    3380:	80078223          	sb	zero,-2044(a5)
    3384:	800782a3          	sb	zero,-2043(a5)
    3388:	80078323          	sb	zero,-2042(a5)
    338c:	800783a3          	sb	zero,-2041(a5)
    3390:	80078423          	sb	zero,-2040(a5)
    3394:	800784a3          	sb	zero,-2039(a5)
    3398:	469d                	li	a3,7
    339a:	80d78523          	sb	a3,-2038(a5)
    339e:	82e7a023          	sw	a4,-2016(a5)
    33a2:	8207a223          	sw	zero,-2012(a5)
    33a6:	b96d                	j	3060 <__static_initialization_and_destruction_0(int, int)+0x6>

000033a8 <app_main>:
    33a8:	e89fc2ef          	jal	t0,230 <__riscv_save_0>
    33ac:	40000637          	lui	a2,0x40000
    33b0:	40060613          	addi	a2,a2,1024 # 40000400 <_eusrstack+0x1fff8400>
    33b4:	400135b7          	lui	a1,0x40013
    33b8:	c0058593          	addi	a1,a1,-1024 # 40012c00 <_eusrstack+0x2000ac00>
    33bc:	1fffd517          	auipc	a0,0x1fffd
    33c0:	ec450513          	addi	a0,a0,-316 # 20000280 <motor>
    33c4:	2c2d                	jal	35fe <Motor::Init(TIM_TypeDef*, TIM_TypeDef*)>
    33c6:	1fffd517          	auipc	a0,0x1fffd
    33ca:	eba50513          	addi	a0,a0,-326 # 20000280 <motor>
    33ce:	00006797          	auipc	a5,0x6
    33d2:	8e27a787          	flw	fa5,-1822(a5) # 8cb0 <MySerNumInfo+0x150>
    33d6:	7af52e27          	fsw	fa5,1980(a0)
    33da:	00006797          	auipc	a5,0x6
    33de:	8da7a787          	flw	fa5,-1830(a5) # 8cb4 <MySerNumInfo+0x154>
    33e2:	7cf52027          	fsw	fa5,1984(a0)
    33e6:	00006797          	auipc	a5,0x6
    33ea:	8627a787          	flw	fa5,-1950(a5) # 8c48 <MySerNumInfo+0xe8>
    33ee:	f95c                	fsw	fa5,52(a0)
    33f0:	00006797          	auipc	a5,0x6
    33f4:	8047a707          	flw	fa4,-2044(a5) # 8bf4 <MySerNumInfo+0x94>
    33f8:	7ae52427          	fsw	fa4,1960(a0)
    33fc:	fd3c                	fsw	fa5,120(a0)
    33fe:	00006797          	auipc	a5,0x6
    3402:	87a7a787          	flw	fa5,-1926(a5) # 8c78 <MySerNumInfo+0x118>
    3406:	6cf52427          	fsw	fa5,1736(a0)
    340a:	00006797          	auipc	a5,0x6
    340e:	8727a787          	flw	fa5,-1934(a5) # 8c7c <MySerNumInfo+0x11c>
    3412:	6cf52627          	fsw	fa5,1740(a0)
    3416:	00006797          	auipc	a5,0x6
    341a:	8a27a787          	flw	fa5,-1886(a5) # 8cb8 <MySerNumInfo+0x158>
    341e:	72f52a27          	fsw	fa5,1844(a0)
    3422:	7a052c23          	sw	zero,1976(a0)
    3426:	00006797          	auipc	a5,0x6
    342a:	8967a787          	flw	fa5,-1898(a5) # 8cbc <MySerNumInfo+0x15c>
    342e:	7cf52e27          	fsw	fa5,2012(a0)
    3432:	219d                	jal	3898 <Motor::start()>
    3434:	a021                	j	343c <app_main+0x94>
    3436:	4505                	li	a0,1
    3438:	e93fc0ef          	jal	ra,2ca <Delay_Ms>
    343c:	0901a707          	flw	fa4,144(gp) # 20000900 <__global_pointer$+0x90>
    3440:	00006797          	auipc	a5,0x6
    3444:	8007a787          	flw	fa5,-2048(a5) # 8c40 <MySerNumInfo+0xe0>
    3448:	a0f717d3          	flt.s	a5,fa4,fa5
    344c:	f7ed                	bnez	a5,3436 <app_main+0x8e>
    344e:	a031                	j	345a <app_main+0xb2>
    3450:	0801aa23          	sw	zero,148(gp) # 20000904 <__global_pointer$+0x94>
    3454:	4505                	li	a0,1
    3456:	e75fc0ef          	jal	ra,2ca <Delay_Ms>
    345a:	1fffd797          	auipc	a5,0x1fffd
    345e:	c1678793          	addi	a5,a5,-1002 # 20000070 <SelectState>
    3462:	4394                	lw	a3,0(a5)
    3464:	4715                	li	a4,5
    3466:	fed767e3          	bltu	a4,a3,3454 <app_main+0xac>
    346a:	00269793          	slli	a5,a3,0x2
    346e:	00005717          	auipc	a4,0x5
    3472:	7ae70713          	addi	a4,a4,1966 # 8c1c <MySerNumInfo+0xbc>
    3476:	97ba                	add	a5,a5,a4
    3478:	439c                	lw	a5,0(a5)
    347a:	97ba                	add	a5,a5,a4
    347c:	8782                	jr	a5
    347e:	1fffd417          	auipc	s0,0x1fffd
    3482:	e0240413          	addi	s0,s0,-510 # 20000280 <motor>
    3486:	4789                	li	a5,2
    3488:	68f42223          	sw	a5,1668(s0)
    348c:	5dc00513          	li	a0,1500
    3490:	e3bfc0ef          	jal	ra,2ca <Delay_Ms>
    3494:	8522                	mv	a0,s0
    3496:	7e4000ef          	jal	ra,3c7a <Motor::getResistance()>
    349a:	00006797          	auipc	a5,0x6
    349e:	8267a787          	flw	fa5,-2010(a5) # 8cc0 <MySerNumInfo+0x160>
    34a2:	70f42627          	fsw	fa5,1804(s0)
    34a6:	00006797          	auipc	a5,0x6
    34aa:	81e7a787          	flw	fa5,-2018(a5) # 8cc4 <MySerNumInfo+0x164>
    34ae:	72f42827          	fsw	fa5,1840(s0)
    34b2:	4785                	li	a5,1
    34b4:	08f42823          	sw	a5,144(s0)
    34b8:	8522                	mv	a0,s0
    34ba:	3f6010ef          	jal	ra,48b0 <Motor::update_current_controller_gains()>
    34be:	4795                	li	a5,5
    34c0:	1fffd717          	auipc	a4,0x1fffd
    34c4:	baf72823          	sw	a5,-1104(a4) # 20000070 <SelectState>
    34c8:	b771                	j	3454 <app_main+0xac>
    34ca:	1fffd417          	auipc	s0,0x1fffd
    34ce:	db640413          	addi	s0,s0,-586 # 20000280 <motor>
    34d2:	478d                	li	a5,3
    34d4:	68f42223          	sw	a5,1668(s0)
    34d8:	5dc00513          	li	a0,1500
    34dc:	deffc0ef          	jal	ra,2ca <Delay_Ms>
    34e0:	8522                	mv	a0,s0
    34e2:	203000ef          	jal	ra,3ee4 <Motor::getInductance()>
    34e6:	8522                	mv	a0,s0
    34e8:	3c8010ef          	jal	ra,48b0 <Motor::update_current_controller_gains()>
    34ec:	4791                	li	a5,4
    34ee:	1fffd717          	auipc	a4,0x1fffd
    34f2:	b8f72123          	sw	a5,-1150(a4) # 20000070 <SelectState>
    34f6:	bfb9                	j	3454 <app_main+0xac>
    34f8:	1fffd797          	auipc	a5,0x1fffd
    34fc:	d8878793          	addi	a5,a5,-632 # 20000280 <motor>
    3500:	4711                	li	a4,4
    3502:	68e7a223          	sw	a4,1668(a5)
    3506:	0977c783          	lbu	a5,151(a5)
    350a:	cba5                	beqz	a5,357a <app_main+0x1d2>
    350c:	1fffd797          	auipc	a5,0x1fffd
    3510:	e0b7c783          	lbu	a5,-501(a5) # 20000317 <motor+0x97>
    3514:	e795                	bnez	a5,3540 <app_main+0x198>
    3516:	0bc1a787          	flw	fa5,188(gp) # 2000092c <__global_pointer$+0xbc>
    351a:	f0000753          	fmv.w.x	fa4,zero
    351e:	a0f71753          	flt.s	a4,fa4,fa5
    3522:	cb11                	beqz	a4,3536 <app_main+0x18e>
    3524:	1fffd717          	auipc	a4,0x1fffd
    3528:	d5c70713          	addi	a4,a4,-676 # 20000280 <motor>
    352c:	09072683          	lw	a3,144(a4)
    3530:	4705                	li	a4,1
    3532:	06e68e63          	beq	a3,a4,35ae <app_main+0x206>
    3536:	f0000753          	fmv.w.x	fa4,zero
    353a:	a0e79753          	flt.s	a4,fa5,fa4
    353e:	ef39                	bnez	a4,359c <app_main+0x1f4>
    3540:	eb99                	bnez	a5,3556 <app_main+0x1ae>
    3542:	1fffd717          	auipc	a4,0x1fffd
    3546:	d3e70713          	addi	a4,a4,-706 # 20000280 <motor>
    354a:	09072783          	lw	a5,144(a4)
    354e:	40f007b3          	neg	a5,a5
    3552:	08f72823          	sw	a5,144(a4)
    3556:	1fffd797          	auipc	a5,0x1fffd
    355a:	d2a78793          	addi	a5,a5,-726 # 20000280 <motor>
    355e:	6807ac23          	sw	zero,1688(a5)
    3562:	6807ae23          	sw	zero,1692(a5)
    3566:	0c800513          	li	a0,200
    356a:	d61fc0ef          	jal	ra,2ca <Delay_Ms>
    356e:	4795                	li	a5,5
    3570:	1fffd717          	auipc	a4,0x1fffd
    3574:	b0f72023          	sw	a5,-1280(a4) # 20000070 <SelectState>
    3578:	bdf1                	j	3454 <app_main+0xac>
    357a:	1fffd797          	auipc	a5,0x1fffd
    357e:	d0678793          	addi	a5,a5,-762 # 20000280 <motor>
    3582:	6807ac23          	sw	zero,1688(a5)
    3586:	00005717          	auipc	a4,0x5
    358a:	6be72787          	flw	fa5,1726(a4) # 8c44 <MySerNumInfo+0xe4>
    358e:	68f7ae27          	fsw	fa5,1692(a5)
    3592:	7d000513          	li	a0,2000
    3596:	d35fc0ef          	jal	ra,2ca <Delay_Ms>
    359a:	bf8d                	j	350c <app_main+0x164>
    359c:	1fffd717          	auipc	a4,0x1fffd
    35a0:	ce470713          	addi	a4,a4,-796 # 20000280 <motor>
    35a4:	09072683          	lw	a3,144(a4)
    35a8:	577d                	li	a4,-1
    35aa:	f8e69be3          	bne	a3,a4,3540 <app_main+0x198>
    35ae:	4785                	li	a5,1
    35b0:	1fffd717          	auipc	a4,0x1fffd
    35b4:	d6f703a3          	sb	a5,-665(a4) # 20000317 <motor+0x97>
    35b8:	bf79                	j	3556 <app_main+0x1ae>
    35ba:	1fffd797          	auipc	a5,0x1fffd
    35be:	cc678793          	addi	a5,a5,-826 # 20000280 <motor>
    35c2:	4705                	li	a4,1
    35c4:	22e1a823          	sw	a4,560(gp) # 20000aa0 <__global_pointer$+0x230>
    35c8:	4715                	li	a4,5
    35ca:	68e7a223          	sw	a4,1668(a5)
    35ce:	7d87a787          	flw	fa5,2008(a5)
    35d2:	00005717          	auipc	a4,0x5
    35d6:	60a72707          	flw	fa4,1546(a4) # 8bdc <MySerNumInfo+0x7c>
    35da:	00e7f7d3          	fadd.s	fa5,fa5,fa4
    35de:	7cf7ac27          	fsw	fa5,2008(a5)
    35e2:	1f400513          	li	a0,500
    35e6:	ce5fc0ef          	jal	ra,2ca <Delay_Ms>
    35ea:	b5ad                	j	3454 <app_main+0xac>

000035ec <_GLOBAL__sub_I_motor>:
    35ec:	c45fc2ef          	jal	t0,230 <__riscv_save_0>
    35f0:	65c1                	lui	a1,0x10
    35f2:	15fd                	addi	a1,a1,-1
    35f4:	4505                	li	a0,1
    35f6:	a65ff0ef          	jal	ra,305a <__static_initialization_and_destruction_0(int, int)>
    35fa:	c5bfc06f          	j	254 <__riscv_restore_0>

000035fe <Motor::Init(TIM_TypeDef*, TIM_TypeDef*)>:
    35fe:	c10c                	sw	a1,0(a0)
    3600:	c150                	sw	a2,4(a0)
    3602:	00050423          	sb	zero,8(a0)
    3606:	47b9                	li	a5,14
    3608:	c55c                	sw	a5,12(a0)
    360a:	00005797          	auipc	a5,0x5
    360e:	62a7a787          	flw	fa5,1578(a5) # 8c34 <MySerNumInfo+0xd4>
    3612:	e91c                	fsw	fa5,16(a0)
    3614:	00005797          	auipc	a5,0x5
    3618:	6247a607          	flw	fa2,1572(a5) # 8c38 <MySerNumInfo+0xd8>
    361c:	e950                	fsw	fa2,20(a0)
    361e:	00052c23          	sw	zero,24(a0)
    3622:	00052e23          	sw	zero,28(a0)
    3626:	00005797          	auipc	a5,0x5
    362a:	6167a707          	flw	fa4,1558(a5) # 8c3c <MySerNumInfo+0xdc>
    362e:	f118                	fsw	fa4,32(a0)
    3630:	02052223          	sw	zero,36(a0)
    3634:	f51c                	fsw	fa5,40(a0)
    3636:	00005797          	auipc	a5,0x5
    363a:	60a7a707          	flw	fa4,1546(a5) # 8c40 <MySerNumInfo+0xe0>
    363e:	f558                	fsw	fa4,44(a0)
    3640:	00005797          	auipc	a5,0x5
    3644:	6047a707          	flw	fa4,1540(a5) # 8c44 <MySerNumInfo+0xe4>
    3648:	f918                	fsw	fa4,48(a0)
    364a:	00005797          	auipc	a5,0x5
    364e:	6027a707          	flw	fa4,1538(a5) # 8c4c <MySerNumInfo+0xec>
    3652:	f958                	fsw	fa4,52(a0)
    3654:	fd18                	fsw	fa4,56(a0)
    3656:	00005797          	auipc	a5,0x5
    365a:	5fa7a707          	flw	fa4,1530(a5) # 8c50 <MySerNumInfo+0xf0>
    365e:	fd58                	fsw	fa4,60(a0)
    3660:	e13c                	fsw	fa5,64(a0)
    3662:	e17c                	fsw	fa5,68(a0)
    3664:	04050423          	sb	zero,72(a0)
    3668:	e57c                	fsw	fa5,76(a0)
    366a:	00005797          	auipc	a5,0x5
    366e:	58a7a707          	flw	fa4,1418(a5) # 8bf4 <MySerNumInfo+0x94>
    3672:	e938                	fsw	fa4,80(a0)
    3674:	4785                	li	a5,1
    3676:	04f50a23          	sb	a5,84(a0)
    367a:	04050aa3          	sb	zero,85(a0)
    367e:	00005797          	auipc	a5,0x5
    3682:	5d67a687          	flw	fa3,1494(a5) # 8c54 <MySerNumInfo+0xf4>
    3686:	ed34                	fsw	fa3,88(a0)
    3688:	00005797          	auipc	a5,0x5
    368c:	5d07a687          	flw	fa3,1488(a5) # 8c58 <MySerNumInfo+0xf8>
    3690:	ed74                	fsw	fa3,92(a0)
    3692:	00005797          	auipc	a5,0x5
    3696:	5ca7a687          	flw	fa3,1482(a5) # 8c5c <MySerNumInfo+0xfc>
    369a:	f134                	fsw	fa3,96(a0)
    369c:	00005797          	auipc	a5,0x5
    36a0:	5c47a687          	flw	fa3,1476(a5) # 8c60 <MySerNumInfo+0x100>
    36a4:	f174                	fsw	fa3,100(a0)
    36a6:	06052423          	sw	zero,104(a0)
    36aa:	00005797          	auipc	a5,0x5
    36ae:	5ba7a687          	flw	fa3,1466(a5) # 8c64 <MySerNumInfo+0x104>
    36b2:	f574                	fsw	fa3,108(a0)
    36b4:	00005797          	auipc	a5,0x5
    36b8:	5b47a687          	flw	fa3,1460(a5) # 8c68 <MySerNumInfo+0x108>
    36bc:	f934                	fsw	fa3,112(a0)
    36be:	00005797          	auipc	a5,0x5
    36c2:	5ae7a687          	flw	fa3,1454(a5) # 8c6c <MySerNumInfo+0x10c>
    36c6:	f974                	fsw	fa3,116(a0)
    36c8:	00005797          	auipc	a5,0x5
    36cc:	5807a687          	flw	fa3,1408(a5) # 8c48 <MySerNumInfo+0xe8>
    36d0:	fd34                	fsw	fa3,120(a0)
    36d2:	06052e23          	sw	zero,124(a0)
    36d6:	08052023          	sw	zero,128(a0)
    36da:	6785                	lui	a5,0x1
    36dc:	08f52223          	sw	a5,132(a0)
    36e0:	08052423          	sw	zero,136(a0)
    36e4:	08050623          	sb	zero,140(a0)
    36e8:	080506a3          	sb	zero,141(a0)
    36ec:	4785                	li	a5,1
    36ee:	08f52823          	sw	a5,144(a0)
    36f2:	08050a23          	sb	zero,148(a0)
    36f6:	08f50aa3          	sb	a5,149(a0)
    36fa:	08050b23          	sb	zero,150(a0)
    36fe:	08050ba3          	sb	zero,151(a0)
    3702:	68052223          	sw	zero,1668(a0)
    3706:	68052423          	sw	zero,1672(a0)
    370a:	68052623          	sw	zero,1676(a0)
    370e:	68052823          	sw	zero,1680(a0)
    3712:	00005797          	auipc	a5,0x5
    3716:	5627a687          	flw	fa3,1378(a5) # 8c74 <MySerNumInfo+0x114>
    371a:	68d52a27          	fsw	fa3,1684(a0)
    371e:	68052c23          	sw	zero,1688(a0)
    3722:	00005797          	auipc	a5,0x5
    3726:	4ba7a687          	flw	fa3,1210(a5) # 8bdc <MySerNumInfo+0x7c>
    372a:	68d52e27          	fsw	fa3,1692(a0)
    372e:	6a052023          	sw	zero,1696(a0)
    3732:	6a052623          	sw	zero,1708(a0)
    3736:	6a052823          	sw	zero,1712(a0)
    373a:	6a052a23          	sw	zero,1716(a0)
    373e:	6a052c23          	sw	zero,1720(a0)
    3742:	6a052e23          	sw	zero,1724(a0)
    3746:	6c052023          	sw	zero,1728(a0)
    374a:	6c052223          	sw	zero,1732(a0)
    374e:	00005797          	auipc	a5,0x5
    3752:	52a7a687          	flw	fa3,1322(a5) # 8c78 <MySerNumInfo+0x118>
    3756:	6cd52427          	fsw	fa3,1736(a0)
    375a:	00005797          	auipc	a5,0x5
    375e:	5227a687          	flw	fa3,1314(a5) # 8c7c <MySerNumInfo+0x11c>
    3762:	6cd52627          	fsw	fa3,1740(a0)
    3766:	6c052823          	sw	zero,1744(a0)
    376a:	6c052a23          	sw	zero,1748(a0)
    376e:	6c052c23          	sw	zero,1752(a0)
    3772:	6c052e23          	sw	zero,1756(a0)
    3776:	6e052023          	sw	zero,1760(a0)
    377a:	6ee52a27          	fsw	fa4,1780(a0)
    377e:	6e052c23          	sw	zero,1784(a0)
    3782:	6ef52e27          	fsw	fa5,1788(a0)
    3786:	70e52027          	fsw	fa4,1792(a0)
    378a:	70052223          	sw	zero,1796(a0)
    378e:	00005797          	auipc	a5,0x5
    3792:	4f67a687          	flw	fa3,1270(a5) # 8c84 <MySerNumInfo+0x124>
    3796:	70d52427          	fsw	fa3,1800(a0)
    379a:	70052623          	sw	zero,1804(a0)
    379e:	70c52a27          	fsw	fa2,1812(a0)
    37a2:	70050c23          	sb	zero,1816(a0)
    37a6:	70052e23          	sw	zero,1820(a0)
    37aa:	72d52027          	fsw	fa3,1824(a0)
    37ae:	72052223          	sw	zero,1828(a0)
    37b2:	72052423          	sw	zero,1832(a0)
    37b6:	72052623          	sw	zero,1836(a0)
    37ba:	72052823          	sw	zero,1840(a0)
    37be:	00005797          	auipc	a5,0x5
    37c2:	5b67a687          	flw	fa3,1462(a5) # 8d74 <MySerNumInfo+0x214>
    37c6:	72d52a27          	fsw	fa3,1844(a0)
    37ca:	72052c23          	sw	zero,1848(a0)
    37ce:	72052e23          	sw	zero,1852(a0)
    37d2:	74e52027          	fsw	fa4,1856(a0)
    37d6:	74052823          	sw	zero,1872(a0)
    37da:	74052a23          	sw	zero,1876(a0)
    37de:	74052c23          	sw	zero,1880(a0)
    37e2:	74052e23          	sw	zero,1884(a0)
    37e6:	76052023          	sw	zero,1888(a0)
    37ea:	76052223          	sw	zero,1892(a0)
    37ee:	76052423          	sw	zero,1896(a0)
    37f2:	76052623          	sw	zero,1900(a0)
    37f6:	68052687          	flw	fa3,1664(a0)
    37fa:	00005797          	auipc	a5,0x5
    37fe:	3e67a607          	flw	fa2,998(a5) # 8be0 <MySerNumInfo+0x80>
    3802:	10c6f6d3          	fmul.s	fa3,fa3,fa2
    3806:	76d52c27          	fsw	fa3,1912(a0)
    380a:	18d77753          	fdiv.s	fa4,fa4,fa3
    380e:	76e52e27          	fsw	fa4,1916(a0)
    3812:	00005797          	auipc	a5,0x5
    3816:	5667a707          	flw	fa4,1382(a5) # 8d78 <MySerNumInfo+0x218>
    381a:	7ae52a27          	fsw	fa4,1972(a0)
    381e:	7a052c23          	sw	zero,1976(a0)
    3822:	00005797          	auipc	a5,0x5
    3826:	55a7a707          	flw	fa4,1370(a5) # 8d7c <MySerNumInfo+0x21c>
    382a:	7ae52e27          	fsw	fa4,1980(a0)
    382e:	00005797          	auipc	a5,0x5
    3832:	5527a707          	flw	fa4,1362(a5) # 8d80 <MySerNumInfo+0x220>
    3836:	7ce52027          	fsw	fa4,1984(a0)
    383a:	7c052223          	sw	zero,1988(a0)
    383e:	7c052423          	sw	zero,1992(a0)
    3842:	00005797          	auipc	a5,0x5
    3846:	4527a707          	flw	fa4,1106(a5) # 8c94 <MySerNumInfo+0x134>
    384a:	7ce52827          	fsw	fa4,2000(a0)
    384e:	7c052c23          	sw	zero,2008(a0)
    3852:	7cf52e27          	fsw	fa5,2012(a0)
    3856:	7e052023          	sw	zero,2016(a0)
    385a:	00005797          	auipc	a5,0x5
    385e:	52a7a787          	flw	fa5,1322(a5) # 8d84 <MySerNumInfo+0x224>
    3862:	7ef52427          	fsw	fa5,2024(a0)
    3866:	7e052623          	sw	zero,2028(a0)
    386a:	7e052823          	sw	zero,2032(a0)
    386e:	00005797          	auipc	a5,0x5
    3872:	4427a787          	flw	fa5,1090(a5) # 8cb0 <MySerNumInfo+0x150>
    3876:	7ef52a27          	fsw	fa5,2036(a0)
    387a:	7e052c23          	sw	zero,2040(a0)
    387e:	70052823          	sw	zero,1808(a0)
    3882:	7e052223          	sw	zero,2020(a0)
    3886:	6e050423          	sb	zero,1768(a0)
    388a:	00005797          	auipc	a5,0x5
    388e:	4fe7a787          	flw	fa5,1278(a5) # 8d88 <MySerNumInfo+0x228>
    3892:	68f52027          	fsw	fa5,1664(a0)
    3896:	8082                	ret

00003898 <Motor::start()>:
    3898:	999fc2ef          	jal	t0,230 <__riscv_save_0>
    389c:	4585                	li	a1,1
    389e:	40012537          	lui	a0,0x40012
    38a2:	40050513          	addi	a0,a0,1024 # 40012400 <_eusrstack+0x2000a400>
    38a6:	b47fc0ef          	jal	ra,3ec <ADC_ExternalTrigInjectedConvCmd>
    38aa:	20000593          	li	a1,512
    38ae:	40011537          	lui	a0,0x40011
    38b2:	aacfd0ef          	jal	ra,b5e <GPIO_SetBits>
    38b6:	99ffc06f          	j	254 <__riscv_restore_0>

000038ba <Motor::apply_pwm_timings()>:
    38ba:	65c52787          	flw	fa5,1628(a0) # 4001165c <_eusrstack+0x2000965c>
    38be:	00005797          	auipc	a5,0x5
    38c2:	3367a707          	flw	fa4,822(a5) # 8bf4 <MySerNumInfo+0x94>
    38c6:	a0f717d3          	flt.s	a5,fa4,fa5
    38ca:	c399                	beqz	a5,38d0 <Motor::apply_pwm_timings()+0x16>
    38cc:	20e707d3          	fmv.s	fa5,fa4
    38d0:	f0000753          	fmv.w.x	fa4,zero
    38d4:	a0e797d3          	flt.s	a5,fa5,fa4
    38d8:	efc5                	bnez	a5,3990 <Motor::apply_pwm_timings()+0xd6>
    38da:	64f52e27          	fsw	fa5,1628(a0)
    38de:	66052707          	flw	fa4,1632(a0)
    38e2:	00005797          	auipc	a5,0x5
    38e6:	3127a687          	flw	fa3,786(a5) # 8bf4 <MySerNumInfo+0x94>
    38ea:	a0e697d3          	flt.s	a5,fa3,fa4
    38ee:	c399                	beqz	a5,38f4 <Motor::apply_pwm_timings()+0x3a>
    38f0:	20d68753          	fmv.s	fa4,fa3
    38f4:	f00006d3          	fmv.w.x	fa3,zero
    38f8:	a0d717d3          	flt.s	a5,fa4,fa3
    38fc:	efc9                	bnez	a5,3996 <Motor::apply_pwm_timings()+0xdc>
    38fe:	66e52027          	fsw	fa4,1632(a0)
    3902:	66452707          	flw	fa4,1636(a0)
    3906:	00005797          	auipc	a5,0x5
    390a:	2ee7a687          	flw	fa3,750(a5) # 8bf4 <MySerNumInfo+0x94>
    390e:	a0e697d3          	flt.s	a5,fa3,fa4
    3912:	c399                	beqz	a5,3918 <Motor::apply_pwm_timings()+0x5e>
    3914:	20d68753          	fmv.s	fa4,fa3
    3918:	f00006d3          	fmv.w.x	fa3,zero
    391c:	a0d717d3          	flt.s	a5,fa4,fa3
    3920:	efb5                	bnez	a5,399c <Motor::apply_pwm_timings()+0xe2>
    3922:	66e52227          	fsw	fa4,1636(a0)
    3926:	00005797          	auipc	a5,0x5
    392a:	42e7a587          	flw	fa1,1070(a5) # 8d54 <MySerNumInfo+0x1f4>
    392e:	10b7f7d3          	fmul.s	fa5,fa5,fa1
    3932:	00005797          	auipc	a5,0x5
    3936:	4267a607          	flw	fa2,1062(a5) # 8d58 <MySerNumInfo+0x1f8>
    393a:	18c7f7d3          	fdiv.s	fa5,fa5,fa2
    393e:	00005797          	auipc	a5,0x5
    3942:	29e7a687          	flw	fa3,670(a5) # 8bdc <MySerNumInfo+0x7c>
    3946:	10d7f7d3          	fmul.s	fa5,fa5,fa3
    394a:	c01797d3          	fcvt.wu.s	a5,fa5,rtz
    394e:	4118                	lw	a4,0(a0)
    3950:	07c2                	slli	a5,a5,0x10
    3952:	83c1                	srli	a5,a5,0x10
    3954:	bb5e                	fsd	fs7,432(sp)
    3956:	66052707          	flw	fa4,1632(a0)
    395a:	10b77753          	fmul.s	fa4,fa4,fa1
    395e:	18c77753          	fdiv.s	fa4,fa4,fa2
    3962:	10d77753          	fmul.s	fa4,fa4,fa3
    3966:	c0171753          	fcvt.wu.s	a4,fa4,rtz
    396a:	411c                	lw	a5,0(a0)
    396c:	0742                	slli	a4,a4,0x10
    396e:	8341                	srli	a4,a4,0x10
    3970:	bf9a                	fsd	ft6,504(sp)
    3972:	66452787          	flw	fa5,1636(a0)
    3976:	10b7f7d3          	fmul.s	fa5,fa5,fa1
    397a:	18c7f7d3          	fdiv.s	fa5,fa5,fa2
    397e:	10d7f7d3          	fmul.s	fa5,fa5,fa3
    3982:	c01797d3          	fcvt.wu.s	a5,fa5,rtz
    3986:	4118                	lw	a4,0(a0)
    3988:	07c2                	slli	a5,a5,0x10
    398a:	83c1                	srli	a5,a5,0x10
    398c:	bf5e                	fsd	fs7,440(sp)
    398e:	8082                	ret
    3990:	20e707d3          	fmv.s	fa5,fa4
    3994:	b799                	j	38da <Motor::apply_pwm_timings()+0x20>
    3996:	20d68753          	fmv.s	fa4,fa3
    399a:	b795                	j	38fe <Motor::apply_pwm_timings()+0x44>
    399c:	20d68753          	fmv.s	fa4,fa3
    39a0:	b749                	j	3922 <Motor::apply_pwm_timings()+0x68>

000039a2 <Motor::measure_currents(unsigned short, unsigned short, unsigned short)>:
    39a2:	68052787          	flw	fa5,1664(a0)
    39a6:	00005797          	auipc	a5,0x5
    39aa:	23a7a707          	flw	fa4,570(a5) # 8be0 <MySerNumInfo+0x80>
    39ae:	10e7f7d3          	fmul.s	fa5,fa5,fa4
    39b2:	76f52c27          	fsw	fa5,1912(a0)
    39b6:	00005797          	auipc	a5,0x5
    39ba:	23e7a707          	flw	fa4,574(a5) # 8bf4 <MySerNumInfo+0x94>
    39be:	18f777d3          	fdiv.s	fa5,fa4,fa5
    39c2:	76f52e27          	fsw	fa5,1916(a0)
    39c6:	7a852707          	flw	fa4,1960(a0)
    39ca:	20e71753          	fneg.s	fa4,fa4
    39ce:	6705                	lui	a4,0x1
    39d0:	972a                	add	a4,a4,a0
    39d2:	82875783          	lhu	a5,-2008(a4) # 828 <CAN_Receive+0x1c>
    39d6:	8d9d                	sub	a1,a1,a5
    39d8:	d005f7d3          	fcvt.s.w	fa5,a1
    39dc:	00005797          	auipc	a5,0x5
    39e0:	2247a507          	flw	fa0,548(a5) # 8c00 <MySerNumInfo+0xa0>
    39e4:	10a7f7d3          	fmul.s	fa5,fa5,fa0
    39e8:	00005797          	auipc	a5,0x5
    39ec:	35c7a587          	flw	fa1,860(a5) # 8d44 <MySerNumInfo+0x1e4>
    39f0:	10b7f7d3          	fmul.s	fa5,fa5,fa1
    39f4:	00005797          	auipc	a5,0x5
    39f8:	2407a607          	flw	fa2,576(a5) # 8c34 <MySerNumInfo+0xd4>
    39fc:	18c7f7d3          	fdiv.s	fa5,fa5,fa2
    3a00:	00005797          	auipc	a5,0x5
    3a04:	3487a687          	flw	fa3,840(a5) # 8d48 <MySerNumInfo+0x1e8>
    3a08:	18d7f7d3          	fdiv.s	fa5,fa5,fa3
    3a0c:	10f777d3          	fmul.s	fa5,fa4,fa5
    3a10:	64f52827          	fsw	fa5,1616(a0)
    3a14:	82a75783          	lhu	a5,-2006(a4)
    3a18:	8e1d                	sub	a2,a2,a5
    3a1a:	d00677d3          	fcvt.s.w	fa5,a2
    3a1e:	10a7f7d3          	fmul.s	fa5,fa5,fa0
    3a22:	10b7f7d3          	fmul.s	fa5,fa5,fa1
    3a26:	18c7f7d3          	fdiv.s	fa5,fa5,fa2
    3a2a:	18d7f7d3          	fdiv.s	fa5,fa5,fa3
    3a2e:	10f777d3          	fmul.s	fa5,fa4,fa5
    3a32:	64f52a27          	fsw	fa5,1620(a0)
    3a36:	82c75783          	lhu	a5,-2004(a4)
    3a3a:	8e9d                	sub	a3,a3,a5
    3a3c:	d006f7d3          	fcvt.s.w	fa5,a3
    3a40:	10a7f7d3          	fmul.s	fa5,fa5,fa0
    3a44:	10b7f7d3          	fmul.s	fa5,fa5,fa1
    3a48:	18c7f7d3          	fdiv.s	fa5,fa5,fa2
    3a4c:	18d7f7d3          	fdiv.s	fa5,fa5,fa3
    3a50:	10f777d3          	fmul.s	fa5,fa4,fa5
    3a54:	64f52c27          	fsw	fa5,1624(a0)
    3a58:	78052787          	flw	fa5,1920(a0)
    3a5c:	75052707          	flw	fa4,1872(a0)
    3a60:	10e7f7d3          	fmul.s	fa5,fa5,fa4
    3a64:	78452707          	flw	fa4,1924(a0)
    3a68:	75452687          	flw	fa3,1876(a0)
    3a6c:	10d77753          	fmul.s	fa4,fa4,fa3
    3a70:	00e7f7d3          	fadd.s	fa5,fa5,fa4
    3a74:	00005797          	auipc	a5,0x5
    3a78:	2d87a707          	flw	fa4,728(a5) # 8d4c <MySerNumInfo+0x1ec>
    3a7c:	10e7f7d3          	fmul.s	fa5,fa5,fa4
    3a80:	00005797          	auipc	a5,0x5
    3a84:	2d07a707          	flw	fa4,720(a5) # 8d50 <MySerNumInfo+0x1f0>
    3a88:	18e7f7d3          	fdiv.s	fa5,fa5,fa4
    3a8c:	12f1a027          	fsw	fa5,288(gp) # 20000990 <__global_pointer$+0x120>
    3a90:	8082                	ret

00003a92 <Motor::measureResistance()>:
    3a92:	67852787          	flw	fa5,1656(a0)
    3a96:	6ef52c27          	fsw	fa5,1784(a0)
    3a9a:	00005797          	auipc	a5,0x5
    3a9e:	1aa7a687          	flw	fa3,426(a5) # 8c44 <MySerNumInfo+0xe4>
    3aa2:	70d52027          	fsw	fa3,1792(a0)
    3aa6:	68052787          	flw	fa5,1664(a0)
    3aaa:	00005797          	auipc	a5,0x5
    3aae:	1367a707          	flw	fa4,310(a5) # 8be0 <MySerNumInfo+0x80>
    3ab2:	10e7f753          	fmul.s	fa4,fa5,fa4
    3ab6:	00005797          	auipc	a5,0x5
    3aba:	13e7a787          	flw	fa5,318(a5) # 8bf4 <MySerNumInfo+0x94>
    3abe:	18e7f7d3          	fdiv.s	fa5,fa5,fa4
    3ac2:	10d7f7d3          	fmul.s	fa5,fa5,fa3
    3ac6:	70f52427          	fsw	fa5,1800(a0)
    3aca:	65c50713          	addi	a4,a0,1628
    3ace:	f0000753          	fmv.w.x	fa4,zero
    3ad2:	a0f707d3          	fle.s	a5,fa4,fa5
    3ad6:	cb8d                	beqz	a5,3b08 <Motor::measureResistance()+0x76>
    3ad8:	a0e797d3          	flt.s	a5,fa5,fa4
    3adc:	c395                	beqz	a5,3b00 <Motor::measureResistance()+0x6e>
    3ade:	4789                	li	a5,2
    3ae0:	7af52223          	sw	a5,1956(a0)
    3ae4:	7a452783          	lw	a5,1956(a0)
    3ae8:	4699                	li	a3,6
    3aea:	06f6e463          	bltu	a3,a5,3b52 <Motor::measureResistance()+0xc0>
    3aee:	078a                	slli	a5,a5,0x2
    3af0:	00005697          	auipc	a3,0x5
    3af4:	1d868693          	addi	a3,a3,472 # 8cc8 <MySerNumInfo+0x168>
    3af8:	97b6                	add	a5,a5,a3
    3afa:	439c                	lw	a5,0(a5)
    3afc:	97b6                	add	a5,a5,a3
    3afe:	8782                	jr	a5
    3b00:	4785                	li	a5,1
    3b02:	7af52223          	sw	a5,1956(a0)
    3b06:	bff9                	j	3ae4 <Motor::measureResistance()+0x52>
    3b08:	f0000753          	fmv.w.x	fa4,zero
    3b0c:	a0e797d3          	flt.s	a5,fa5,fa4
    3b10:	c789                	beqz	a5,3b1a <Motor::measureResistance()+0x88>
    3b12:	478d                	li	a5,3
    3b14:	7af52223          	sw	a5,1956(a0)
    3b18:	b7f1                	j	3ae4 <Motor::measureResistance()+0x52>
    3b1a:	4789                	li	a5,2
    3b1c:	7af52223          	sw	a5,1956(a0)
    3b20:	b7d1                	j	3ae4 <Motor::measureResistance()+0x52>
    3b22:	00005797          	auipc	a5,0x5
    3b26:	0d27a707          	flw	fa4,210(a5) # 8bf4 <MySerNumInfo+0x94>
    3b2a:	08f77753          	fsub.s	fa4,fa4,fa5
    3b2e:	00005797          	auipc	a5,0x5
    3b32:	0ae7a687          	flw	fa3,174(a5) # 8bdc <MySerNumInfo+0x7c>
    3b36:	10d77753          	fmul.s	fa4,fa4,fa3
    3b3a:	78e52c27          	fsw	fa4,1944(a0)
    3b3e:	00e7f7d3          	fadd.s	fa5,fa5,fa4
    3b42:	78f52e27          	fsw	fa5,1948(a0)
    3b46:	f0000753          	fmv.w.x	fa4,zero
    3b4a:	00e7f7d3          	fadd.s	fa5,fa5,fa4
    3b4e:	7af52027          	fsw	fa5,1952(a0)
    3b52:	79852787          	flw	fa5,1944(a0)
    3b56:	64f52e27          	fsw	fa5,1628(a0)
    3b5a:	79c52787          	flw	fa5,1948(a0)
    3b5e:	e35c                	fsw	fa5,4(a4)
    3b60:	7a052787          	flw	fa5,1952(a0)
    3b64:	e71c                	fsw	fa5,8(a4)
    3b66:	8082                	ret
    3b68:	f0000753          	fmv.w.x	fa4,zero
    3b6c:	00e7f6d3          	fadd.s	fa3,fa5,fa4
    3b70:	08f777d3          	fsub.s	fa5,fa4,fa5
    3b74:	00005797          	auipc	a5,0x5
    3b78:	0807a707          	flw	fa4,128(a5) # 8bf4 <MySerNumInfo+0x94>
    3b7c:	08d77753          	fsub.s	fa4,fa4,fa3
    3b80:	08f77753          	fsub.s	fa4,fa4,fa5
    3b84:	00005797          	auipc	a5,0x5
    3b88:	0587a607          	flw	fa2,88(a5) # 8bdc <MySerNumInfo+0x7c>
    3b8c:	10c77753          	fmul.s	fa4,fa4,fa2
    3b90:	78e52e27          	fsw	fa4,1948(a0)
    3b94:	00e7f7d3          	fadd.s	fa5,fa5,fa4
    3b98:	78f52c27          	fsw	fa5,1944(a0)
    3b9c:	00f6f7d3          	fadd.s	fa5,fa3,fa5
    3ba0:	7af52027          	fsw	fa5,1952(a0)
    3ba4:	b77d                	j	3b52 <Motor::measureResistance()+0xc0>
    3ba6:	20f797d3          	fneg.s	fa5,fa5
    3baa:	00005797          	auipc	a5,0x5
    3bae:	04a7a707          	flw	fa4,74(a5) # 8bf4 <MySerNumInfo+0x94>
    3bb2:	08f77753          	fsub.s	fa4,fa4,fa5
    3bb6:	00005797          	auipc	a5,0x5
    3bba:	0267a687          	flw	fa3,38(a5) # 8bdc <MySerNumInfo+0x7c>
    3bbe:	10d77753          	fmul.s	fa4,fa4,fa3
    3bc2:	78e52e27          	fsw	fa4,1948(a0)
    3bc6:	f00006d3          	fmv.w.x	fa3,zero
    3bca:	00d77753          	fadd.s	fa4,fa4,fa3
    3bce:	7ae52027          	fsw	fa4,1952(a0)
    3bd2:	00e7f7d3          	fadd.s	fa5,fa5,fa4
    3bd6:	78f52c27          	fsw	fa5,1944(a0)
    3bda:	bfa5                	j	3b52 <Motor::measureResistance()+0xc0>
    3bdc:	f00006d3          	fmv.w.x	fa3,zero
    3be0:	08f6f7d3          	fsub.s	fa5,fa3,fa5
    3be4:	00005797          	auipc	a5,0x5
    3be8:	0107a707          	flw	fa4,16(a5) # 8bf4 <MySerNumInfo+0x94>
    3bec:	08f77753          	fsub.s	fa4,fa4,fa5
    3bf0:	00d77753          	fadd.s	fa4,fa4,fa3
    3bf4:	00005797          	auipc	a5,0x5
    3bf8:	fe87a687          	flw	fa3,-24(a5) # 8bdc <MySerNumInfo+0x7c>
    3bfc:	10d77753          	fmul.s	fa4,fa4,fa3
    3c00:	7ae52027          	fsw	fa4,1952(a0)
    3c04:	78e52e27          	fsw	fa4,1948(a0)
    3c08:	00e7f7d3          	fadd.s	fa5,fa5,fa4
    3c0c:	78f52c27          	fsw	fa5,1944(a0)
    3c10:	b789                	j	3b52 <Motor::measureResistance()+0xc0>
    3c12:	20f796d3          	fneg.s	fa3,fa5
    3c16:	00005797          	auipc	a5,0x5
    3c1a:	fde7a707          	flw	fa4,-34(a5) # 8bf4 <MySerNumInfo+0x94>
    3c1e:	08d77753          	fsub.s	fa4,fa4,fa3
    3c22:	08f77753          	fsub.s	fa4,fa4,fa5
    3c26:	00005797          	auipc	a5,0x5
    3c2a:	fb67a607          	flw	fa2,-74(a5) # 8bdc <MySerNumInfo+0x7c>
    3c2e:	10c77753          	fmul.s	fa4,fa4,fa2
    3c32:	7ae52027          	fsw	fa4,1952(a0)
    3c36:	00e6f753          	fadd.s	fa4,fa3,fa4
    3c3a:	78e52c27          	fsw	fa4,1944(a0)
    3c3e:	00e7f7d3          	fadd.s	fa5,fa5,fa4
    3c42:	78f52e27          	fsw	fa5,1948(a0)
    3c46:	b731                	j	3b52 <Motor::measureResistance()+0xc0>
    3c48:	f0000753          	fmv.w.x	fa4,zero
    3c4c:	00e7f7d3          	fadd.s	fa5,fa5,fa4
    3c50:	00005797          	auipc	a5,0x5
    3c54:	fa47a707          	flw	fa4,-92(a5) # 8bf4 <MySerNumInfo+0x94>
    3c58:	08f77753          	fsub.s	fa4,fa4,fa5
    3c5c:	00005797          	auipc	a5,0x5
    3c60:	f807a687          	flw	fa3,-128(a5) # 8bdc <MySerNumInfo+0x7c>
    3c64:	10d77753          	fmul.s	fa4,fa4,fa3
    3c68:	78e52c27          	fsw	fa4,1944(a0)
    3c6c:	00e7f7d3          	fadd.s	fa5,fa5,fa4
    3c70:	7af52027          	fsw	fa5,1952(a0)
    3c74:	78f52e27          	fsw	fa5,1948(a0)
    3c78:	bde9                	j	3b52 <Motor::measureResistance()+0xc0>

00003c7a <Motor::getResistance()>:
    3c7a:	70052787          	flw	fa5,1792(a0)
    3c7e:	6f852707          	flw	fa4,1784(a0)
    3c82:	18e7f7d3          	fdiv.s	fa5,fa5,fa4
    3c86:	f0000753          	fmv.w.x	fa4,zero
    3c8a:	a0e797d3          	flt.s	a5,fa5,fa4
    3c8e:	ef89                	bnez	a5,3ca8 <Motor::getResistance()+0x2e>
    3c90:	70f52627          	fsw	fa5,1804(a0)
    3c94:	415c                	lw	a5,4(a0)
    3c96:	02079223          	sh	zero,36(a5)
    3c9a:	6a052c23          	sw	zero,1720(a0)
    3c9e:	6a052023          	sw	zero,1696(a0)
    3ca2:	6a052623          	sw	zero,1708(a0)
    3ca6:	8082                	ret
    3ca8:	20f797d3          	fneg.s	fa5,fa5
    3cac:	b7d5                	j	3c90 <Motor::getResistance()+0x16>

00003cae <Motor::measureInductance(unsigned long)>:
    3cae:	67852707          	flw	fa4,1656(a0)
    3cb2:	71854783          	lbu	a5,1816(a0)
    3cb6:	c7c5                	beqz	a5,3d5e <Motor::measureInductance(unsigned long)+0xb0>
    3cb8:	71452787          	flw	fa5,1812(a0)
    3cbc:	f00006d3          	fmv.w.x	fa3,zero
    3cc0:	a0f687d3          	fle.s	a5,fa3,fa5
    3cc4:	cbc1                	beqz	a5,3d54 <Motor::measureInductance(unsigned long)+0xa6>
    3cc6:	00005797          	auipc	a5,0x5
    3cca:	f2e7a787          	flw	fa5,-210(a5) # 8bf4 <MySerNumInfo+0x94>
    3cce:	20f797d3          	fneg.s	fa5,fa5
    3cd2:	72052687          	flw	fa3,1824(a0)
    3cd6:	08d776d3          	fsub.s	fa3,fa4,fa3
    3cda:	10d7f7d3          	fmul.s	fa5,fa5,fa3
    3cde:	72452687          	flw	fa3,1828(a0)
    3ce2:	00f6f7d3          	fadd.s	fa5,fa3,fa5
    3ce6:	72f52227          	fsw	fa5,1828(a0)
    3cea:	72e52027          	fsw	fa4,1824(a0)
    3cee:	72b52623          	sw	a1,1836(a0)
    3cf2:	71452787          	flw	fa5,1812(a0)
    3cf6:	20f797d3          	fneg.s	fa5,fa5
    3cfa:	70f52a27          	fsw	fa5,1812(a0)
    3cfe:	68052707          	flw	fa4,1664(a0)
    3d02:	00005797          	auipc	a5,0x5
    3d06:	ede7a687          	flw	fa3,-290(a5) # 8be0 <MySerNumInfo+0x80>
    3d0a:	10d776d3          	fmul.s	fa3,fa4,fa3
    3d0e:	00005797          	auipc	a5,0x5
    3d12:	ee67a707          	flw	fa4,-282(a5) # 8bf4 <MySerNumInfo+0x94>
    3d16:	18d77753          	fdiv.s	fa4,fa4,fa3
    3d1a:	10e7f7d3          	fmul.s	fa5,fa5,fa4
    3d1e:	65c50713          	addi	a4,a0,1628
    3d22:	f0000753          	fmv.w.x	fa4,zero
    3d26:	a0f707d3          	fle.s	a5,fa4,fa5
    3d2a:	c7a1                	beqz	a5,3d72 <Motor::measureInductance(unsigned long)+0xc4>
    3d2c:	a0e797d3          	flt.s	a5,fa5,fa4
    3d30:	cf8d                	beqz	a5,3d6a <Motor::measureInductance(unsigned long)+0xbc>
    3d32:	4789                	li	a5,2
    3d34:	7af52223          	sw	a5,1956(a0)
    3d38:	7a452783          	lw	a5,1956(a0)
    3d3c:	4699                	li	a3,6
    3d3e:	06f6ef63          	bltu	a3,a5,3dbc <Motor::measureInductance(unsigned long)+0x10e>
    3d42:	078a                	slli	a5,a5,0x2
    3d44:	00005697          	auipc	a3,0x5
    3d48:	fa068693          	addi	a3,a3,-96 # 8ce4 <MySerNumInfo+0x184>
    3d4c:	97b6                	add	a5,a5,a3
    3d4e:	439c                	lw	a5,0(a5)
    3d50:	97b6                	add	a5,a5,a3
    3d52:	8782                	jr	a5
    3d54:	00005797          	auipc	a5,0x5
    3d58:	0087a787          	flw	fa5,8(a5) # 8d5c <MySerNumInfo+0x1fc>
    3d5c:	bf8d                	j	3cce <Motor::measureInductance(unsigned long)+0x20>
    3d5e:	72b52423          	sw	a1,1832(a0)
    3d62:	4785                	li	a5,1
    3d64:	70f50c23          	sb	a5,1816(a0)
    3d68:	b749                	j	3cea <Motor::measureInductance(unsigned long)+0x3c>
    3d6a:	4785                	li	a5,1
    3d6c:	7af52223          	sw	a5,1956(a0)
    3d70:	b7e1                	j	3d38 <Motor::measureInductance(unsigned long)+0x8a>
    3d72:	f0000753          	fmv.w.x	fa4,zero
    3d76:	a0e797d3          	flt.s	a5,fa5,fa4
    3d7a:	c789                	beqz	a5,3d84 <Motor::measureInductance(unsigned long)+0xd6>
    3d7c:	478d                	li	a5,3
    3d7e:	7af52223          	sw	a5,1956(a0)
    3d82:	bf5d                	j	3d38 <Motor::measureInductance(unsigned long)+0x8a>
    3d84:	4789                	li	a5,2
    3d86:	7af52223          	sw	a5,1956(a0)
    3d8a:	b77d                	j	3d38 <Motor::measureInductance(unsigned long)+0x8a>
    3d8c:	00005797          	auipc	a5,0x5
    3d90:	e687a707          	flw	fa4,-408(a5) # 8bf4 <MySerNumInfo+0x94>
    3d94:	08f77753          	fsub.s	fa4,fa4,fa5
    3d98:	00005797          	auipc	a5,0x5
    3d9c:	e447a687          	flw	fa3,-444(a5) # 8bdc <MySerNumInfo+0x7c>
    3da0:	10d77753          	fmul.s	fa4,fa4,fa3
    3da4:	78e52c27          	fsw	fa4,1944(a0)
    3da8:	00e7f7d3          	fadd.s	fa5,fa5,fa4
    3dac:	78f52e27          	fsw	fa5,1948(a0)
    3db0:	f0000753          	fmv.w.x	fa4,zero
    3db4:	00e7f7d3          	fadd.s	fa5,fa5,fa4
    3db8:	7af52027          	fsw	fa5,1952(a0)
    3dbc:	79852787          	flw	fa5,1944(a0)
    3dc0:	64f52e27          	fsw	fa5,1628(a0)
    3dc4:	79c52787          	flw	fa5,1948(a0)
    3dc8:	e35c                	fsw	fa5,4(a4)
    3dca:	7a052787          	flw	fa5,1952(a0)
    3dce:	e71c                	fsw	fa5,8(a4)
    3dd0:	8082                	ret
    3dd2:	f0000753          	fmv.w.x	fa4,zero
    3dd6:	00e7f6d3          	fadd.s	fa3,fa5,fa4
    3dda:	08f777d3          	fsub.s	fa5,fa4,fa5
    3dde:	00005797          	auipc	a5,0x5
    3de2:	e167a707          	flw	fa4,-490(a5) # 8bf4 <MySerNumInfo+0x94>
    3de6:	08d77753          	fsub.s	fa4,fa4,fa3
    3dea:	08f77753          	fsub.s	fa4,fa4,fa5
    3dee:	00005797          	auipc	a5,0x5
    3df2:	dee7a607          	flw	fa2,-530(a5) # 8bdc <MySerNumInfo+0x7c>
    3df6:	10c77753          	fmul.s	fa4,fa4,fa2
    3dfa:	78e52e27          	fsw	fa4,1948(a0)
    3dfe:	00e7f7d3          	fadd.s	fa5,fa5,fa4
    3e02:	78f52c27          	fsw	fa5,1944(a0)
    3e06:	00f6f7d3          	fadd.s	fa5,fa3,fa5
    3e0a:	7af52027          	fsw	fa5,1952(a0)
    3e0e:	b77d                	j	3dbc <Motor::measureInductance(unsigned long)+0x10e>
    3e10:	20f797d3          	fneg.s	fa5,fa5
    3e14:	00005797          	auipc	a5,0x5
    3e18:	de07a707          	flw	fa4,-544(a5) # 8bf4 <MySerNumInfo+0x94>
    3e1c:	08f77753          	fsub.s	fa4,fa4,fa5
    3e20:	00005797          	auipc	a5,0x5
    3e24:	dbc7a687          	flw	fa3,-580(a5) # 8bdc <MySerNumInfo+0x7c>
    3e28:	10d77753          	fmul.s	fa4,fa4,fa3
    3e2c:	78e52e27          	fsw	fa4,1948(a0)
    3e30:	f00006d3          	fmv.w.x	fa3,zero
    3e34:	00d77753          	fadd.s	fa4,fa4,fa3
    3e38:	7ae52027          	fsw	fa4,1952(a0)
    3e3c:	00e7f7d3          	fadd.s	fa5,fa5,fa4
    3e40:	78f52c27          	fsw	fa5,1944(a0)
    3e44:	bfa5                	j	3dbc <Motor::measureInductance(unsigned long)+0x10e>
    3e46:	f00006d3          	fmv.w.x	fa3,zero
    3e4a:	08f6f7d3          	fsub.s	fa5,fa3,fa5
    3e4e:	00005797          	auipc	a5,0x5
    3e52:	da67a707          	flw	fa4,-602(a5) # 8bf4 <MySerNumInfo+0x94>
    3e56:	08f77753          	fsub.s	fa4,fa4,fa5
    3e5a:	00d77753          	fadd.s	fa4,fa4,fa3
    3e5e:	00005797          	auipc	a5,0x5
    3e62:	d7e7a687          	flw	fa3,-642(a5) # 8bdc <MySerNumInfo+0x7c>
    3e66:	10d77753          	fmul.s	fa4,fa4,fa3
    3e6a:	7ae52027          	fsw	fa4,1952(a0)
    3e6e:	78e52e27          	fsw	fa4,1948(a0)
    3e72:	00e7f7d3          	fadd.s	fa5,fa5,fa4
    3e76:	78f52c27          	fsw	fa5,1944(a0)
    3e7a:	b789                	j	3dbc <Motor::measureInductance(unsigned long)+0x10e>
    3e7c:	20f796d3          	fneg.s	fa3,fa5
    3e80:	00005797          	auipc	a5,0x5
    3e84:	d747a707          	flw	fa4,-652(a5) # 8bf4 <MySerNumInfo+0x94>
    3e88:	08d77753          	fsub.s	fa4,fa4,fa3
    3e8c:	08f77753          	fsub.s	fa4,fa4,fa5
    3e90:	00005797          	auipc	a5,0x5
    3e94:	d4c7a607          	flw	fa2,-692(a5) # 8bdc <MySerNumInfo+0x7c>
    3e98:	10c77753          	fmul.s	fa4,fa4,fa2
    3e9c:	7ae52027          	fsw	fa4,1952(a0)
    3ea0:	00e6f753          	fadd.s	fa4,fa3,fa4
    3ea4:	78e52c27          	fsw	fa4,1944(a0)
    3ea8:	00e7f7d3          	fadd.s	fa5,fa5,fa4
    3eac:	78f52e27          	fsw	fa5,1948(a0)
    3eb0:	b731                	j	3dbc <Motor::measureInductance(unsigned long)+0x10e>
    3eb2:	f0000753          	fmv.w.x	fa4,zero
    3eb6:	00e7f7d3          	fadd.s	fa5,fa5,fa4
    3eba:	00005797          	auipc	a5,0x5
    3ebe:	d3a7a707          	flw	fa4,-710(a5) # 8bf4 <MySerNumInfo+0x94>
    3ec2:	08f77753          	fsub.s	fa4,fa4,fa5
    3ec6:	00005797          	auipc	a5,0x5
    3eca:	d167a687          	flw	fa3,-746(a5) # 8bdc <MySerNumInfo+0x7c>
    3ece:	10d77753          	fmul.s	fa4,fa4,fa3
    3ed2:	78e52c27          	fsw	fa4,1944(a0)
    3ed6:	00e7f7d3          	fadd.s	fa5,fa5,fa4
    3eda:	7af52027          	fsw	fa5,1952(a0)
    3ede:	78f52e27          	fsw	fa5,1948(a0)
    3ee2:	bde9                	j	3dbc <Motor::measureInductance(unsigned long)+0x10e>

00003ee4 <Motor::getInductance()>:
    3ee4:	72c52783          	lw	a5,1836(a0)
    3ee8:	72852703          	lw	a4,1832(a0)
    3eec:	8f99                	sub	a5,a5,a4
    3eee:	d017f7d3          	fcvt.s.wu	fa5,a5
    3ef2:	00005797          	auipc	a5,0x5
    3ef6:	e4a7a707          	flw	fa4,-438(a5) # 8d3c <MySerNumInfo+0x1dc>
    3efa:	10e7f7d3          	fmul.s	fa5,fa5,fa4
    3efe:	71452707          	flw	fa4,1812(a0)
    3f02:	72452687          	flw	fa3,1828(a0)
    3f06:	18f6f7d3          	fdiv.s	fa5,fa3,fa5
    3f0a:	18f777d3          	fdiv.s	fa5,fa4,fa5
    3f0e:	f0000753          	fmv.w.x	fa4,zero
    3f12:	a0e797d3          	flt.s	a5,fa5,fa4
    3f16:	e781                	bnez	a5,3f1e <Motor::getInductance()+0x3a>
    3f18:	72f52827          	fsw	fa5,1840(a0)
    3f1c:	8082                	ret
    3f1e:	20f797d3          	fneg.s	fa5,fa5
    3f22:	bfdd                	j	3f18 <Motor::getInductance()+0x34>

00003f24 <Motor::shut()>:
    3f24:	00005797          	auipc	a5,0x5
    3f28:	cb87a787          	flw	fa5,-840(a5) # 8bdc <MySerNumInfo+0x7c>
    3f2c:	64f52e27          	fsw	fa5,1628(a0)
    3f30:	66f52027          	fsw	fa5,1632(a0)
    3f34:	66f52227          	fsw	fa5,1636(a0)
    3f38:	8082                	ret

00003f3a <Motor::measurePhasePhaseVel()>:
    3f3a:	adcfc2ef          	jal	t0,216 <__riscv_save_4>
    3f3e:	7179                	addi	sp,sp,-48
    3f40:	f622                	fsw	fs0,44(sp)
    3f42:	f426                	fsw	fs1,40(sp)
    3f44:	f24a                	fsw	fs2,36(sp)
    3f46:	f04e                	fsw	fs3,32(sp)
    3f48:	ee52                	fsw	fs4,28(sp)
    3f4a:	ec56                	fsw	fs5,24(sp)
    3f4c:	ea5a                	fsw	fs6,20(sp)
    3f4e:	e85e                	fsw	fs7,16(sp)
    3f50:	e662                	fsw	fs8,12(sp)
    3f52:	842a                	mv	s0,a0
    3f54:	68c52783          	lw	a5,1676(a0)
    3f58:	ef81                	bnez	a5,3f70 <Motor::measurePhasePhaseVel()+0x36>
    3f5a:	415c                	lw	a5,4(a0)
    3f5c:	0247d983          	lhu	s3,36(a5)
    3f60:	09c2                	slli	s3,s3,0x10
    3f62:	4109d993          	srai	s3,s3,0x10
    3f66:	6b051783          	lh	a5,1712(a0)
    3f6a:	40f989b3          	sub	s3,s3,a5
    3f6e:	a011                	j	3f72 <Motor::measurePhasePhaseVel()+0x38>
    3f70:	4981                	li	s3,0
    3f72:	6b042903          	lw	s2,1712(s0)
    3f76:	994e                	add	s2,s2,s3
    3f78:	6b242823          	sw	s2,1712(s0)
    3f7c:	6b442483          	lw	s1,1716(s0)
    3f80:	94ce                	add	s1,s1,s3
    3f82:	08442a03          	lw	s4,132(s0)
    3f86:	0344e4b3          	rem	s1,s1,s4
    3f8a:	0e04cd63          	bltz	s1,4084 <Motor::measurePhasePhaseVel()+0x14a>
    3f8e:	6a942a23          	sw	s1,1716(s0)
    3f92:	6b842a87          	flw	fs5,1720(s0)
    3f96:	6c042b07          	flw	fs6,1728(s0)
    3f9a:	00005797          	auipc	a5,0x5
    3f9e:	da27ac07          	flw	fs8,-606(a5) # 8d3c <MySerNumInfo+0x1dc>
    3fa2:	118b7453          	fmul.s	fs0,fs6,fs8
    3fa6:	6bc42987          	flw	fs3,1724(s0)
    3faa:	01347bd3          	fadd.s	fs7,fs0,fs3
    3fae:	01547453          	fadd.s	fs0,fs0,fs5
    3fb2:	217b8553          	fmv.s	fa0,fs7
    3fb6:	73b000ef          	jal	ra,4ef0 <floorf>
    3fba:	c00517d3          	fcvt.w.s	a5,fa0,rtz
    3fbe:	40f90933          	sub	s2,s2,a5
    3fc2:	d00979d3          	fcvt.s.w	fs3,s2
    3fc6:	20840553          	fmv.s	fa0,fs0
    3fca:	727000ef          	jal	ra,4ef0 <floorf>
    3fce:	c00517d3          	fcvt.w.s	a5,fa0,rtz
    3fd2:	40f487b3          	sub	a5,s1,a5
    3fd6:	d007f953          	fcvt.s.w	fs2,a5
    3fda:	d00a74d3          	fcvt.s.w	fs1,s4
    3fde:	18997553          	fdiv.s	fa0,fs2,fs1
    3fe2:	7c1000ef          	jal	ra,4fa2 <nearbyintf>
    3fe6:	10a4f553          	fmul.s	fa0,fs1,fa0
    3fea:	08a97953          	fsub.s	fs2,fs2,fa0
    3fee:	6c442787          	flw	fa5,1732(s0)
    3ff2:	08f97753          	fsub.s	fa4,fs2,fa5
    3ff6:	00005797          	auipc	a5,0x5
    3ffa:	c667a687          	flw	fa3,-922(a5) # 8c5c <MySerNumInfo+0xfc>
    3ffe:	10d77753          	fmul.s	fa4,fa4,fa3
    4002:	00e7f7d3          	fadd.s	fa5,fa5,fa4
    4006:	6cf42227          	fsw	fa5,1732(s0)
    400a:	6c842507          	flw	fa0,1736(s0)
    400e:	11857553          	fmul.s	fa0,fa0,fs8
    4012:	113579d3          	fmul.s	fs3,fa0,fs3
    4016:	013bf9d3          	fadd.s	fs3,fs7,fs3
    401a:	6b342e27          	fsw	fs3,1724(s0)
    401e:	11257553          	fmul.s	fa0,fa0,fs2
    4022:	00a47453          	fadd.s	fs0,fs0,fa0
    4026:	18947553          	fdiv.s	fa0,fs0,fs1
    402a:	779000ef          	jal	ra,4fa2 <nearbyintf>
    402e:	10a4f553          	fmul.s	fa0,fs1,fa0
    4032:	08a47553          	fsub.s	fa0,fs0,fa0
    4036:	f00007d3          	fmv.w.x	fa5,zero
    403a:	a0f517d3          	flt.s	a5,fa0,fa5
    403e:	e7a9                	bnez	a5,4088 <Motor::measurePhasePhaseVel()+0x14e>
    4040:	6aa42c27          	fsw	fa0,1720(s0)
    4044:	6cc42787          	flw	fa5,1740(s0)
    4048:	00005797          	auipc	a5,0x5
    404c:	cf47a707          	flw	fa4,-780(a5) # 8d3c <MySerNumInfo+0x1dc>
    4050:	10e7f753          	fmul.s	fa4,fa5,fa4
    4054:	11277953          	fmul.s	fs2,fa4,fs2
    4058:	012b7953          	fadd.s	fs2,fs6,fs2
    405c:	6d242027          	fsw	fs2,1728(s0)
    4060:	f0000753          	fmv.w.x	fa4,zero
    4064:	a0e917d3          	flt.s	a5,fs2,fa4
    4068:	e39d                	bnez	a5,408e <Motor::measurePhasePhaseVel()+0x154>
    406a:	00005797          	auipc	a5,0x5
    406e:	cf67a707          	flw	fa4,-778(a5) # 8d60 <MySerNumInfo+0x200>
    4072:	10e7f7d3          	fmul.s	fa5,fa5,fa4
    4076:	a0f917d3          	flt.s	a5,fs2,fa5
    407a:	cf89                	beqz	a5,4094 <Motor::measurePhasePhaseVel()+0x15a>
    407c:	6c042023          	sw	zero,1728(s0)
    4080:	4905                	li	s2,1
    4082:	a811                	j	4096 <Motor::measurePhasePhaseVel()+0x15c>
    4084:	94d2                	add	s1,s1,s4
    4086:	b721                	j	3f8e <Motor::measurePhasePhaseVel()+0x54>
    4088:	00957553          	fadd.s	fa0,fa0,fs1
    408c:	bf55                	j	4040 <Motor::measurePhasePhaseVel()+0x106>
    408e:	21291953          	fneg.s	fs2,fs2
    4092:	bfe1                	j	406a <Motor::measurePhasePhaseVel()+0x130>
    4094:	4901                	li	s2,0
    4096:	1899f9d3          	fdiv.s	fs3,fs3,fs1
    409a:	6d342827          	fsw	fs3,1744(s0)
    409e:	6c042a07          	flw	fs4,1728(s0)
    40a2:	189a7953          	fdiv.s	fs2,fs4,fs1
    40a6:	6d242a27          	fsw	fs2,1748(s0)
    40aa:	6d842987          	flw	fs3,1752(s0)
    40ae:	09557553          	fsub.s	fa0,fa0,fs5
    40b2:	18957453          	fdiv.s	fs0,fa0,fs1
    40b6:	20840553          	fmv.s	fa0,fs0
    40ba:	6e9000ef          	jal	ra,4fa2 <nearbyintf>
    40be:	08a47553          	fsub.s	fa0,fs0,fa0
    40c2:	00a9f553          	fadd.s	fa0,fs3,fa0
    40c6:	6ca42c27          	fsw	fa0,1752(s0)
    40ca:	00091563          	bnez	s2,40d4 <Motor::measurePhasePhaseVel()+0x19a>
    40ce:	09544783          	lbu	a5,149(s0)
    40d2:	ebd1                	bnez	a5,4166 <Motor::measurePhasePhaseVel()+0x22c>
    40d4:	00005797          	auipc	a5,0x5
    40d8:	b087a787          	flw	fa5,-1272(a5) # 8bdc <MySerNumInfo+0x7c>
    40dc:	6cf42e27          	fsw	fa5,1756(s0)
    40e0:	6dc42507          	flw	fa0,1756(s0)
    40e4:	d004f453          	fcvt.s.w	fs0,s1
    40e8:	00a47453          	fadd.s	fs0,fs0,fa0
    40ec:	4444                	lw	s1,12(s0)
    40ee:	00149793          	slli	a5,s1,0x1
    40f2:	d007f553          	fcvt.s.w	fa0,a5
    40f6:	00005797          	auipc	a5,0x5
    40fa:	b7e7a787          	flw	fa5,-1154(a5) # 8c74 <MySerNumInfo+0x114>
    40fe:	10f57553          	fmul.s	fa0,fa0,fa5
    4102:	00005797          	auipc	a5,0x5
    4106:	af27a787          	flw	fa5,-1294(a5) # 8bf4 <MySerNumInfo+0x94>
    410a:	1897f4d3          	fdiv.s	fs1,fa5,fs1
    410e:	109574d3          	fmul.s	fs1,fa0,fs1
    4112:	10947453          	fmul.s	fs0,fs0,fs1
    4116:	00005797          	auipc	a5,0x5
    411a:	c4e7a487          	flw	fs1,-946(a5) # 8d64 <MySerNumInfo+0x204>
    411e:	18947553          	fdiv.s	fa0,fs0,fs1
    4122:	681000ef          	jal	ra,4fa2 <nearbyintf>
    4126:	10957553          	fmul.s	fa0,fa0,fs1
    412a:	08a47453          	fsub.s	fs0,fs0,fa0
    412e:	09042783          	lw	a5,144(s0)
    4132:	d007f553          	fcvt.s.w	fa0,a5
    4136:	10857453          	fmul.s	fs0,fa0,fs0
    413a:	6a842027          	fsw	fs0,1696(s0)
    413e:	109977d3          	fmul.s	fa5,fs2,fs1
    4142:	d004f753          	fcvt.s.w	fa4,s1
    4146:	10e7f7d3          	fmul.s	fa5,fa5,fa4
    414a:	6af42627          	fsw	fa5,1708(s0)
    414e:	7432                	flw	fs0,44(sp)
    4150:	74a2                	flw	fs1,40(sp)
    4152:	7912                	flw	fs2,36(sp)
    4154:	7982                	flw	fs3,32(sp)
    4156:	6a72                	flw	fs4,28(sp)
    4158:	6ae2                	flw	fs5,24(sp)
    415a:	6b52                	flw	fs6,20(sp)
    415c:	6bc2                	flw	fs7,16(sp)
    415e:	6c32                	flw	fs8,12(sp)
    4160:	6145                	addi	sp,sp,48
    4162:	8e8fc06f          	j	24a <__riscv_restore_4>
    4166:	01305563          	blez	s3,4170 <Motor::measurePhasePhaseVel()+0x236>
    416a:	6c042e23          	sw	zero,1756(s0)
    416e:	bf8d                	j	40e0 <Motor::measurePhasePhaseVel()+0x1a6>
    4170:	0409c163          	bltz	s3,41b2 <Motor::measurePhasePhaseVel()+0x278>
    4174:	00005797          	auipc	a5,0x5
    4178:	bc87a787          	flw	fa5,-1080(a5) # 8d3c <MySerNumInfo+0x1dc>
    417c:	10fa7a53          	fmul.s	fs4,fs4,fa5
    4180:	6dc42787          	flw	fa5,1756(s0)
    4184:	00fa7a53          	fadd.s	fs4,fs4,fa5
    4188:	6d442e27          	fsw	fs4,1756(s0)
    418c:	00005797          	auipc	a5,0x5
    4190:	a687a787          	flw	fa5,-1432(a5) # 8bf4 <MySerNumInfo+0x94>
    4194:	a14797d3          	flt.s	a5,fa5,fs4
    4198:	c399                	beqz	a5,419e <Motor::measurePhasePhaseVel()+0x264>
    419a:	6cf42e27          	fsw	fa5,1756(s0)
    419e:	6dc42787          	flw	fa5,1756(s0)
    41a2:	f0000753          	fmv.w.x	fa4,zero
    41a6:	a0e797d3          	flt.s	a5,fa5,fa4
    41aa:	db9d                	beqz	a5,40e0 <Motor::measurePhasePhaseVel()+0x1a6>
    41ac:	6ce42e27          	fsw	fa4,1756(s0)
    41b0:	bf05                	j	40e0 <Motor::measurePhasePhaseVel()+0x1a6>
    41b2:	00005797          	auipc	a5,0x5
    41b6:	a427a787          	flw	fa5,-1470(a5) # 8bf4 <MySerNumInfo+0x94>
    41ba:	6cf42e27          	fsw	fa5,1756(s0)
    41be:	b70d                	j	40e0 <Motor::measurePhasePhaseVel()+0x1a6>

000041c0 <Motor::measureEncoder(unsigned long)>:
    41c0:	870fc2ef          	jal	t0,230 <__riscv_save_0>
    41c4:	1101                	addi	sp,sp,-32
    41c6:	ee22                	fsw	fs0,28(sp)
    41c8:	ec26                	fsw	fs1,24(sp)
    41ca:	ea4a                	fsw	fs2,20(sp)
    41cc:	e84e                	fsw	fs3,16(sp)
    41ce:	e652                	fsw	fs4,12(sp)
    41d0:	842a                	mv	s0,a0
    41d2:	0ff5f793          	andi	a5,a1,255
    41d6:	6e054703          	lbu	a4,1760(a0)
    41da:	8f99                	sub	a5,a5,a4
    41dc:	0ff7f493          	andi	s1,a5,255
    41e0:	6eb52023          	sw	a1,1760(a0)
    41e4:	77c52407          	flw	fs0,1916(a0)
    41e8:	69852487          	flw	fs1,1688(a0)
    41ec:	109474d3          	fmul.s	fs1,fs0,fs1
    41f0:	78952027          	fsw	fs1,1920(a0)
    41f4:	69c52787          	flw	fa5,1692(a0)
    41f8:	10f47453          	fmul.s	fs0,fs0,fa5
    41fc:	78852227          	fsw	fs0,1924(a0)
    4200:	00005797          	auipc	a5,0x5
    4204:	b407a787          	flw	fa5,-1216(a5) # 8d40 <MySerNumInfo+0x1e0>
    4208:	68f52a27          	fsw	fa5,1684(a0)
    420c:	09754783          	lbu	a5,151(a0)
    4210:	10079863          	bnez	a5,4320 <Motor::measureEncoder(unsigned long)+0x160>
    4214:	69052a07          	flw	fs4,1680(a0)
    4218:	214a0553          	fmv.s	fa0,fs4
    421c:	45b000ef          	jal	ra,4e76 <cosf>
    4220:	20a509d3          	fmv.s	fs3,fa0
    4224:	10a4f953          	fmul.s	fs2,fs1,fa0
    4228:	214a0553          	fmv.s	fa0,fs4
    422c:	64b000ef          	jal	ra,5076 <sinf>
    4230:	10a477d3          	fmul.s	fa5,fs0,fa0
    4234:	08f97953          	fsub.s	fs2,fs2,fa5
    4238:	79242427          	fsw	fs2,1928(s0)
    423c:	11347453          	fmul.s	fs0,fs0,fs3
    4240:	10a4f4d3          	fmul.s	fs1,fs1,fa0
    4244:	00947453          	fadd.s	fs0,fs0,fs1
    4248:	78842627          	fsw	fs0,1932(s0)
    424c:	09042783          	lw	a5,144(s0)
    4250:	4705                	li	a4,1
    4252:	06e78d63          	beq	a5,a4,42cc <Motor::measureEncoder(unsigned long)+0x10c>
    4256:	577d                	li	a4,-1
    4258:	08e78f63          	beq	a5,a4,42f6 <Motor::measureEncoder(unsigned long)+0x136>
    425c:	6e442407          	flw	fs0,1764(s0)
    4260:	00005797          	auipc	a5,0x5
    4264:	b047a487          	flw	fs1,-1276(a5) # 8d64 <MySerNumInfo+0x204>
    4268:	18947553          	fdiv.s	fa0,fs0,fs1
    426c:	537000ef          	jal	ra,4fa2 <nearbyintf>
    4270:	10957553          	fmul.s	fa0,fa0,fs1
    4274:	08a47453          	fsub.s	fs0,fs0,fa0
    4278:	68842827          	fsw	fs0,1680(s0)
    427c:	78842687          	flw	fa3,1928(s0)
    4280:	78c42787          	flw	fa5,1932(s0)
    4284:	65c40713          	addi	a4,s0,1628
    4288:	f0000753          	fmv.w.x	fa4,zero
    428c:	a0f707d3          	fle.s	a5,fa4,fa5
    4290:	cbf5                	beqz	a5,4384 <Motor::measureEncoder(unsigned long)+0x1c4>
    4292:	a0d707d3          	fle.s	a5,fa4,fa3
    4296:	c7f1                	beqz	a5,4362 <Motor::measureEncoder(unsigned long)+0x1a2>
    4298:	00005797          	auipc	a5,0x5
    429c:	9507a707          	flw	fa4,-1712(a5) # 8be8 <MySerNumInfo+0x88>
    42a0:	10e7f753          	fmul.s	fa4,fa5,fa4
    42a4:	a0e697d3          	flt.s	a5,fa3,fa4
    42a8:	cbcd                	beqz	a5,435a <Motor::measureEncoder(unsigned long)+0x19a>
    42aa:	4789                	li	a5,2
    42ac:	7af42223          	sw	a5,1956(s0)
    42b0:	7a442783          	lw	a5,1956(s0)
    42b4:	4699                	li	a3,6
    42b6:	16f6e463          	bltu	a3,a5,441e <Motor::measureEncoder(unsigned long)+0x25e>
    42ba:	078a                	slli	a5,a5,0x2
    42bc:	00005697          	auipc	a3,0x5
    42c0:	a4468693          	addi	a3,a3,-1468 # 8d00 <MySerNumInfo+0x1a0>
    42c4:	97b6                	add	a5,a5,a3
    42c6:	439c                	lw	a5,0(a5)
    42c8:	97b6                	add	a5,a5,a3
    42ca:	8782                	jr	a5
    42cc:	d004f7d3          	fcvt.s.w	fa5,s1
    42d0:	00005717          	auipc	a4,0x5
    42d4:	a7072707          	flw	fa4,-1424(a4) # 8d40 <MySerNumInfo+0x1e0>
    42d8:	10e7f7d3          	fmul.s	fa5,fa5,fa4
    42dc:	00005717          	auipc	a4,0x5
    42e0:	a6072707          	flw	fa4,-1440(a4) # 8d3c <MySerNumInfo+0x1dc>
    42e4:	10e7f7d3          	fmul.s	fa5,fa5,fa4
    42e8:	6e442707          	flw	fa4,1764(s0)
    42ec:	00f777d3          	fadd.s	fa5,fa4,fa5
    42f0:	6ef42227          	fsw	fa5,1764(s0)
    42f4:	b78d                	j	4256 <Motor::measureEncoder(unsigned long)+0x96>
    42f6:	d004f7d3          	fcvt.s.w	fa5,s1
    42fa:	00005797          	auipc	a5,0x5
    42fe:	a467a707          	flw	fa4,-1466(a5) # 8d40 <MySerNumInfo+0x1e0>
    4302:	10e7f7d3          	fmul.s	fa5,fa5,fa4
    4306:	00005797          	auipc	a5,0x5
    430a:	a367a707          	flw	fa4,-1482(a5) # 8d3c <MySerNumInfo+0x1dc>
    430e:	10e7f7d3          	fmul.s	fa5,fa5,fa4
    4312:	6e442707          	flw	fa4,1764(s0)
    4316:	00f777d3          	fadd.s	fa5,fa4,fa5
    431a:	6ef42227          	fsw	fa5,1764(s0)
    431e:	bf3d                	j	425c <Motor::measureEncoder(unsigned long)+0x9c>
    4320:	6a052a07          	flw	fs4,1696(a0)
    4324:	214a0553          	fmv.s	fa0,fs4
    4328:	34f000ef          	jal	ra,4e76 <cosf>
    432c:	20a509d3          	fmv.s	fs3,fa0
    4330:	10a4f953          	fmul.s	fs2,fs1,fa0
    4334:	214a0553          	fmv.s	fa0,fs4
    4338:	53f000ef          	jal	ra,5076 <sinf>
    433c:	10a477d3          	fmul.s	fa5,fs0,fa0
    4340:	08f97953          	fsub.s	fs2,fs2,fa5
    4344:	79242427          	fsw	fs2,1928(s0)
    4348:	11347453          	fmul.s	fs0,fs0,fs3
    434c:	10a4f4d3          	fmul.s	fs1,fs1,fa0
    4350:	00947453          	fadd.s	fs0,fs0,fs1
    4354:	78842627          	fsw	fs0,1932(s0)
    4358:	b715                	j	427c <Motor::measureEncoder(unsigned long)+0xbc>
    435a:	4785                	li	a5,1
    435c:	7af42223          	sw	a5,1956(s0)
    4360:	bf81                	j	42b0 <Motor::measureEncoder(unsigned long)+0xf0>
    4362:	00005797          	auipc	a5,0x5
    4366:	88a7a707          	flw	fa4,-1910(a5) # 8bec <MySerNumInfo+0x8c>
    436a:	10e7f753          	fmul.s	fa4,fa5,fa4
    436e:	a0e697d3          	flt.s	a5,fa3,fa4
    4372:	c789                	beqz	a5,437c <Motor::measureEncoder(unsigned long)+0x1bc>
    4374:	478d                	li	a5,3
    4376:	7af42223          	sw	a5,1956(s0)
    437a:	bf1d                	j	42b0 <Motor::measureEncoder(unsigned long)+0xf0>
    437c:	4789                	li	a5,2
    437e:	7af42223          	sw	a5,1956(s0)
    4382:	b73d                	j	42b0 <Motor::measureEncoder(unsigned long)+0xf0>
    4384:	f0000753          	fmv.w.x	fa4,zero
    4388:	a0d707d3          	fle.s	a5,fa4,fa3
    438c:	c395                	beqz	a5,43b0 <Motor::measureEncoder(unsigned long)+0x1f0>
    438e:	00005797          	auipc	a5,0x5
    4392:	85e7a707          	flw	fa4,-1954(a5) # 8bec <MySerNumInfo+0x8c>
    4396:	10e7f753          	fmul.s	fa4,fa5,fa4
    439a:	a0e697d3          	flt.s	a5,fa3,fa4
    439e:	c789                	beqz	a5,43a8 <Motor::measureEncoder(unsigned long)+0x1e8>
    43a0:	4795                	li	a5,5
    43a2:	7af42223          	sw	a5,1956(s0)
    43a6:	b729                	j	42b0 <Motor::measureEncoder(unsigned long)+0xf0>
    43a8:	4799                	li	a5,6
    43aa:	7af42223          	sw	a5,1956(s0)
    43ae:	b709                	j	42b0 <Motor::measureEncoder(unsigned long)+0xf0>
    43b0:	00005797          	auipc	a5,0x5
    43b4:	8387a707          	flw	fa4,-1992(a5) # 8be8 <MySerNumInfo+0x88>
    43b8:	10e7f753          	fmul.s	fa4,fa5,fa4
    43bc:	a0e697d3          	flt.s	a5,fa3,fa4
    43c0:	c789                	beqz	a5,43ca <Motor::measureEncoder(unsigned long)+0x20a>
    43c2:	4791                	li	a5,4
    43c4:	7af42223          	sw	a5,1956(s0)
    43c8:	b5e5                	j	42b0 <Motor::measureEncoder(unsigned long)+0xf0>
    43ca:	4795                	li	a5,5
    43cc:	7af42223          	sw	a5,1956(s0)
    43d0:	b5c5                	j	42b0 <Motor::measureEncoder(unsigned long)+0xf0>
    43d2:	00005797          	auipc	a5,0x5
    43d6:	8167a707          	flw	fa4,-2026(a5) # 8be8 <MySerNumInfo+0x88>
    43da:	10e7f753          	fmul.s	fa4,fa5,fa4
    43de:	08e6f6d3          	fsub.s	fa3,fa3,fa4
    43e2:	00005797          	auipc	a5,0x5
    43e6:	80e7a707          	flw	fa4,-2034(a5) # 8bf0 <MySerNumInfo+0x90>
    43ea:	10e7f7d3          	fmul.s	fa5,fa5,fa4
    43ee:	00005797          	auipc	a5,0x5
    43f2:	8067a707          	flw	fa4,-2042(a5) # 8bf4 <MySerNumInfo+0x94>
    43f6:	08d77753          	fsub.s	fa4,fa4,fa3
    43fa:	08f77753          	fsub.s	fa4,fa4,fa5
    43fe:	00004797          	auipc	a5,0x4
    4402:	7de7a607          	flw	fa2,2014(a5) # 8bdc <MySerNumInfo+0x7c>
    4406:	10c77753          	fmul.s	fa4,fa4,fa2
    440a:	78e42c27          	fsw	fa4,1944(s0)
    440e:	00e6f6d3          	fadd.s	fa3,fa3,fa4
    4412:	78d42e27          	fsw	fa3,1948(s0)
    4416:	00d7f7d3          	fadd.s	fa5,fa5,fa3
    441a:	7af42027          	fsw	fa5,1952(s0)
    441e:	79842787          	flw	fa5,1944(s0)
    4422:	64f42e27          	fsw	fa5,1628(s0)
    4426:	79c42787          	flw	fa5,1948(s0)
    442a:	e35c                	fsw	fa5,4(a4)
    442c:	7a042787          	flw	fa5,1952(s0)
    4430:	e71c                	fsw	fa5,8(a4)
    4432:	6472                	flw	fs0,28(sp)
    4434:	64e2                	flw	fs1,24(sp)
    4436:	6952                	flw	fs2,20(sp)
    4438:	69c2                	flw	fs3,16(sp)
    443a:	6a32                	flw	fs4,12(sp)
    443c:	6105                	addi	sp,sp,32
    443e:	e17fb06f          	j	254 <__riscv_restore_0>
    4442:	00004797          	auipc	a5,0x4
    4446:	7a67a707          	flw	fa4,1958(a5) # 8be8 <MySerNumInfo+0x88>
    444a:	10e7f7d3          	fmul.s	fa5,fa5,fa4
    444e:	00f6f653          	fadd.s	fa2,fa3,fa5
    4452:	08d7f7d3          	fsub.s	fa5,fa5,fa3
    4456:	00004797          	auipc	a5,0x4
    445a:	79e7a707          	flw	fa4,1950(a5) # 8bf4 <MySerNumInfo+0x94>
    445e:	08c77753          	fsub.s	fa4,fa4,fa2
    4462:	08f77753          	fsub.s	fa4,fa4,fa5
    4466:	00004797          	auipc	a5,0x4
    446a:	7767a687          	flw	fa3,1910(a5) # 8bdc <MySerNumInfo+0x7c>
    446e:	10d77753          	fmul.s	fa4,fa4,fa3
    4472:	78e42e27          	fsw	fa4,1948(s0)
    4476:	00e7f7d3          	fadd.s	fa5,fa5,fa4
    447a:	78f42c27          	fsw	fa5,1944(s0)
    447e:	00f677d3          	fadd.s	fa5,fa2,fa5
    4482:	7af42027          	fsw	fa5,1952(s0)
    4486:	bf61                	j	441e <Motor::measureEncoder(unsigned long)+0x25e>
    4488:	00004797          	auipc	a5,0x4
    448c:	7687a607          	flw	fa2,1896(a5) # 8bf0 <MySerNumInfo+0x90>
    4490:	10c7f653          	fmul.s	fa2,fa5,fa2
    4494:	20d696d3          	fneg.s	fa3,fa3
    4498:	00004797          	auipc	a5,0x4
    449c:	7507a707          	flw	fa4,1872(a5) # 8be8 <MySerNumInfo+0x88>
    44a0:	10e7f7d3          	fmul.s	fa5,fa5,fa4
    44a4:	08f6f7d3          	fsub.s	fa5,fa3,fa5
    44a8:	00004797          	auipc	a5,0x4
    44ac:	74c7a707          	flw	fa4,1868(a5) # 8bf4 <MySerNumInfo+0x94>
    44b0:	08c77753          	fsub.s	fa4,fa4,fa2
    44b4:	08f77753          	fsub.s	fa4,fa4,fa5
    44b8:	00004797          	auipc	a5,0x4
    44bc:	7247a687          	flw	fa3,1828(a5) # 8bdc <MySerNumInfo+0x7c>
    44c0:	10d77753          	fmul.s	fa4,fa4,fa3
    44c4:	78e42e27          	fsw	fa4,1948(s0)
    44c8:	00e67753          	fadd.s	fa4,fa2,fa4
    44cc:	7ae42027          	fsw	fa4,1952(s0)
    44d0:	00e7f7d3          	fadd.s	fa5,fa5,fa4
    44d4:	78f42c27          	fsw	fa5,1944(s0)
    44d8:	b799                	j	441e <Motor::measureEncoder(unsigned long)+0x25e>
    44da:	00004797          	auipc	a5,0x4
    44de:	70e7a707          	flw	fa4,1806(a5) # 8be8 <MySerNumInfo+0x88>
    44e2:	10e7f753          	fmul.s	fa4,fa5,fa4
    44e6:	08d776d3          	fsub.s	fa3,fa4,fa3
    44ea:	00004797          	auipc	a5,0x4
    44ee:	70e7a707          	flw	fa4,1806(a5) # 8bf8 <MySerNumInfo+0x98>
    44f2:	10e7f7d3          	fmul.s	fa5,fa5,fa4
    44f6:	00004797          	auipc	a5,0x4
    44fa:	6fe7a707          	flw	fa4,1790(a5) # 8bf4 <MySerNumInfo+0x94>
    44fe:	08d77753          	fsub.s	fa4,fa4,fa3
    4502:	08f77753          	fsub.s	fa4,fa4,fa5
    4506:	00004797          	auipc	a5,0x4
    450a:	6d67a607          	flw	fa2,1750(a5) # 8bdc <MySerNumInfo+0x7c>
    450e:	10c77753          	fmul.s	fa4,fa4,fa2
    4512:	7ae42027          	fsw	fa4,1952(s0)
    4516:	00e7f7d3          	fadd.s	fa5,fa5,fa4
    451a:	78f42e27          	fsw	fa5,1948(s0)
    451e:	00f6f6d3          	fadd.s	fa3,fa3,fa5
    4522:	78d42c27          	fsw	fa3,1944(s0)
    4526:	bde5                	j	441e <Motor::measureEncoder(unsigned long)+0x25e>
    4528:	20d69753          	fneg.s	fa4,fa3
    452c:	00004797          	auipc	a5,0x4
    4530:	6bc7a607          	flw	fa2,1724(a5) # 8be8 <MySerNumInfo+0x88>
    4534:	10c7f7d3          	fmul.s	fa5,fa5,fa2
    4538:	08f77653          	fsub.s	fa2,fa4,fa5
    453c:	08f6f7d3          	fsub.s	fa5,fa3,fa5
    4540:	00004797          	auipc	a5,0x4
    4544:	6b47a707          	flw	fa4,1716(a5) # 8bf4 <MySerNumInfo+0x94>
    4548:	08c77753          	fsub.s	fa4,fa4,fa2
    454c:	08f77753          	fsub.s	fa4,fa4,fa5
    4550:	00004797          	auipc	a5,0x4
    4554:	68c7a687          	flw	fa3,1676(a5) # 8bdc <MySerNumInfo+0x7c>
    4558:	10d77753          	fmul.s	fa4,fa4,fa3
    455c:	7ae42027          	fsw	fa4,1952(s0)
    4560:	00e67753          	fadd.s	fa4,fa2,fa4
    4564:	78e42c27          	fsw	fa4,1944(s0)
    4568:	00e7f7d3          	fadd.s	fa5,fa5,fa4
    456c:	78f42e27          	fsw	fa5,1948(s0)
    4570:	b57d                	j	441e <Motor::measureEncoder(unsigned long)+0x25e>
    4572:	00004797          	auipc	a5,0x4
    4576:	6867a607          	flw	fa2,1670(a5) # 8bf8 <MySerNumInfo+0x98>
    457a:	10c7f653          	fmul.s	fa2,fa5,fa2
    457e:	00004797          	auipc	a5,0x4
    4582:	66a7a707          	flw	fa4,1642(a5) # 8be8 <MySerNumInfo+0x88>
    4586:	10e7f7d3          	fmul.s	fa5,fa5,fa4
    458a:	00f6f7d3          	fadd.s	fa5,fa3,fa5
    458e:	00004797          	auipc	a5,0x4
    4592:	6667a707          	flw	fa4,1638(a5) # 8bf4 <MySerNumInfo+0x94>
    4596:	08c77753          	fsub.s	fa4,fa4,fa2
    459a:	08f77753          	fsub.s	fa4,fa4,fa5
    459e:	00004797          	auipc	a5,0x4
    45a2:	63e7a687          	flw	fa3,1598(a5) # 8bdc <MySerNumInfo+0x7c>
    45a6:	10d77753          	fmul.s	fa4,fa4,fa3
    45aa:	78e42c27          	fsw	fa4,1944(s0)
    45ae:	00e7f753          	fadd.s	fa4,fa5,fa4
    45b2:	7ae42027          	fsw	fa4,1952(s0)
    45b6:	00e67753          	fadd.s	fa4,fa2,fa4
    45ba:	78e42e27          	fsw	fa4,1948(s0)
    45be:	b585                	j	441e <Motor::measureEncoder(unsigned long)+0x25e>

000045c0 <Motor::get_alpha_beta_output(unsigned long, Motor::float2D*)>:
    45c0:	c71fb2ef          	jal	t0,230 <__riscv_save_0>
    45c4:	1101                	addi	sp,sp,-32
    45c6:	ee22                	fsw	fs0,28(sp)
    45c8:	ec26                	fsw	fs1,24(sp)
    45ca:	ea4a                	fsw	fs2,20(sp)
    45cc:	e84e                	fsw	fs3,16(sp)
    45ce:	e652                	fsw	fs4,12(sp)
    45d0:	e456                	fsw	fs5,8(sp)
    45d2:	842a                	mv	s0,a0
    45d4:	84ae                	mv	s1,a1
    45d6:	8932                	mv	s2,a2
    45d8:	7f052707          	flw	fa4,2032(a0)
    45dc:	09052783          	lw	a5,144(a0)
    45e0:	d007f7d3          	fcvt.s.w	fa5,a5
    45e4:	10e7f7d3          	fmul.s	fa5,fa5,fa4
    45e8:	66052823          	sw	zero,1648(a0)
    45ec:	7f452707          	flw	fa4,2036(a0)
    45f0:	18e7f7d3          	fdiv.s	fa5,fa5,fa4
    45f4:	66f52a27          	fsw	fa5,1652(a0)
    45f8:	73452507          	flw	fa0,1844(a0)
    45fc:	10a57553          	fmul.s	fa0,fa0,fa0
    4600:	f00007d3          	fmv.w.x	fa5,zero
    4604:	a0f507d3          	fle.s	a5,fa0,fa5
    4608:	cfa1                	beqz	a5,4660 <Motor::get_alpha_beta_output(unsigned long, Motor::float2D*)+0xa0>
    460a:	f0000553          	fmv.w.x	fa0,zero
    460e:	67442787          	flw	fa5,1652(s0)
    4612:	a0f517d3          	flt.s	a5,fa0,fa5
    4616:	cfa1                	beqz	a5,466e <Motor::get_alpha_beta_output(unsigned long, Motor::float2D*)+0xae>
    4618:	66a42a27          	fsw	fa0,1652(s0)
    461c:	05444783          	lbu	a5,84(s0)
    4620:	cfb9                	beqz	a5,467e <Motor::get_alpha_beta_output(unsigned long, Motor::float2D*)+0xbe>
    4622:	6ac42707          	flw	fa4,1708(s0)
    4626:	73042487          	flw	fs1,1840(s0)
    462a:	10977753          	fmul.s	fa4,fa4,fs1
    462e:	67442407          	flw	fs0,1652(s0)
    4632:	10877553          	fmul.s	fa0,fa4,fs0
    4636:	f00004d3          	fmv.w.x	fs1,zero
    463a:	08a4f553          	fsub.s	fa0,fs1,fa0
    463e:	67042907          	flw	fs2,1648(s0)
    4642:	11277753          	fmul.s	fa4,fa4,fs2
    4646:	00977753          	fadd.s	fa4,fa4,fs1
    464a:	70c42487          	flw	fs1,1804(s0)
    464e:	10997953          	fmul.s	fs2,fs2,fs1
    4652:	00a97953          	fadd.s	fs2,fs2,fa0
    4656:	109474d3          	fmul.s	fs1,fs0,fs1
    465a:	00e4f4d3          	fadd.s	fs1,fs1,fa4
    465e:	a025                	j	4686 <Motor::get_alpha_beta_output(unsigned long, Motor::float2D*)+0xc6>
    4660:	753030ef          	jal	ra,85b2 <__extendsfdf2>
    4664:	28b000ef          	jal	ra,50ee <sqrt>
    4668:	032040ef          	jal	ra,869a <__truncdfsf2>
    466c:	b74d                	j	460e <Motor::get_alpha_beta_output(unsigned long, Motor::float2D*)+0x4e>
    466e:	20a51553          	fneg.s	fa0,fa0
    4672:	a0a797d3          	flt.s	a5,fa5,fa0
    4676:	d3dd                	beqz	a5,461c <Motor::get_alpha_beta_output(unsigned long, Motor::float2D*)+0x5c>
    4678:	66a42a27          	fsw	fa0,1652(s0)
    467c:	b745                	j	461c <Motor::get_alpha_beta_output(unsigned long, Motor::float2D*)+0x5c>
    467e:	f00004d3          	fmv.w.x	fs1,zero
    4682:	20948953          	fmv.s	fs2,fs1
    4686:	05544783          	lbu	a5,85(s0)
    468a:	c38d                	beqz	a5,46ac <Motor::get_alpha_beta_output(unsigned long, Motor::float2D*)+0xec>
    468c:	6ac42787          	flw	fa5,1708(s0)
    4690:	00004797          	auipc	a5,0x4
    4694:	5507a707          	flw	fa4,1360(a5) # 8be0 <MySerNumInfo+0x80>
    4698:	10e7f7d3          	fmul.s	fa5,fa5,fa4
    469c:	00004797          	auipc	a5,0x4
    46a0:	6cc7a707          	flw	fa4,1740(a5) # 8d68 <MySerNumInfo+0x208>
    46a4:	10e7f7d3          	fmul.s	fa5,fa5,fa4
    46a8:	00f4f4d3          	fadd.s	fs1,fs1,fa5
    46ac:	67242427          	fsw	fs2,1640(s0)
    46b0:	66942627          	fsw	fs1,1644(s0)
    46b4:	67842987          	flw	fs3,1656(s0)
    46b8:	67c42407          	flw	fs0,1660(s0)
    46bc:	6a042a07          	flw	fs4,1696(s0)
    46c0:	6ac42787          	flw	fa5,1708(s0)
    46c4:	76c42783          	lw	a5,1900(s0)
    46c8:	40f487b3          	sub	a5,s1,a5
    46cc:	d017f753          	fcvt.s.wu	fa4,a5
    46d0:	10e7f7d3          	fmul.s	fa5,fa5,fa4
    46d4:	00004797          	auipc	a5,0x4
    46d8:	6687a707          	flw	fa4,1640(a5) # 8d3c <MySerNumInfo+0x1dc>
    46dc:	10e7f7d3          	fmul.s	fa5,fa5,fa4
    46e0:	00fa7a53          	fadd.s	fs4,fs4,fa5
    46e4:	214a0553          	fmv.s	fa0,fs4
    46e8:	78e000ef          	jal	ra,4e76 <cosf>
    46ec:	20a50ad3          	fmv.s	fs5,fa0
    46f0:	214a0553          	fmv.s	fa0,fs4
    46f4:	183000ef          	jal	ra,5076 <sinf>
    46f8:	1159f7d3          	fmul.s	fa5,fs3,fs5
    46fc:	10a47753          	fmul.s	fa4,fs0,fa0
    4700:	00e7f7d3          	fadd.s	fa5,fa5,fa4
    4704:	76f42827          	fsw	fa5,1904(s0)
    4708:	11547453          	fmul.s	fs0,fs0,fs5
    470c:	10a9f9d3          	fmul.s	fs3,fs3,fa0
    4710:	09347453          	fsub.s	fs0,fs0,fs3
    4714:	76842a27          	fsw	fs0,1908(s0)
    4718:	75042687          	flw	fa3,1872(s0)
    471c:	74042607          	flw	fa2,1856(s0)
    4720:	08d7f7d3          	fsub.s	fa5,fa5,fa3
    4724:	10f677d3          	fmul.s	fa5,fa2,fa5
    4728:	00f6f7d3          	fadd.s	fa5,fa3,fa5
    472c:	74f42827          	fsw	fa5,1872(s0)
    4730:	75442707          	flw	fa4,1876(s0)
    4734:	08e47453          	fsub.s	fs0,fs0,fa4
    4738:	10867453          	fmul.s	fs0,fa2,fs0
    473c:	00877753          	fadd.s	fa4,fa4,fs0
    4740:	74e42a27          	fsw	fa4,1876(s0)
    4744:	67042687          	flw	fa3,1648(s0)
    4748:	08f6f6d3          	fsub.s	fa3,fa3,fa5
    474c:	7ad42627          	fsw	fa3,1964(s0)
    4750:	67442407          	flw	fs0,1652(s0)
    4754:	08e47453          	fsub.s	fs0,fs0,fa4
    4758:	7a842827          	fsw	fs0,1968(s0)
    475c:	77c42707          	flw	fa4,1916(s0)
    4760:	75842787          	flw	fa5,1880(s0)
    4764:	0127f553          	fadd.s	fa0,fa5,fs2
    4768:	73842787          	flw	fa5,1848(s0)
    476c:	10f6f6d3          	fmul.s	fa3,fa3,fa5
    4770:	00d57553          	fadd.s	fa0,fa0,fa3
    4774:	10a77553          	fmul.s	fa0,fa4,fa0
    4778:	78a42027          	fsw	fa0,1920(s0)
    477c:	75c42687          	flw	fa3,1884(s0)
    4780:	0096f4d3          	fadd.s	fs1,fa3,fs1
    4784:	10f47453          	fmul.s	fs0,fs0,fa5
    4788:	0084f453          	fadd.s	fs0,fs1,fs0
    478c:	108777d3          	fmul.s	fa5,fa4,fs0
    4790:	78f42227          	fsw	fa5,1924(s0)
    4794:	10a57553          	fmul.s	fa0,fa0,fa0
    4798:	10f7f7d3          	fmul.s	fa5,fa5,fa5
    479c:	00f57553          	fadd.s	fa0,fa0,fa5
    47a0:	207000ef          	jal	ra,51a6 <sqrtf>
    47a4:	00004797          	auipc	a5,0x4
    47a8:	5c87a787          	flw	fa5,1480(a5) # 8d6c <MySerNumInfo+0x20c>
    47ac:	18a7f553          	fdiv.s	fa0,fa5,fa0
    47b0:	00004797          	auipc	a5,0x4
    47b4:	4447a787          	flw	fa5,1092(a5) # 8bf4 <MySerNumInfo+0x94>
    47b8:	a0f517d3          	flt.s	a5,fa0,fa5
    47bc:	efcd                	bnez	a5,4876 <Motor::get_alpha_beta_output(unsigned long, Motor::float2D*)+0x2b6>
    47be:	7ac42707          	flw	fa4,1964(s0)
    47c2:	73c42787          	flw	fa5,1852(s0)
    47c6:	00004797          	auipc	a5,0x4
    47ca:	5767a687          	flw	fa3,1398(a5) # 8d3c <MySerNumInfo+0x1dc>
    47ce:	10d7f7d3          	fmul.s	fa5,fa5,fa3
    47d2:	10f77753          	fmul.s	fa4,fa4,fa5
    47d6:	75842687          	flw	fa3,1880(s0)
    47da:	00e6f753          	fadd.s	fa4,fa3,fa4
    47de:	74e42c27          	fsw	fa4,1880(s0)
    47e2:	7b042707          	flw	fa4,1968(s0)
    47e6:	10e7f7d3          	fmul.s	fa5,fa5,fa4
    47ea:	75c42707          	flw	fa4,1884(s0)
    47ee:	00f777d3          	fadd.s	fa5,fa4,fa5
    47f2:	74f42e27          	fsw	fa5,1884(s0)
    47f6:	6a042407          	flw	fs0,1696(s0)
    47fa:	6ac42707          	flw	fa4,1708(s0)
    47fe:	76c42783          	lw	a5,1900(s0)
    4802:	40f487b3          	sub	a5,s1,a5
    4806:	d007f7d3          	fcvt.s.w	fa5,a5
    480a:	00004797          	auipc	a5,0x4
    480e:	5327a687          	flw	fa3,1330(a5) # 8d3c <MySerNumInfo+0x1dc>
    4812:	10d7f7d3          	fmul.s	fa5,fa5,fa3
    4816:	10f777d3          	fmul.s	fa5,fa4,fa5
    481a:	00f47453          	fadd.s	fs0,fs0,fa5
    481e:	20840553          	fmv.s	fa0,fs0
    4822:	2d91                	jal	4e76 <cosf>
    4824:	20a504d3          	fmv.s	fs1,fa0
    4828:	20840553          	fmv.s	fa0,fs0
    482c:	04b000ef          	jal	ra,5076 <sinf>
    4830:	78042707          	flw	fa4,1920(s0)
    4834:	10977753          	fmul.s	fa4,fa4,fs1
    4838:	78442687          	flw	fa3,1924(s0)
    483c:	10a6f6d3          	fmul.s	fa3,fa3,fa0
    4840:	08d77753          	fsub.s	fa4,fa4,fa3
    4844:	00e92027          	fsw	fa4,0(s2)
    4848:	78442787          	flw	fa5,1924(s0)
    484c:	1097f7d3          	fmul.s	fa5,fa5,fs1
    4850:	78042707          	flw	fa4,1920(s0)
    4854:	10a77753          	fmul.s	fa4,fa4,fa0
    4858:	00e7f7d3          	fadd.s	fa5,fa5,fa4
    485c:	00f92227          	fsw	fa5,4(s2)
    4860:	76942623          	sw	s1,1900(s0)
    4864:	6472                	flw	fs0,28(sp)
    4866:	64e2                	flw	fs1,24(sp)
    4868:	6952                	flw	fs2,20(sp)
    486a:	69c2                	flw	fs3,16(sp)
    486c:	6a32                	flw	fs4,12(sp)
    486e:	6aa2                	flw	fs5,8(sp)
    4870:	6105                	addi	sp,sp,32
    4872:	9e3fb06f          	j	254 <__riscv_restore_0>
    4876:	78042787          	flw	fa5,1920(s0)
    487a:	10a7f7d3          	fmul.s	fa5,fa5,fa0
    487e:	78f42027          	fsw	fa5,1920(s0)
    4882:	78442787          	flw	fa5,1924(s0)
    4886:	10a7f553          	fmul.s	fa0,fa5,fa0
    488a:	78a42227          	fsw	fa0,1924(s0)
    488e:	75842707          	flw	fa4,1880(s0)
    4892:	00004797          	auipc	a5,0x4
    4896:	4de7a687          	flw	fa3,1246(a5) # 8d70 <MySerNumInfo+0x210>
    489a:	10d77753          	fmul.s	fa4,fa4,fa3
    489e:	74e42c27          	fsw	fa4,1880(s0)
    48a2:	75c42787          	flw	fa5,1884(s0)
    48a6:	10d7f7d3          	fmul.s	fa5,fa5,fa3
    48aa:	74f42e27          	fsw	fa5,1884(s0)
    48ae:	b7a1                	j	47f6 <Motor::get_alpha_beta_output(unsigned long, Motor::float2D*)+0x236>

000048b0 <Motor::update_current_controller_gains()>:
    48b0:	7958                	flw	fa4,52(a0)
    48b2:	73052687          	flw	fa3,1840(a0)
    48b6:	10d77753          	fmul.s	fa4,fa4,fa3
    48ba:	70c52787          	flw	fa5,1804(a0)
    48be:	18d7f7d3          	fdiv.s	fa5,fa5,fa3
    48c2:	10f777d3          	fmul.s	fa5,fa4,fa5
    48c6:	72e52c27          	fsw	fa4,1848(a0)
    48ca:	72f52e27          	fsw	fa5,1852(a0)
    48ce:	8082                	ret

000048d0 <Motor::velovityLoop(unsigned long)>:
    48d0:	7b852687          	flw	fa3,1976(a0)
    48d4:	7b452787          	flw	fa5,1972(a0)
    48d8:	a0d797d3          	flt.s	a5,fa5,fa3
    48dc:	c399                	beqz	a5,48e2 <Motor::velovityLoop(unsigned long)+0x12>
    48de:	20f786d3          	fmv.s	fa3,fa5
    48e2:	20f797d3          	fneg.s	fa5,fa5
    48e6:	a0f697d3          	flt.s	a5,fa3,fa5
    48ea:	c399                	beqz	a5,48f0 <Motor::velovityLoop(unsigned long)+0x20>
    48ec:	20f786d3          	fmv.s	fa3,fa5
    48f0:	7ad52c27          	fsw	fa3,1976(a0)
    48f4:	7ec52587          	flw	fa1,2028(a0)
    48f8:	7e852607          	flw	fa2,2024(a0)
    48fc:	a0b617d3          	flt.s	a5,fa2,fa1
    4900:	c399                	beqz	a5,4906 <Motor::velovityLoop(unsigned long)+0x36>
    4902:	20c605d3          	fmv.s	fa1,fa2
    4906:	20c61553          	fneg.s	fa0,fa2
    490a:	a0a597d3          	flt.s	a5,fa1,fa0
    490e:	c399                	beqz	a5,4914 <Motor::velovityLoop(unsigned long)+0x44>
    4910:	20a505d3          	fmv.s	fa1,fa0
    4914:	7eb52627          	fsw	fa1,2028(a0)
    4918:	6785                	lui	a5,0x1
    491a:	97aa                	add	a5,a5,a0
    491c:	8247a787          	flw	fa5,-2012(a5) # 824 <CAN_Receive+0x18>
    4920:	f0000753          	fmv.w.x	fa4,zero
    4924:	a0e7a7d3          	feq.s	a5,fa5,fa4
    4928:	eb9d                	bnez	a5,495e <Motor::velovityLoop(unsigned long)+0x8e>
    492a:	64c54783          	lbu	a5,1612(a0)
    492e:	cb85                	beqz	a5,495e <Motor::velovityLoop(unsigned long)+0x8e>
    4930:	6d052787          	flw	fa5,1744(a0)
    4934:	00004797          	auipc	a5,0x4
    4938:	4047a707          	flw	fa4,1028(a5) # 8d38 <MySerNumInfo+0x1d8>
    493c:	18e7f7d3          	fdiv.s	fa5,fa5,fa4
    4940:	c00797d3          	fcvt.w.s	a5,fa5,rtz
    4944:	16800713          	li	a4,360
    4948:	02e7e7b3          	rem	a5,a5,a4
    494c:	0607ce63          	bltz	a5,49c8 <Motor::velovityLoop(unsigned long)+0xf8>
    4950:	02478793          	addi	a5,a5,36
    4954:	078a                	slli	a5,a5,0x2
    4956:	97aa                	add	a5,a5,a0
    4958:	67dc                	flw	fa5,12(a5)
    495a:	00f5f5d3          	fadd.s	fa1,fa1,fa5
    495e:	6d452787          	flw	fa5,1748(a0)
    4962:	08f6f6d3          	fsub.s	fa3,fa3,fa5
    4966:	7bc52707          	flw	fa4,1980(a0)
    496a:	10d777d3          	fmul.s	fa5,fa4,fa3
    496e:	00b7f7d3          	fadd.s	fa5,fa5,fa1
    4972:	7cc52707          	flw	fa4,1996(a0)
    4976:	00f777d3          	fadd.s	fa5,fa4,fa5
    497a:	a0f617d3          	flt.s	a5,fa2,fa5
    497e:	c399                	beqz	a5,4984 <Motor::velovityLoop(unsigned long)+0xb4>
    4980:	20c607d3          	fmv.s	fa5,fa2
    4984:	a0a797d3          	flt.s	a5,fa5,fa0
    4988:	c399                	beqz	a5,498e <Motor::velovityLoop(unsigned long)+0xbe>
    498a:	20a507d3          	fmv.s	fa5,fa0
    498e:	a0f627d3          	feq.s	a5,fa2,fa5
    4992:	ef95                	bnez	a5,49ce <Motor::velovityLoop(unsigned long)+0xfe>
    4994:	a0f527d3          	feq.s	a5,fa0,fa5
    4998:	eb9d                	bnez	a5,49ce <Motor::velovityLoop(unsigned long)+0xfe>
    499a:	7c052607          	flw	fa2,1984(a0)
    499e:	00004797          	auipc	a5,0x4
    49a2:	39e7a587          	flw	fa1,926(a5) # 8d3c <MySerNumInfo+0x1dc>
    49a6:	10b67653          	fmul.s	fa2,fa2,fa1
    49aa:	7d452783          	lw	a5,2004(a0)
    49ae:	40f587b3          	sub	a5,a1,a5
    49b2:	d017f5d3          	fcvt.s.wu	fa1,a5
    49b6:	10b67653          	fmul.s	fa2,fa2,fa1
    49ba:	10d676d3          	fmul.s	fa3,fa2,fa3
    49be:	00d77753          	fadd.s	fa4,fa4,fa3
    49c2:	7ce52627          	fsw	fa4,1996(a0)
    49c6:	a821                	j	49de <Motor::velovityLoop(unsigned long)+0x10e>
    49c8:	16878793          	addi	a5,a5,360
    49cc:	b751                	j	4950 <Motor::velovityLoop(unsigned long)+0x80>
    49ce:	00004797          	auipc	a5,0x4
    49d2:	3a27a687          	flw	fa3,930(a5) # 8d70 <MySerNumInfo+0x210>
    49d6:	10d77753          	fmul.s	fa4,fa4,fa3
    49da:	7ce52627          	fsw	fa4,1996(a0)
    49de:	7cc52687          	flw	fa3,1996(a0)
    49e2:	7d052707          	flw	fa4,2000(a0)
    49e6:	a0d717d3          	flt.s	a5,fa4,fa3
    49ea:	c399                	beqz	a5,49f0 <Motor::velovityLoop(unsigned long)+0x120>
    49ec:	20e706d3          	fmv.s	fa3,fa4
    49f0:	20e71753          	fneg.s	fa4,fa4
    49f4:	a0e697d3          	flt.s	a5,fa3,fa4
    49f8:	c399                	beqz	a5,49fe <Motor::velovityLoop(unsigned long)+0x12e>
    49fa:	20e706d3          	fmv.s	fa3,fa4
    49fe:	7cd52627          	fsw	fa3,1996(a0)
    4a02:	7ef52827          	fsw	fa5,2032(a0)
    4a06:	7cb52a23          	sw	a1,2004(a0)
    4a0a:	8082                	ret

00004a0c <Motor::positionLoop(unsigned long)>:
    4a0c:	7b852787          	flw	fa5,1976(a0)
    4a10:	7b452507          	flw	fa0,1972(a0)
    4a14:	a0f517d3          	flt.s	a5,fa0,fa5
    4a18:	c399                	beqz	a5,4a1e <Motor::positionLoop(unsigned long)+0x12>
    4a1a:	20a507d3          	fmv.s	fa5,fa0
    4a1e:	20a515d3          	fneg.s	fa1,fa0
    4a22:	a0b797d3          	flt.s	a5,fa5,fa1
    4a26:	c399                	beqz	a5,4a2c <Motor::positionLoop(unsigned long)+0x20>
    4a28:	20b587d3          	fmv.s	fa5,fa1
    4a2c:	7af52c27          	fsw	fa5,1976(a0)
    4a30:	7ec52007          	flw	ft0,2028(a0)
    4a34:	7e852607          	flw	fa2,2024(a0)
    4a38:	a00617d3          	flt.s	a5,fa2,ft0
    4a3c:	c399                	beqz	a5,4a42 <Motor::positionLoop(unsigned long)+0x36>
    4a3e:	20c60053          	fmv.s	ft0,fa2
    4a42:	20c610d3          	fneg.s	ft1,fa2
    4a46:	a01017d3          	flt.s	a5,ft0,ft1
    4a4a:	c399                	beqz	a5,4a50 <Motor::positionLoop(unsigned long)+0x44>
    4a4c:	20108053          	fmv.s	ft0,ft1
    4a50:	7e052627          	fsw	ft0,2028(a0)
    4a54:	7d852687          	flw	fa3,2008(a0)
    4a58:	6d852707          	flw	fa4,1752(a0)
    4a5c:	08e6f6d3          	fsub.s	fa3,fa3,fa4
    4a60:	7ed52027          	fsw	fa3,2016(a0)
    4a64:	7dc52707          	flw	fa4,2012(a0)
    4a68:	10e6f6d3          	fmul.s	fa3,fa3,fa4
    4a6c:	00f6f6d3          	fadd.s	fa3,fa3,fa5
    4a70:	a0d517d3          	flt.s	a5,fa0,fa3
    4a74:	e399                	bnez	a5,4a7a <Motor::positionLoop(unsigned long)+0x6e>
    4a76:	20d68553          	fmv.s	fa0,fa3
    4a7a:	a0b517d3          	flt.s	a5,fa0,fa1
    4a7e:	e399                	bnez	a5,4a84 <Motor::positionLoop(unsigned long)+0x78>
    4a80:	20a505d3          	fmv.s	fa1,fa0
    4a84:	6d452787          	flw	fa5,1748(a0)
    4a88:	08f5f5d3          	fsub.s	fa1,fa1,fa5
    4a8c:	7bc52707          	flw	fa4,1980(a0)
    4a90:	10b777d3          	fmul.s	fa5,fa4,fa1
    4a94:	0007f7d3          	fadd.s	fa5,fa5,ft0
    4a98:	7cc52707          	flw	fa4,1996(a0)
    4a9c:	00f777d3          	fadd.s	fa5,fa4,fa5
    4aa0:	a0f617d3          	flt.s	a5,fa2,fa5
    4aa4:	c399                	beqz	a5,4aaa <Motor::positionLoop(unsigned long)+0x9e>
    4aa6:	20c607d3          	fmv.s	fa5,fa2
    4aaa:	a01797d3          	flt.s	a5,fa5,ft1
    4aae:	c399                	beqz	a5,4ab4 <Motor::positionLoop(unsigned long)+0xa8>
    4ab0:	201087d3          	fmv.s	fa5,ft1
    4ab4:	a0f627d3          	feq.s	a5,fa2,fa5
    4ab8:	e39d                	bnez	a5,4ade <Motor::positionLoop(unsigned long)+0xd2>
    4aba:	a0f0a7d3          	feq.s	a5,ft1,fa5
    4abe:	e385                	bnez	a5,4ade <Motor::positionLoop(unsigned long)+0xd2>
    4ac0:	7c052687          	flw	fa3,1984(a0)
    4ac4:	00004797          	auipc	a5,0x4
    4ac8:	2787a607          	flw	fa2,632(a5) # 8d3c <MySerNumInfo+0x1dc>
    4acc:	10c6f6d3          	fmul.s	fa3,fa3,fa2
    4ad0:	10b6f5d3          	fmul.s	fa1,fa3,fa1
    4ad4:	00b77753          	fadd.s	fa4,fa4,fa1
    4ad8:	7ce52627          	fsw	fa4,1996(a0)
    4adc:	a809                	j	4aee <Motor::positionLoop(unsigned long)+0xe2>
    4ade:	00004797          	auipc	a5,0x4
    4ae2:	2927a587          	flw	fa1,658(a5) # 8d70 <MySerNumInfo+0x210>
    4ae6:	10b77753          	fmul.s	fa4,fa4,fa1
    4aea:	7ce52627          	fsw	fa4,1996(a0)
    4aee:	7cc52687          	flw	fa3,1996(a0)
    4af2:	7d052707          	flw	fa4,2000(a0)
    4af6:	a0d717d3          	flt.s	a5,fa4,fa3
    4afa:	c399                	beqz	a5,4b00 <Motor::positionLoop(unsigned long)+0xf4>
    4afc:	20e706d3          	fmv.s	fa3,fa4
    4b00:	20e71753          	fneg.s	fa4,fa4
    4b04:	a0e697d3          	flt.s	a5,fa3,fa4
    4b08:	c399                	beqz	a5,4b0e <Motor::positionLoop(unsigned long)+0x102>
    4b0a:	20e706d3          	fmv.s	fa3,fa4
    4b0e:	7cd52627          	fsw	fa3,1996(a0)
    4b12:	7ef52827          	fsw	fa5,2032(a0)
    4b16:	8082                	ret

00004b18 <Motor::go_zero()>:
    4b18:	415c                	lw	a5,4(a0)
    4b1a:	02079223          	sh	zero,36(a5)
    4b1e:	6a052c23          	sw	zero,1720(a0)
    4b22:	6c052c23          	sw	zero,1752(a0)
    4b26:	6a052e23          	sw	zero,1724(a0)
    4b2a:	6c052823          	sw	zero,1744(a0)
    4b2e:	6a052023          	sw	zero,1696(a0)
    4b32:	65c50713          	addi	a4,a0,1628
    4b36:	4785                	li	a5,1
    4b38:	7af52223          	sw	a5,1956(a0)
    4b3c:	00004797          	auipc	a5,0x4
    4b40:	1e478793          	addi	a5,a5,484 # 8d20 <MySerNumInfo+0x1c0>
    4b44:	439c                	lw	a5,0(a5)
    4b46:	00004697          	auipc	a3,0x4
    4b4a:	1d668693          	addi	a3,a3,470 # 8d1c <MySerNumInfo+0x1bc>
    4b4e:	97b6                	add	a5,a5,a3
    4b50:	8782                	jr	a5
    4b52:	00004797          	auipc	a5,0x4
    4b56:	1467a787          	flw	fa5,326(a5) # 8c98 <MySerNumInfo+0x138>
    4b5a:	78f52c27          	fsw	fa5,1944(a0)
    4b5e:	00004797          	auipc	a5,0x4
    4b62:	22e7a787          	flw	fa5,558(a5) # 8d8c <MySerNumInfo+0x22c>
    4b66:	78f52e27          	fsw	fa5,1948(a0)
    4b6a:	7af52027          	fsw	fa5,1952(a0)
    4b6e:	79852787          	flw	fa5,1944(a0)
    4b72:	64f52e27          	fsw	fa5,1628(a0)
    4b76:	79c52787          	flw	fa5,1948(a0)
    4b7a:	e35c                	fsw	fa5,4(a4)
    4b7c:	7a052787          	flw	fa5,1952(a0)
    4b80:	e71c                	fsw	fa5,8(a4)
    4b82:	8082                	ret
    4b84:	00004797          	auipc	a5,0x4
    4b88:	0587a787          	flw	fa5,88(a5) # 8bdc <MySerNumInfo+0x7c>
    4b8c:	78f52e27          	fsw	fa5,1948(a0)
    4b90:	00004797          	auipc	a5,0x4
    4b94:	2007a707          	flw	fa4,512(a5) # 8d90 <MySerNumInfo+0x230>
    4b98:	78e52c27          	fsw	fa4,1944(a0)
    4b9c:	7af52027          	fsw	fa5,1952(a0)
    4ba0:	b7f9                	j	4b6e <Motor::go_zero()+0x56>
    4ba2:	00004797          	auipc	a5,0x4
    4ba6:	1ea7a787          	flw	fa5,490(a5) # 8d8c <MySerNumInfo+0x22c>
    4baa:	78f52e27          	fsw	fa5,1948(a0)
    4bae:	7af52027          	fsw	fa5,1952(a0)
    4bb2:	00004797          	auipc	a5,0x4
    4bb6:	1e27a787          	flw	fa5,482(a5) # 8d94 <MySerNumInfo+0x234>
    4bba:	78f52c27          	fsw	fa5,1944(a0)
    4bbe:	bf45                	j	4b6e <Motor::go_zero()+0x56>
    4bc0:	00004797          	auipc	a5,0x4
    4bc4:	1cc7a787          	flw	fa5,460(a5) # 8d8c <MySerNumInfo+0x22c>
    4bc8:	7af52027          	fsw	fa5,1952(a0)
    4bcc:	78f52e27          	fsw	fa5,1948(a0)
    4bd0:	00004797          	auipc	a5,0x4
    4bd4:	1c47a787          	flw	fa5,452(a5) # 8d94 <MySerNumInfo+0x234>
    4bd8:	78f52c27          	fsw	fa5,1944(a0)
    4bdc:	bf49                	j	4b6e <Motor::go_zero()+0x56>
    4bde:	00004797          	auipc	a5,0x4
    4be2:	1ba7a787          	flw	fa5,442(a5) # 8d98 <MySerNumInfo+0x238>
    4be6:	7af52027          	fsw	fa5,1952(a0)
    4bea:	00004797          	auipc	a5,0x4
    4bee:	1b27a707          	flw	fa4,434(a5) # 8d9c <MySerNumInfo+0x23c>
    4bf2:	78e52c27          	fsw	fa4,1944(a0)
    4bf6:	78f52e27          	fsw	fa5,1948(a0)
    4bfa:	bf95                	j	4b6e <Motor::go_zero()+0x56>
    4bfc:	00004797          	auipc	a5,0x4
    4c00:	09c7a787          	flw	fa5,156(a5) # 8c98 <MySerNumInfo+0x138>
    4c04:	78f52c27          	fsw	fa5,1944(a0)
    4c08:	00004797          	auipc	a5,0x4
    4c0c:	1847a787          	flw	fa5,388(a5) # 8d8c <MySerNumInfo+0x22c>
    4c10:	7af52027          	fsw	fa5,1952(a0)
    4c14:	78f52e27          	fsw	fa5,1948(a0)
    4c18:	bf99                	j	4b6e <Motor::go_zero()+0x56>

00004c1a <SetSysClockTo144_HSE>:
    4c1a:	1141                	addi	sp,sp,-16
    4c1c:	c602                	sw	zero,12(sp)
    4c1e:	c402                	sw	zero,8(sp)
    4c20:	40021737          	lui	a4,0x40021
    4c24:	431c                	lw	a5,0(a4)
    4c26:	66c1                	lui	a3,0x10
    4c28:	8fd5                	or	a5,a5,a3
    4c2a:	c31c                	sw	a5,0(a4)
    4c2c:	400217b7          	lui	a5,0x40021
    4c30:	439c                	lw	a5,0(a5)
    4c32:	00020737          	lui	a4,0x20
    4c36:	8ff9                	and	a5,a5,a4
    4c38:	c43e                	sw	a5,8(sp)
    4c3a:	47b2                	lw	a5,12(sp)
    4c3c:	0785                	addi	a5,a5,1
    4c3e:	c63e                	sw	a5,12(sp)
    4c40:	47a2                	lw	a5,8(sp)
    4c42:	e789                	bnez	a5,4c4c <SetSysClockTo144_HSE+0x32>
    4c44:	4732                	lw	a4,12(sp)
    4c46:	6785                	lui	a5,0x1
    4c48:	fef712e3          	bne	a4,a5,4c2c <SetSysClockTo144_HSE+0x12>
    4c4c:	400217b7          	lui	a5,0x40021
    4c50:	439c                	lw	a5,0(a5)
    4c52:	00e79713          	slli	a4,a5,0xe
    4c56:	00075a63          	bgez	a4,4c6a <SetSysClockTo144_HSE+0x50>
    4c5a:	4785                	li	a5,1
    4c5c:	c43e                	sw	a5,8(sp)
    4c5e:	4722                	lw	a4,8(sp)
    4c60:	4785                	li	a5,1
    4c62:	00f70663          	beq	a4,a5,4c6e <SetSysClockTo144_HSE+0x54>
    4c66:	0141                	addi	sp,sp,16
    4c68:	8082                	ret
    4c6a:	c402                	sw	zero,8(sp)
    4c6c:	bfcd                	j	4c5e <SetSysClockTo144_HSE+0x44>
    4c6e:	400217b7          	lui	a5,0x40021
    4c72:	43d8                	lw	a4,4(a5)
    4c74:	c3d8                	sw	a4,4(a5)
    4c76:	43d8                	lw	a4,4(a5)
    4c78:	c3d8                	sw	a4,4(a5)
    4c7a:	43d8                	lw	a4,4(a5)
    4c7c:	c3d8                	sw	a4,4(a5)
    4c7e:	43d8                	lw	a4,4(a5)
    4c80:	ffc106b7          	lui	a3,0xffc10
    4c84:	16fd                	addi	a3,a3,-1
    4c86:	8f75                	and	a4,a4,a3
    4c88:	c3d8                	sw	a4,4(a5)
    4c8a:	43d8                	lw	a4,4(a5)
    4c8c:	66c1                	lui	a3,0x10
    4c8e:	8f55                	or	a4,a4,a3
    4c90:	c3d8                	sw	a4,4(a5)
    4c92:	4398                	lw	a4,0(a5)
    4c94:	010006b7          	lui	a3,0x1000
    4c98:	8f55                	or	a4,a4,a3
    4c9a:	c398                	sw	a4,0(a5)
    4c9c:	400217b7          	lui	a5,0x40021
    4ca0:	439c                	lw	a5,0(a5)
    4ca2:	00679713          	slli	a4,a5,0x6
    4ca6:	fe075be3          	bgez	a4,4c9c <SetSysClockTo144_HSE+0x82>
    4caa:	400217b7          	lui	a5,0x40021
    4cae:	43d8                	lw	a4,4(a5)
    4cb0:	9b71                	andi	a4,a4,-4
    4cb2:	c3d8                	sw	a4,4(a5)
    4cb4:	43d8                	lw	a4,4(a5)
    4cb6:	00276713          	ori	a4,a4,2
    4cba:	c3d8                	sw	a4,4(a5)
    4cbc:	400217b7          	lui	a5,0x40021
    4cc0:	43dc                	lw	a5,4(a5)
    4cc2:	8bb1                	andi	a5,a5,12
    4cc4:	4721                	li	a4,8
    4cc6:	fee79be3          	bne	a5,a4,4cbc <SetSysClockTo144_HSE+0xa2>
    4cca:	bf71                	j	4c66 <SetSysClockTo144_HSE+0x4c>

00004ccc <SetSysClock>:
    4ccc:	d64fb2ef          	jal	t0,230 <__riscv_save_0>
    4cd0:	37a9                	jal	4c1a <SetSysClockTo144_HSE>
    4cd2:	d82fb06f          	j	254 <__riscv_restore_0>

00004cd6 <SystemInit>:
    4cd6:	d5afb2ef          	jal	t0,230 <__riscv_save_0>
    4cda:	400217b7          	lui	a5,0x40021
    4cde:	4398                	lw	a4,0(a5)
    4ce0:	00176713          	ori	a4,a4,1
    4ce4:	c398                	sw	a4,0(a5)
    4ce6:	43d8                	lw	a4,4(a5)
    4ce8:	f8ff06b7          	lui	a3,0xf8ff0
    4cec:	8f75                	and	a4,a4,a3
    4cee:	c3d8                	sw	a4,4(a5)
    4cf0:	4398                	lw	a4,0(a5)
    4cf2:	fef706b7          	lui	a3,0xfef70
    4cf6:	16fd                	addi	a3,a3,-1
    4cf8:	8f75                	and	a4,a4,a3
    4cfa:	c398                	sw	a4,0(a5)
    4cfc:	4398                	lw	a4,0(a5)
    4cfe:	fffc06b7          	lui	a3,0xfffc0
    4d02:	16fd                	addi	a3,a3,-1
    4d04:	8f75                	and	a4,a4,a3
    4d06:	c398                	sw	a4,0(a5)
    4d08:	43d8                	lw	a4,4(a5)
    4d0a:	ff8106b7          	lui	a3,0xff810
    4d0e:	16fd                	addi	a3,a3,-1
    4d10:	8f75                	and	a4,a4,a3
    4d12:	c3d8                	sw	a4,4(a5)
    4d14:	4398                	lw	a4,0(a5)
    4d16:	ec0006b7          	lui	a3,0xec000
    4d1a:	16fd                	addi	a3,a3,-1
    4d1c:	8f75                	and	a4,a4,a3
    4d1e:	c398                	sw	a4,0(a5)
    4d20:	00ff0737          	lui	a4,0xff0
    4d24:	c798                	sw	a4,8(a5)
    4d26:	0207a623          	sw	zero,44(a5) # 4002102c <_eusrstack+0x2001902c>
    4d2a:	374d                	jal	4ccc <SetSysClock>
    4d2c:	d28fb06f          	j	254 <__riscv_restore_0>

00004d30 <SystemCoreClockUpdate>:
    4d30:	400217b7          	lui	a5,0x40021
    4d34:	43dc                	lw	a5,4(a5)
    4d36:	8bb1                	andi	a5,a5,12
    4d38:	4711                	li	a4,4
    4d3a:	04e78563          	beq	a5,a4,4d84 <SystemCoreClockUpdate+0x54>
    4d3e:	4721                	li	a4,8
    4d40:	04e78963          	beq	a5,a4,4d92 <SystemCoreClockUpdate+0x62>
    4d44:	cb81                	beqz	a5,4d54 <SystemCoreClockUpdate+0x24>
    4d46:	007a17b7          	lui	a5,0x7a1
    4d4a:	20078793          	addi	a5,a5,512 # 7a1200 <_data_lma+0x797e84>
    4d4e:	80f1a223          	sw	a5,-2044(gp) # 20000074 <SystemCoreClock>
    4d52:	a039                	j	4d60 <SystemCoreClockUpdate+0x30>
    4d54:	007a17b7          	lui	a5,0x7a1
    4d58:	20078793          	addi	a5,a5,512 # 7a1200 <_data_lma+0x797e84>
    4d5c:	80f1a223          	sw	a5,-2044(gp) # 20000074 <SystemCoreClock>
    4d60:	400217b7          	lui	a5,0x40021
    4d64:	43dc                	lw	a5,4(a5)
    4d66:	8391                	srli	a5,a5,0x4
    4d68:	8bbd                	andi	a5,a5,15
    4d6a:	1fffb717          	auipc	a4,0x1fffb
    4d6e:	29670713          	addi	a4,a4,662 # 20000000 <_data_vma>
    4d72:	97ba                	add	a5,a5,a4
    4d74:	2394                	fld	fa3,0(a5)
    4d76:	80418713          	addi	a4,gp,-2044 # 20000074 <SystemCoreClock>
    4d7a:	431c                	lw	a5,0(a4)
    4d7c:	00d7d7b3          	srl	a5,a5,a3
    4d80:	c31c                	sw	a5,0(a4)
    4d82:	8082                	ret
    4d84:	007a17b7          	lui	a5,0x7a1
    4d88:	20078793          	addi	a5,a5,512 # 7a1200 <_data_lma+0x797e84>
    4d8c:	80f1a223          	sw	a5,-2044(gp) # 20000074 <SystemCoreClock>
    4d90:	bfc1                	j	4d60 <SystemCoreClockUpdate+0x30>
    4d92:	40021737          	lui	a4,0x40021
    4d96:	435c                	lw	a5,4(a4)
    4d98:	4358                	lw	a4,4(a4)
    4d9a:	66c1                	lui	a3,0x10
    4d9c:	8f75                	and	a4,a4,a3
    4d9e:	83c9                	srli	a5,a5,0x12
    4da0:	8bbd                	andi	a5,a5,15
    4da2:	0789                	addi	a5,a5,2
    4da4:	4689                	li	a3,2
    4da6:	04d78263          	beq	a5,a3,4dea <SystemCoreClockUpdate+0xba>
    4daa:	46bd                	li	a3,15
    4dac:	04d78163          	beq	a5,a3,4dee <SystemCoreClockUpdate+0xbe>
    4db0:	46c1                	li	a3,16
    4db2:	04d78163          	beq	a5,a3,4df4 <SystemCoreClockUpdate+0xc4>
    4db6:	4681                	li	a3,0
    4db8:	4645                	li	a2,17
    4dba:	04c78063          	beq	a5,a2,4dfa <SystemCoreClockUpdate+0xca>
    4dbe:	eb29                	bnez	a4,4e10 <SystemCoreClockUpdate+0xe0>
    4dc0:	40024737          	lui	a4,0x40024
    4dc4:	80072703          	lw	a4,-2048(a4) # 40023800 <_eusrstack+0x2001b800>
    4dc8:	8b41                	andi	a4,a4,16
    4dca:	cb15                	beqz	a4,4dfe <SystemCoreClockUpdate+0xce>
    4dcc:	007a1737          	lui	a4,0x7a1
    4dd0:	20070713          	addi	a4,a4,512 # 7a1200 <_data_lma+0x797e84>
    4dd4:	02e787b3          	mul	a5,a5,a4
    4dd8:	80f1a223          	sw	a5,-2044(gp) # 20000074 <SystemCoreClock>
    4ddc:	d2d1                	beqz	a3,4d60 <SystemCoreClockUpdate+0x30>
    4dde:	80418713          	addi	a4,gp,-2044 # 20000074 <SystemCoreClock>
    4de2:	431c                	lw	a5,0(a4)
    4de4:	8385                	srli	a5,a5,0x1
    4de6:	c31c                	sw	a5,0(a4)
    4de8:	bfa5                	j	4d60 <SystemCoreClockUpdate+0x30>
    4dea:	47c9                	li	a5,18
    4dec:	b7d1                	j	4db0 <SystemCoreClockUpdate+0x80>
    4dee:	4685                	li	a3,1
    4df0:	47b5                	li	a5,13
    4df2:	b7d9                	j	4db8 <SystemCoreClockUpdate+0x88>
    4df4:	4681                	li	a3,0
    4df6:	47bd                	li	a5,15
    4df8:	b7d9                	j	4dbe <SystemCoreClockUpdate+0x8e>
    4dfa:	47c1                	li	a5,16
    4dfc:	b7c9                	j	4dbe <SystemCoreClockUpdate+0x8e>
    4dfe:	003d1737          	lui	a4,0x3d1
    4e02:	90070713          	addi	a4,a4,-1792 # 3d0900 <_data_lma+0x3c7584>
    4e06:	02e787b3          	mul	a5,a5,a4
    4e0a:	80f1a223          	sw	a5,-2044(gp) # 20000074 <SystemCoreClock>
    4e0e:	b7f9                	j	4ddc <SystemCoreClockUpdate+0xac>
    4e10:	40021737          	lui	a4,0x40021
    4e14:	4358                	lw	a4,4(a4)
    4e16:	00e71613          	slli	a2,a4,0xe
    4e1a:	00065b63          	bgez	a2,4e30 <SystemCoreClockUpdate+0x100>
    4e1e:	003d1737          	lui	a4,0x3d1
    4e22:	90070713          	addi	a4,a4,-1792 # 3d0900 <_data_lma+0x3c7584>
    4e26:	02e787b3          	mul	a5,a5,a4
    4e2a:	80f1a223          	sw	a5,-2044(gp) # 20000074 <SystemCoreClock>
    4e2e:	b77d                	j	4ddc <SystemCoreClockUpdate+0xac>
    4e30:	007a1737          	lui	a4,0x7a1
    4e34:	20070713          	addi	a4,a4,512 # 7a1200 <_data_lma+0x797e84>
    4e38:	02e787b3          	mul	a5,a5,a4
    4e3c:	80f1a223          	sw	a5,-2044(gp) # 20000074 <SystemCoreClock>
    4e40:	bf71                	j	4ddc <SystemCoreClockUpdate+0xac>

00004e42 <main>:
    4e42:	beefb2ef          	jal	t0,230 <__riscv_save_0>
    4e46:	3d41                	jal	4cd6 <SystemInit>
    4e48:	35e5                	jal	4d30 <SystemCoreClockUpdate>
    4e4a:	944fd0ef          	jal	ra,1f8e <Interrupt_Configuration>
    4e4e:	c12fb0ef          	jal	ra,260 <Delay_Init>
    4e52:	947fc0ef          	jal	ra,1798 <USBFS_RCC_Init>
    4e56:	4505                	li	a0,1
    4e58:	9ddfc0ef          	jal	ra,1834 <USBFS_Device_Init>
    4e5c:	c9ffc0ef          	jal	ra,1afa <MY_GPIO_Init>
    4e60:	cfbfc0ef          	jal	ra,1b5a <MY_TIM1_Init>
    4e64:	e65fc0ef          	jal	ra,1cc8 <MY_TIM3_Init>
    4e68:	f21fc0ef          	jal	ra,1d88 <MY_ADC_Init>
    4e6c:	ff5fc0ef          	jal	ra,1e60 <MY_CAN_Init>
    4e70:	d38fe0ef          	jal	ra,33a8 <app_main>
    4e74:	a001                	j	4e74 <main+0x32>

00004e76 <cosf>:
    4e76:	e00507d3          	fmv.x.w	a5,fa0
    4e7a:	1101                	addi	sp,sp,-32
    4e7c:	3f4916b7          	lui	a3,0x3f491
    4e80:	00179713          	slli	a4,a5,0x1
    4e84:	ce06                	sw	ra,28(sp)
    4e86:	fd868693          	addi	a3,a3,-40 # 3f490fd8 <_eusrstack+0x1f488fd8>
    4e8a:	8305                	srli	a4,a4,0x1
    4e8c:	02e6db63          	bge	a3,a4,4ec2 <cosf+0x4c>
    4e90:	7f8006b7          	lui	a3,0x7f800
    4e94:	00d74763          	blt	a4,a3,4ea2 <cosf+0x2c>
    4e98:	08a57553          	fsub.s	fa0,fa0,fa0
    4e9c:	40f2                	lw	ra,28(sp)
    4e9e:	6105                	addi	sp,sp,32
    4ea0:	8082                	ret
    4ea2:	0028                	addi	a0,sp,8
    4ea4:	2bbd                	jal	5422 <__ieee754_rem_pio2f>
    4ea6:	890d                	andi	a0,a0,3
    4ea8:	4785                	li	a5,1
    4eaa:	02f50363          	beq	a0,a5,4ed0 <cosf+0x5a>
    4eae:	4789                	li	a5,2
    4eb0:	65b2                	flw	fa1,12(sp)
    4eb2:	6522                	flw	fa0,8(sp)
    4eb4:	02f50963          	beq	a0,a5,4ee6 <cosf+0x70>
    4eb8:	c505                	beqz	a0,4ee0 <cosf+0x6a>
    4eba:	4505                	li	a0,1
    4ebc:	11a010ef          	jal	ra,5fd6 <__kernel_sinf>
    4ec0:	bff1                	j	4e9c <cosf+0x26>
    4ec2:	f00005d3          	fmv.w.x	fa1,zero
    4ec6:	0dd000ef          	jal	ra,57a2 <__kernel_cosf>
    4eca:	40f2                	lw	ra,28(sp)
    4ecc:	6105                	addi	sp,sp,32
    4ece:	8082                	ret
    4ed0:	65b2                	flw	fa1,12(sp)
    4ed2:	6522                	flw	fa0,8(sp)
    4ed4:	4505                	li	a0,1
    4ed6:	100010ef          	jal	ra,5fd6 <__kernel_sinf>
    4eda:	20a51553          	fneg.s	fa0,fa0
    4ede:	bf7d                	j	4e9c <cosf+0x26>
    4ee0:	0c3000ef          	jal	ra,57a2 <__kernel_cosf>
    4ee4:	bf65                	j	4e9c <cosf+0x26>
    4ee6:	0bd000ef          	jal	ra,57a2 <__kernel_cosf>
    4eea:	20a51553          	fneg.s	fa0,fa0
    4eee:	b77d                	j	4e9c <cosf+0x26>

00004ef0 <floorf>:
    4ef0:	e00506d3          	fmv.x.w	a3,fa0
    4ef4:	4659                	li	a2,22
    4ef6:	00169713          	slli	a4,a3,0x1
    4efa:	8305                	srli	a4,a4,0x1
    4efc:	01775793          	srli	a5,a4,0x17
    4f00:	f8178793          	addi	a5,a5,-127
    4f04:	85b6                	mv	a1,a3
    4f06:	08f64163          	blt	a2,a5,4f88 <floorf+0x98>
    4f0a:	0407c463          	bltz	a5,4f52 <floorf+0x62>
    4f0e:	00800837          	lui	a6,0x800
    4f12:	fff80713          	addi	a4,a6,-1 # 7fffff <_data_lma+0x7f6c83>
    4f16:	40f75733          	sra	a4,a4,a5
    4f1a:	00d77533          	and	a0,a4,a3
    4f1e:	e0050653          	fmv.x.w	a2,fa0
    4f22:	c50d                	beqz	a0,4f4c <floorf+0x5c>
    4f24:	00004517          	auipc	a0,0x4
    4f28:	e7c52787          	flw	fa5,-388(a0) # 8da0 <MySerNumInfo+0x240>
    4f2c:	00f577d3          	fadd.s	fa5,fa0,fa5
    4f30:	f0000753          	fmv.w.x	fa4,zero
    4f34:	a0f71553          	flt.s	a0,fa4,fa5
    4f38:	c911                	beqz	a0,4f4c <floorf+0x5c>
    4f3a:	0006d663          	bgez	a3,4f46 <floorf+0x56>
    4f3e:	40f857b3          	sra	a5,a6,a5
    4f42:	00d785b3          	add	a1,a5,a3
    4f46:	fff74613          	not	a2,a4
    4f4a:	8e6d                	and	a2,a2,a1
    4f4c:	f0060553          	fmv.w.x	fa0,a2
    4f50:	8082                	ret
    4f52:	00004797          	auipc	a5,0x4
    4f56:	e4e7a787          	flw	fa5,-434(a5) # 8da0 <MySerNumInfo+0x240>
    4f5a:	00f577d3          	fadd.s	fa5,fa0,fa5
    4f5e:	f0000753          	fmv.w.x	fa4,zero
    4f62:	e0050653          	fmv.x.w	a2,fa0
    4f66:	a0f717d3          	flt.s	a5,fa4,fa5
    4f6a:	d3ed                	beqz	a5,4f4c <floorf+0x5c>
    4f6c:	e0070653          	fmv.x.w	a2,fa4
    4f70:	fc06dee3          	bgez	a3,4f4c <floorf+0x5c>
    4f74:	e0050653          	fmv.x.w	a2,fa0
    4f78:	db71                	beqz	a4,4f4c <floorf+0x5c>
    4f7a:	00004797          	auipc	a5,0x4
    4f7e:	de27a787          	flw	fa5,-542(a5) # 8d5c <MySerNumInfo+0x1fc>
    4f82:	e0078653          	fmv.x.w	a2,fa5
    4f86:	b7d9                	j	4f4c <floorf+0x5c>
    4f88:	7f8007b7          	lui	a5,0x7f800
    4f8c:	e0050653          	fmv.x.w	a2,fa0
    4f90:	faf76ee3          	bltu	a4,a5,4f4c <floorf+0x5c>
    4f94:	00a577d3          	fadd.s	fa5,fa0,fa0
    4f98:	e0078653          	fmv.x.w	a2,fa5
    4f9c:	f0060553          	fmv.w.x	fa0,a2
    4fa0:	8082                	ret

00004fa2 <nearbyintf>:
    4fa2:	a009                	j	4fa4 <rintf>

00004fa4 <rintf>:
    4fa4:	e00507d3          	fmv.x.w	a5,fa0
    4fa8:	800006b7          	lui	a3,0x80000
    4fac:	fff6c693          	not	a3,a3
    4fb0:	00f6f633          	and	a2,a3,a5
    4fb4:	01765713          	srli	a4,a2,0x17
    4fb8:	f8170713          	addi	a4,a4,-127
    4fbc:	4559                	li	a0,22
    4fbe:	06e54063          	blt	a0,a4,501e <rintf+0x7a>
    4fc2:	c635                	beqz	a2,502e <rintf+0x8a>
    4fc4:	1141                	addi	sp,sp,-16
    4fc6:	85be                	mv	a1,a5
    4fc8:	01f7d613          	srli	a2,a5,0x1f
    4fcc:	06074463          	bltz	a4,5034 <rintf+0x90>
    4fd0:	008006b7          	lui	a3,0x800
    4fd4:	16fd                	addi	a3,a3,-1
    4fd6:	40e6d6b3          	sra	a3,a3,a4
    4fda:	00d7f533          	and	a0,a5,a3
    4fde:	cd05                	beqz	a0,5016 <rintf+0x72>
    4fe0:	8285                	srli	a3,a3,0x1
    4fe2:	00d7f533          	and	a0,a5,a3
    4fe6:	c909                	beqz	a0,4ff8 <rintf+0x54>
    4fe8:	fff6c693          	not	a3,a3
    4fec:	8efd                	and	a3,a3,a5
    4fee:	002007b7          	lui	a5,0x200
    4ff2:	40e7d7b3          	sra	a5,a5,a4
    4ff6:	8fd5                	or	a5,a5,a3
    4ff8:	060a                	slli	a2,a2,0x2
    4ffa:	81418713          	addi	a4,gp,-2028 # 20000084 <TWO23>
    4ffe:	963a                	add	a2,a2,a4
    5000:	6218                	flw	fa4,0(a2)
    5002:	f00787d3          	fmv.w.x	fa5,a5
    5006:	00f777d3          	fadd.s	fa5,fa4,fa5
    500a:	e63e                	fsw	fa5,12(sp)
    500c:	67b2                	flw	fa5,12(sp)
    500e:	08e7f7d3          	fsub.s	fa5,fa5,fa4
    5012:	e00787d3          	fmv.x.w	a5,fa5
    5016:	f0078553          	fmv.w.x	fa0,a5
    501a:	0141                	addi	sp,sp,16
    501c:	8082                	ret
    501e:	7f800737          	lui	a4,0x7f800
    5022:	00e66663          	bltu	a2,a4,502e <rintf+0x8a>
    5026:	00a577d3          	fadd.s	fa5,fa0,fa0
    502a:	e00787d3          	fmv.x.w	a5,fa5
    502e:	f0078553          	fmv.w.x	fa0,a5
    5032:	8082                	ret
    5034:	07a6                	slli	a5,a5,0x9
    5036:	83a5                	srli	a5,a5,0x9
    5038:	40f00733          	neg	a4,a5
    503c:	8f5d                	or	a4,a4,a5
    503e:	8325                	srli	a4,a4,0x9
    5040:	004007b7          	lui	a5,0x400
    5044:	8f7d                	and	a4,a4,a5
    5046:	fff007b7          	lui	a5,0xfff00
    504a:	00261813          	slli	a6,a2,0x2
    504e:	8dfd                	and	a1,a1,a5
    5050:	81418513          	addi	a0,gp,-2028 # 20000084 <TWO23>
    5054:	9542                	add	a0,a0,a6
    5056:	8dd9                	or	a1,a1,a4
    5058:	6118                	flw	fa4,0(a0)
    505a:	f00587d3          	fmv.w.x	fa5,a1
    505e:	067e                	slli	a2,a2,0x1f
    5060:	00f777d3          	fadd.s	fa5,fa4,fa5
    5064:	e63e                	fsw	fa5,12(sp)
    5066:	67b2                	flw	fa5,12(sp)
    5068:	08e7f7d3          	fsub.s	fa5,fa5,fa4
    506c:	e00787d3          	fmv.x.w	a5,fa5
    5070:	8ff5                	and	a5,a5,a3
    5072:	8fd1                	or	a5,a5,a2
    5074:	b74d                	j	5016 <rintf+0x72>

00005076 <sinf>:
    5076:	e00507d3          	fmv.x.w	a5,fa0
    507a:	1101                	addi	sp,sp,-32
    507c:	3f4916b7          	lui	a3,0x3f491
    5080:	00179713          	slli	a4,a5,0x1
    5084:	ce06                	sw	ra,28(sp)
    5086:	fd868693          	addi	a3,a3,-40 # 3f490fd8 <_eusrstack+0x1f488fd8>
    508a:	8305                	srli	a4,a4,0x1
    508c:	02e6db63          	bge	a3,a4,50c2 <sinf+0x4c>
    5090:	7f8006b7          	lui	a3,0x7f800
    5094:	00d74763          	blt	a4,a3,50a2 <sinf+0x2c>
    5098:	08a57553          	fsub.s	fa0,fa0,fa0
    509c:	40f2                	lw	ra,28(sp)
    509e:	6105                	addi	sp,sp,32
    50a0:	8082                	ret
    50a2:	0028                	addi	a0,sp,8
    50a4:	2ebd                	jal	5422 <__ieee754_rem_pio2f>
    50a6:	890d                	andi	a0,a0,3
    50a8:	4785                	li	a5,1
    50aa:	02f50463          	beq	a0,a5,50d2 <sinf+0x5c>
    50ae:	4789                	li	a5,2
    50b0:	65b2                	flw	fa1,12(sp)
    50b2:	6522                	flw	fa0,8(sp)
    50b4:	02f50763          	beq	a0,a5,50e2 <sinf+0x6c>
    50b8:	c10d                	beqz	a0,50da <sinf+0x64>
    50ba:	25e5                	jal	57a2 <__kernel_cosf>
    50bc:	20a51553          	fneg.s	fa0,fa0
    50c0:	bff1                	j	509c <sinf+0x26>
    50c2:	f00005d3          	fmv.w.x	fa1,zero
    50c6:	4501                	li	a0,0
    50c8:	70f000ef          	jal	ra,5fd6 <__kernel_sinf>
    50cc:	40f2                	lw	ra,28(sp)
    50ce:	6105                	addi	sp,sp,32
    50d0:	8082                	ret
    50d2:	65b2                	flw	fa1,12(sp)
    50d4:	6522                	flw	fa0,8(sp)
    50d6:	25f1                	jal	57a2 <__kernel_cosf>
    50d8:	b7d1                	j	509c <sinf+0x26>
    50da:	4505                	li	a0,1
    50dc:	6fb000ef          	jal	ra,5fd6 <__kernel_sinf>
    50e0:	bf75                	j	509c <sinf+0x26>
    50e2:	4505                	li	a0,1
    50e4:	6f3000ef          	jal	ra,5fd6 <__kernel_sinf>
    50e8:	20a51553          	fneg.s	fa0,fa0
    50ec:	bf45                	j	509c <sinf+0x26>

000050ee <sqrt>:
    50ee:	715d                	addi	sp,sp,-80
    50f0:	c4a2                	sw	s0,72(sp)
    50f2:	c2a6                	sw	s1,68(sp)
    50f4:	c0ca                	sw	s2,64(sp)
    50f6:	de52                	sw	s4,60(sp)
    50f8:	dc56                	sw	s5,56(sp)
    50fa:	c686                	sw	ra,76(sp)
    50fc:	842a                	mv	s0,a0
    50fe:	84ae                	mv	s1,a1
    5100:	22b1                	jal	524c <__ieee754_sqrt>
    5102:	80818793          	addi	a5,gp,-2040 # 20000078 <__fdlib_version>
    5106:	0007a903          	lw	s2,0(a5) # fff00000 <_eusrstack+0xdfef8000>
    510a:	57fd                	li	a5,-1
    510c:	8a2a                	mv	s4,a0
    510e:	8aae                	mv	s5,a1
    5110:	02f90163          	beq	s2,a5,5132 <sqrt+0x44>
    5114:	8622                	mv	a2,s0
    5116:	86a6                	mv	a3,s1
    5118:	8522                	mv	a0,s0
    511a:	85a6                	mv	a1,s1
    511c:	41a030ef          	jal	ra,8536 <__unorddf2>
    5120:	e909                	bnez	a0,5132 <sqrt+0x44>
    5122:	4601                	li	a2,0
    5124:	4681                	li	a3,0
    5126:	8522                	mv	a0,s0
    5128:	85a6                	mv	a1,s1
    512a:	274020ef          	jal	ra,739e <__ledf2>
    512e:	00054c63          	bltz	a0,5146 <sqrt+0x58>
    5132:	40b6                	lw	ra,76(sp)
    5134:	4426                	lw	s0,72(sp)
    5136:	8552                	mv	a0,s4
    5138:	85d6                	mv	a1,s5
    513a:	4496                	lw	s1,68(sp)
    513c:	4906                	lw	s2,64(sp)
    513e:	5a72                	lw	s4,60(sp)
    5140:	5ae2                	lw	s5,56(sp)
    5142:	6161                	addi	sp,sp,80
    5144:	8082                	ret
    5146:	4785                	li	a5,1
    5148:	c43e                	sw	a5,8(sp)
    514a:	00004797          	auipc	a5,0x4
    514e:	c5a78793          	addi	a5,a5,-934 # 8da4 <MySerNumInfo+0x244>
    5152:	c63e                	sw	a5,12(sp)
    5154:	d402                	sw	zero,40(sp)
    5156:	cc22                	sw	s0,24(sp)
    5158:	ce26                	sw	s1,28(sp)
    515a:	c822                	sw	s0,16(sp)
    515c:	ca26                	sw	s1,20(sp)
    515e:	02090763          	beqz	s2,518c <sqrt+0x9e>
    5162:	4601                	li	a2,0
    5164:	4681                	li	a3,0
    5166:	8532                	mv	a0,a2
    5168:	85b6                	mv	a1,a3
    516a:	24b010ef          	jal	ra,6bb4 <__divdf3>
    516e:	d02a                	sw	a0,32(sp)
    5170:	d22e                	sw	a1,36(sp)
    5172:	4789                	li	a5,2
    5174:	00f91e63          	bne	s2,a5,5190 <sqrt+0xa2>
    5178:	0af030ef          	jal	ra,8a26 <__errno>
    517c:	02100793          	li	a5,33
    5180:	c11c                	sw	a5,0(a0)
    5182:	57a2                	lw	a5,40(sp)
    5184:	ef81                	bnez	a5,519c <sqrt+0xae>
    5186:	5a02                	lw	s4,32(sp)
    5188:	5a92                	lw	s5,36(sp)
    518a:	b765                	j	5132 <sqrt+0x44>
    518c:	d002                	sw	zero,32(sp)
    518e:	d202                	sw	zero,36(sp)
    5190:	0028                	addi	a0,sp,8
    5192:	6e7000ef          	jal	ra,6078 <matherr>
    5196:	d16d                	beqz	a0,5178 <sqrt+0x8a>
    5198:	57a2                	lw	a5,40(sp)
    519a:	d7f5                	beqz	a5,5186 <sqrt+0x98>
    519c:	08b030ef          	jal	ra,8a26 <__errno>
    51a0:	57a2                	lw	a5,40(sp)
    51a2:	c11c                	sw	a5,0(a0)
    51a4:	b7cd                	j	5186 <sqrt+0x98>

000051a6 <sqrtf>:
    51a6:	715d                	addi	sp,sp,-80
    51a8:	c4a2                	sw	s0,72(sp)
    51aa:	fe22                	fsw	fs0,60(sp)
    51ac:	c686                	sw	ra,76(sp)
    51ae:	20a50453          	fmv.s	fs0,fa0
    51b2:	2315                	jal	56d6 <__ieee754_sqrtf>
    51b4:	80818793          	addi	a5,gp,-2040 # 20000078 <__fdlib_version>
    51b8:	4380                	lw	s0,0(a5)
    51ba:	57fd                	li	a5,-1
    51bc:	00f40a63          	beq	s0,a5,51d0 <sqrtf+0x2a>
    51c0:	a08427d3          	feq.s	a5,fs0,fs0
    51c4:	c791                	beqz	a5,51d0 <sqrtf+0x2a>
    51c6:	f00007d3          	fmv.w.x	fa5,zero
    51ca:	a0f417d3          	flt.s	a5,fs0,fa5
    51ce:	e791                	bnez	a5,51da <sqrtf+0x34>
    51d0:	40b6                	lw	ra,76(sp)
    51d2:	4426                	lw	s0,72(sp)
    51d4:	7472                	flw	fs0,60(sp)
    51d6:	6161                	addi	sp,sp,80
    51d8:	8082                	ret
    51da:	20840553          	fmv.s	fa0,fs0
    51de:	4785                	li	a5,1
    51e0:	c43e                	sw	a5,8(sp)
    51e2:	00004797          	auipc	a5,0x4
    51e6:	bca78793          	addi	a5,a5,-1078 # 8dac <MySerNumInfo+0x24c>
    51ea:	c63e                	sw	a5,12(sp)
    51ec:	d402                	sw	zero,40(sp)
    51ee:	3c4030ef          	jal	ra,85b2 <__extendsfdf2>
    51f2:	cc2a                	sw	a0,24(sp)
    51f4:	ce2e                	sw	a1,28(sp)
    51f6:	c82a                	sw	a0,16(sp)
    51f8:	ca2e                	sw	a1,20(sp)
    51fa:	cc05                	beqz	s0,5232 <sqrtf+0x8c>
    51fc:	4601                	li	a2,0
    51fe:	4681                	li	a3,0
    5200:	8532                	mv	a0,a2
    5202:	85b6                	mv	a1,a3
    5204:	1b1010ef          	jal	ra,6bb4 <__divdf3>
    5208:	d02a                	sw	a0,32(sp)
    520a:	d22e                	sw	a1,36(sp)
    520c:	4789                	li	a5,2
    520e:	02f41463          	bne	s0,a5,5236 <sqrtf+0x90>
    5212:	015030ef          	jal	ra,8a26 <__errno>
    5216:	02100793          	li	a5,33
    521a:	c11c                	sw	a5,0(a0)
    521c:	57a2                	lw	a5,40(sp)
    521e:	e395                	bnez	a5,5242 <sqrtf+0x9c>
    5220:	5502                	lw	a0,32(sp)
    5222:	5592                	lw	a1,36(sp)
    5224:	476030ef          	jal	ra,869a <__truncdfsf2>
    5228:	40b6                	lw	ra,76(sp)
    522a:	4426                	lw	s0,72(sp)
    522c:	7472                	flw	fs0,60(sp)
    522e:	6161                	addi	sp,sp,80
    5230:	8082                	ret
    5232:	d002                	sw	zero,32(sp)
    5234:	d202                	sw	zero,36(sp)
    5236:	0028                	addi	a0,sp,8
    5238:	641000ef          	jal	ra,6078 <matherr>
    523c:	d979                	beqz	a0,5212 <sqrtf+0x6c>
    523e:	57a2                	lw	a5,40(sp)
    5240:	d3e5                	beqz	a5,5220 <sqrtf+0x7a>
    5242:	7e4030ef          	jal	ra,8a26 <__errno>
    5246:	57a2                	lw	a5,40(sp)
    5248:	c11c                	sw	a5,0(a0)
    524a:	bfd9                	j	5220 <sqrtf+0x7a>

0000524c <__ieee754_sqrt>:
    524c:	1141                	addi	sp,sp,-16
    524e:	7ff00737          	lui	a4,0x7ff00
    5252:	c422                	sw	s0,8(sp)
    5254:	c226                	sw	s1,4(sp)
    5256:	c606                	sw	ra,12(sp)
    5258:	00b77833          	and	a6,a4,a1
    525c:	842e                	mv	s0,a1
    525e:	84aa                	mv	s1,a0
    5260:	16e80d63          	beq	a6,a4,53da <__ieee754_sqrt+0x18e>
    5264:	87ae                	mv	a5,a1
    5266:	86aa                	mv	a3,a0
    5268:	0eb05f63          	blez	a1,5366 <__ieee754_sqrt+0x11a>
    526c:	4145de13          	srai	t3,a1,0x14
    5270:	1a0e0163          	beqz	t3,5412 <__ieee754_sqrt+0x1c6>
    5274:	00100737          	lui	a4,0x100
    5278:	fff70613          	addi	a2,a4,-1 # fffff <_data_lma+0xf6c83>
    527c:	8ff1                	and	a5,a5,a2
    527e:	8fd9                	or	a5,a5,a4
    5280:	c01e0e13          	addi	t3,t3,-1023
    5284:	00179713          	slli	a4,a5,0x1
    5288:	001e7613          	andi	a2,t3,1
    528c:	01f6d793          	srli	a5,a3,0x1f
    5290:	97ba                	add	a5,a5,a4
    5292:	00169713          	slli	a4,a3,0x1
    5296:	c611                	beqz	a2,52a2 <__ieee754_sqrt+0x56>
    5298:	837d                	srli	a4,a4,0x1f
    529a:	0786                	slli	a5,a5,0x1
    529c:	97ba                	add	a5,a5,a4
    529e:	00269713          	slli	a4,a3,0x2
    52a2:	401e5e13          	srai	t3,t3,0x1
    52a6:	45d9                	li	a1,22
    52a8:	4e81                	li	t4,0
    52aa:	4681                	li	a3,0
    52ac:	00200637          	lui	a2,0x200
    52b0:	00c68533          	add	a0,a3,a2
    52b4:	01f75813          	srli	a6,a4,0x1f
    52b8:	15fd                	addi	a1,a1,-1
    52ba:	00a7c663          	blt	a5,a0,52c6 <__ieee754_sqrt+0x7a>
    52be:	8f89                	sub	a5,a5,a0
    52c0:	00c506b3          	add	a3,a0,a2
    52c4:	9eb2                	add	t4,t4,a2
    52c6:	0786                	slli	a5,a5,0x1
    52c8:	97c2                	add	a5,a5,a6
    52ca:	0706                	slli	a4,a4,0x1
    52cc:	8205                	srli	a2,a2,0x1
    52ce:	f1ed                	bnez	a1,52b0 <__ieee754_sqrt+0x64>
    52d0:	02000513          	li	a0,32
    52d4:	4301                	li	t1,0
    52d6:	4881                	li	a7,0
    52d8:	80000637          	lui	a2,0x80000
    52dc:	a819                	j	52f2 <__ieee754_sqrt+0xa6>
    52de:	0ed78563          	beq	a5,a3,53c8 <__ieee754_sqrt+0x17c>
    52e2:	01f75593          	srli	a1,a4,0x1f
    52e6:	0786                	slli	a5,a5,0x1
    52e8:	157d                	addi	a0,a0,-1
    52ea:	97ae                	add	a5,a5,a1
    52ec:	0706                	slli	a4,a4,0x1
    52ee:	8205                	srli	a2,a2,0x1
    52f0:	c90d                	beqz	a0,5322 <__ieee754_sqrt+0xd6>
    52f2:	011605b3          	add	a1,a2,a7
    52f6:	fef6d4e3          	bge	a3,a5,52de <__ieee754_sqrt+0x92>
    52fa:	00c588b3          	add	a7,a1,a2
    52fe:	8836                	mv	a6,a3
    5300:	0a05ce63          	bltz	a1,53bc <__ieee754_sqrt+0x170>
    5304:	8f95                	sub	a5,a5,a3
    5306:	00b736b3          	sltu	a3,a4,a1
    530a:	8f95                	sub	a5,a5,a3
    530c:	8f0d                	sub	a4,a4,a1
    530e:	01f75593          	srli	a1,a4,0x1f
    5312:	0786                	slli	a5,a5,0x1
    5314:	157d                	addi	a0,a0,-1
    5316:	9332                	add	t1,t1,a2
    5318:	86c2                	mv	a3,a6
    531a:	97ae                	add	a5,a5,a1
    531c:	0706                	slli	a4,a4,0x1
    531e:	8205                	srli	a2,a2,0x1
    5320:	f969                	bnez	a0,52f2 <__ieee754_sqrt+0xa6>
    5322:	8fd9                	or	a5,a5,a4
    5324:	00135493          	srli	s1,t1,0x1
    5328:	cb89                	beqz	a5,533a <__ieee754_sqrt+0xee>
    532a:	00130493          	addi	s1,t1,1
    532e:	57fd                	li	a5,-1
    5330:	8085                	srli	s1,s1,0x1
    5332:	00f31463          	bne	t1,a5,533a <__ieee754_sqrt+0xee>
    5336:	0e85                	addi	t4,t4,1
    5338:	4481                	li	s1,0
    533a:	401ed713          	srai	a4,t4,0x1
    533e:	3fe00437          	lui	s0,0x3fe00
    5342:	001efe93          	andi	t4,t4,1
    5346:	943a                	add	s0,s0,a4
    5348:	000e8563          	beqz	t4,5352 <__ieee754_sqrt+0x106>
    534c:	800007b7          	lui	a5,0x80000
    5350:	8cdd                	or	s1,s1,a5
    5352:	014e1713          	slli	a4,t3,0x14
    5356:	9722                	add	a4,a4,s0
    5358:	40b2                	lw	ra,12(sp)
    535a:	4422                	lw	s0,8(sp)
    535c:	8526                	mv	a0,s1
    535e:	85ba                	mv	a1,a4
    5360:	4492                	lw	s1,4(sp)
    5362:	0141                	addi	sp,sp,16
    5364:	8082                	ret
    5366:	00159713          	slli	a4,a1,0x1
    536a:	8305                	srli	a4,a4,0x1
    536c:	00a76833          	or	a6,a4,a0
    5370:	872e                	mv	a4,a1
    5372:	fe0803e3          	beqz	a6,5358 <__ieee754_sqrt+0x10c>
    5376:	e1d9                	bnez	a1,53fc <__ieee754_sqrt+0x1b0>
    5378:	00b6d593          	srli	a1,a3,0xb
    537c:	17ad                	addi	a5,a5,-21
    537e:	872e                	mv	a4,a1
    5380:	06d6                	slli	a3,a3,0x15
    5382:	d9fd                	beqz	a1,5378 <__ieee754_sqrt+0x12c>
    5384:	0145d613          	srli	a2,a1,0x14
    5388:	ea41                	bnez	a2,5418 <__ieee754_sqrt+0x1cc>
    538a:	4601                	li	a2,0
    538c:	a011                	j	5390 <__ieee754_sqrt+0x144>
    538e:	862a                	mv	a2,a0
    5390:	0706                	slli	a4,a4,0x1
    5392:	00b71593          	slli	a1,a4,0xb
    5396:	00160513          	addi	a0,a2,1 # 80000001 <_eusrstack+0x5fff8001>
    539a:	fe05dae3          	bgez	a1,538e <__ieee754_sqrt+0x142>
    539e:	02000893          	li	a7,32
    53a2:	8836                	mv	a6,a3
    53a4:	40a888b3          	sub	a7,a7,a0
    53a8:	85ba                	mv	a1,a4
    53aa:	00a696b3          	sll	a3,a3,a0
    53ae:	01185733          	srl	a4,a6,a7
    53b2:	40c78e33          	sub	t3,a5,a2
    53b6:	00b767b3          	or	a5,a4,a1
    53ba:	bd6d                	j	5274 <__ieee754_sqrt+0x28>
    53bc:	fff8c813          	not	a6,a7
    53c0:	01f85813          	srli	a6,a6,0x1f
    53c4:	9836                	add	a6,a6,a3
    53c6:	bf3d                	j	5304 <__ieee754_sqrt+0xb8>
    53c8:	f0b76de3          	bltu	a4,a1,52e2 <__ieee754_sqrt+0x96>
    53cc:	00c588b3          	add	a7,a1,a2
    53d0:	fe05c6e3          	bltz	a1,53bc <__ieee754_sqrt+0x170>
    53d4:	883e                	mv	a6,a5
    53d6:	4781                	li	a5,0
    53d8:	bf15                	j	530c <__ieee754_sqrt+0xc0>
    53da:	862a                	mv	a2,a0
    53dc:	86ae                	mv	a3,a1
    53de:	076020ef          	jal	ra,7454 <__muldf3>
    53e2:	8626                	mv	a2,s1
    53e4:	86a2                	mv	a3,s0
    53e6:	5c1000ef          	jal	ra,61a6 <__adddf3>
    53ea:	40b2                	lw	ra,12(sp)
    53ec:	4422                	lw	s0,8(sp)
    53ee:	84aa                	mv	s1,a0
    53f0:	872e                	mv	a4,a1
    53f2:	8526                	mv	a0,s1
    53f4:	85ba                	mv	a1,a4
    53f6:	4492                	lw	s1,4(sp)
    53f8:	0141                	addi	sp,sp,16
    53fa:	8082                	ret
    53fc:	862a                	mv	a2,a0
    53fe:	86ae                	mv	a3,a1
    5400:	6aa020ef          	jal	ra,7aaa <__subdf3>
    5404:	862a                	mv	a2,a0
    5406:	86ae                	mv	a3,a1
    5408:	7ac010ef          	jal	ra,6bb4 <__divdf3>
    540c:	84aa                	mv	s1,a0
    540e:	872e                	mv	a4,a1
    5410:	b7a1                	j	5358 <__ieee754_sqrt+0x10c>
    5412:	872e                	mv	a4,a1
    5414:	4781                	li	a5,0
    5416:	bf95                	j	538a <__ieee754_sqrt+0x13e>
    5418:	8836                	mv	a6,a3
    541a:	02000893          	li	a7,32
    541e:	567d                	li	a2,-1
    5420:	b779                	j	53ae <__ieee754_sqrt+0x162>

00005422 <__ieee754_rem_pio2f>:
    5422:	e00507d3          	fmv.x.w	a5,fa0
    5426:	1101                	addi	sp,sp,-32
    5428:	cc22                	sw	s0,24(sp)
    542a:	3f491737          	lui	a4,0x3f491
    542e:	00179413          	slli	s0,a5,0x1
    5432:	ca26                	sw	s1,20(sp)
    5434:	ce06                	sw	ra,28(sp)
    5436:	c84a                	sw	s2,16(sp)
    5438:	fd870713          	addi	a4,a4,-40 # 3f490fd8 <_eusrstack+0x1f488fd8>
    543c:	8005                	srli	s0,s0,0x1
    543e:	84aa                	mv	s1,a0
    5440:	0e875563          	bge	a4,s0,552a <__ieee754_rem_pio2f+0x108>
    5444:	4016d737          	lui	a4,0x4016d
    5448:	be370713          	addi	a4,a4,-1053 # 4016cbe3 <_eusrstack+0x20164be3>
    544c:	893e                	mv	s2,a5
    544e:	04874463          	blt	a4,s0,5496 <__ieee754_rem_pio2f+0x74>
    5452:	00004717          	auipc	a4,0x4
    5456:	96272787          	flw	fa5,-1694(a4) # 8db4 <MySerNumInfo+0x254>
    545a:	3fc91737          	lui	a4,0x3fc91
    545e:	9841                	andi	s0,s0,-16
    5460:	fd070713          	addi	a4,a4,-48 # 3fc90fd0 <_eusrstack+0x1fc88fd0>
    5464:	22f05363          	blez	a5,568a <__ieee754_rem_pio2f+0x268>
    5468:	08f577d3          	fsub.s	fa5,fa0,fa5
    546c:	0ce40f63          	beq	s0,a4,554a <__ieee754_rem_pio2f+0x128>
    5470:	00004797          	auipc	a5,0x4
    5474:	9487a707          	flw	fa4,-1720(a5) # 8db8 <MySerNumInfo+0x258>
    5478:	08e7f6d3          	fsub.s	fa3,fa5,fa4
    547c:	4505                	li	a0,1
    547e:	08d7f7d3          	fsub.s	fa5,fa5,fa3
    5482:	e094                	fsw	fa3,0(s1)
    5484:	08e7f7d3          	fsub.s	fa5,fa5,fa4
    5488:	e0dc                	fsw	fa5,4(s1)
    548a:	40f2                	lw	ra,28(sp)
    548c:	4462                	lw	s0,24(sp)
    548e:	44d2                	lw	s1,20(sp)
    5490:	4942                	lw	s2,16(sp)
    5492:	6105                	addi	sp,sp,32
    5494:	8082                	ret
    5496:	434917b7          	lui	a5,0x43491
    549a:	f8078793          	addi	a5,a5,-128 # 43490f80 <_eusrstack+0x23488f80>
    549e:	0c87df63          	bge	a5,s0,557c <__ieee754_rem_pio2f+0x15a>
    54a2:	7f8007b7          	lui	a5,0x7f800
    54a6:	08f45c63          	bge	s0,a5,553e <__ieee754_rem_pio2f+0x11c>
    54aa:	41745613          	srai	a2,s0,0x17
    54ae:	f7a60613          	addi	a2,a2,-134
    54b2:	01761793          	slli	a5,a2,0x17
    54b6:	8c1d                	sub	s0,s0,a5
    54b8:	f00407d3          	fmv.w.x	fa5,s0
    54bc:	00004717          	auipc	a4,0x4
    54c0:	91472687          	flw	fa3,-1772(a4) # 8dd0 <MySerNumInfo+0x270>
    54c4:	f0000653          	fmv.w.x	fa2,zero
    54c8:	c00797d3          	fcvt.w.s	a5,fa5,rtz
    54cc:	468d                	li	a3,3
    54ce:	d007f753          	fcvt.s.w	fa4,a5
    54d2:	08e7f7d3          	fsub.s	fa5,fa5,fa4
    54d6:	e23a                	fsw	fa4,4(sp)
    54d8:	10d7f7d3          	fmul.s	fa5,fa5,fa3
    54dc:	c00797d3          	fcvt.w.s	a5,fa5,rtz
    54e0:	d007f753          	fcvt.s.w	fa4,a5
    54e4:	08e7f7d3          	fsub.s	fa5,fa5,fa4
    54e8:	e43a                	fsw	fa4,8(sp)
    54ea:	10d7f7d3          	fmul.s	fa5,fa5,fa3
    54ee:	a0c7a7d3          	feq.s	a5,fa5,fa2
    54f2:	e63e                	fsw	fa5,12(sp)
    54f4:	c791                	beqz	a5,5500 <__ieee754_rem_pio2f+0xde>
    54f6:	a0c726d3          	feq.s	a3,fa4,fa2
    54fa:	0016b693          	seqz	a3,a3
    54fe:	0685                	addi	a3,a3,1
    5500:	00004797          	auipc	a5,0x4
    5504:	95478793          	addi	a5,a5,-1708 # 8e54 <two_over_pi>
    5508:	4709                	li	a4,2
    550a:	85a6                	mv	a1,s1
    550c:	0048                	addi	a0,sp,4
    550e:	2ed1                	jal	58e2 <__kernel_rem_pio2f>
    5510:	f6095de3          	bgez	s2,548a <__ieee754_rem_pio2f+0x68>
    5514:	6098                	flw	fa4,0(s1)
    5516:	60dc                	flw	fa5,4(s1)
    5518:	40a00533          	neg	a0,a0
    551c:	20e71753          	fneg.s	fa4,fa4
    5520:	20f797d3          	fneg.s	fa5,fa5
    5524:	e098                	fsw	fa4,0(s1)
    5526:	e0dc                	fsw	fa5,4(s1)
    5528:	b78d                	j	548a <__ieee754_rem_pio2f+0x68>
    552a:	40f2                	lw	ra,28(sp)
    552c:	4462                	lw	s0,24(sp)
    552e:	e088                	fsw	fa0,0(s1)
    5530:	00052223          	sw	zero,4(a0)
    5534:	44d2                	lw	s1,20(sp)
    5536:	4942                	lw	s2,16(sp)
    5538:	4501                	li	a0,0
    553a:	6105                	addi	sp,sp,32
    553c:	8082                	ret
    553e:	08a577d3          	fsub.s	fa5,fa0,fa0
    5542:	4501                	li	a0,0
    5544:	e0dc                	fsw	fa5,4(s1)
    5546:	e09c                	fsw	fa5,0(s1)
    5548:	b789                	j	548a <__ieee754_rem_pio2f+0x68>
    554a:	00004797          	auipc	a5,0x4
    554e:	8727a707          	flw	fa4,-1934(a5) # 8dbc <MySerNumInfo+0x25c>
    5552:	08e7f7d3          	fsub.s	fa5,fa5,fa4
    5556:	00004797          	auipc	a5,0x4
    555a:	86a7a707          	flw	fa4,-1942(a5) # 8dc0 <MySerNumInfo+0x260>
    555e:	40f2                	lw	ra,28(sp)
    5560:	4462                	lw	s0,24(sp)
    5562:	4942                	lw	s2,16(sp)
    5564:	08e7f6d3          	fsub.s	fa3,fa5,fa4
    5568:	4505                	li	a0,1
    556a:	08d7f7d3          	fsub.s	fa5,fa5,fa3
    556e:	e094                	fsw	fa3,0(s1)
    5570:	08e7f7d3          	fsub.s	fa5,fa5,fa4
    5574:	e0dc                	fsw	fa5,4(s1)
    5576:	44d2                	lw	s1,20(sp)
    5578:	6105                	addi	sp,sp,32
    557a:	8082                	ret
    557c:	301000ef          	jal	ra,607c <fabsf>
    5580:	00003797          	auipc	a5,0x3
    5584:	65c7a787          	flw	fa5,1628(a5) # 8bdc <MySerNumInfo+0x7c>
    5588:	00004797          	auipc	a5,0x4
    558c:	83c7a687          	flw	fa3,-1988(a5) # 8dc4 <MySerNumInfo+0x264>
    5590:	78d576c3          	fmadd.s	fa3,fa0,fa3,fa5
    5594:	00004797          	auipc	a5,0x4
    5598:	8247a707          	flw	fa4,-2012(a5) # 8db8 <MySerNumInfo+0x258>
    559c:	00004797          	auipc	a5,0x4
    55a0:	8187a787          	flw	fa5,-2024(a5) # 8db4 <MySerNumInfo+0x254>
    55a4:	47fd                	li	a5,31
    55a6:	c0069553          	fcvt.w.s	a0,fa3,rtz
    55aa:	d00576d3          	fcvt.s.w	fa3,a0
    55ae:	50f6f54b          	fnmsub.s	fa0,fa3,fa5,fa0
    55b2:	10e6f7d3          	fmul.s	fa5,fa3,fa4
    55b6:	04a7c763          	blt	a5,a0,5604 <__ieee754_rem_pio2f+0x1e2>
    55ba:	fff50793          	addi	a5,a0,-1
    55be:	00279713          	slli	a4,a5,0x2
    55c2:	08f57753          	fsub.s	fa4,fa0,fa5
    55c6:	00004797          	auipc	a5,0x4
    55ca:	80e78793          	addi	a5,a5,-2034 # 8dd4 <npio2_hw>
    55ce:	97ba                	add	a5,a5,a4
    55d0:	4394                	lw	a3,0(a5)
    55d2:	f0047713          	andi	a4,s0,-256
    55d6:	e00707d3          	fmv.x.w	a5,fa4
    55da:	02d70963          	beq	a4,a3,560c <__ieee754_rem_pio2f+0x1ea>
    55de:	c09c                	sw	a5,0(s1)
    55e0:	f0078753          	fmv.w.x	fa4,a5
    55e4:	08e57553          	fsub.s	fa0,fa0,fa4
    55e8:	08f57553          	fsub.s	fa0,fa0,fa5
    55ec:	e0c8                	fsw	fa0,4(s1)
    55ee:	e8095ee3          	bgez	s2,548a <__ieee754_rem_pio2f+0x68>
    55f2:	20e717d3          	fneg.s	fa5,fa4
    55f6:	20a51553          	fneg.s	fa0,fa0
    55fa:	40a00533          	neg	a0,a0
    55fe:	e09c                	fsw	fa5,0(s1)
    5600:	e0c8                	fsw	fa0,4(s1)
    5602:	b561                	j	548a <__ieee754_rem_pio2f+0x68>
    5604:	08f57753          	fsub.s	fa4,fa0,fa5
    5608:	e00707d3          	fmv.x.w	a5,fa4
    560c:	0177d713          	srli	a4,a5,0x17
    5610:	845d                	srai	s0,s0,0x17
    5612:	0ff77713          	andi	a4,a4,255
    5616:	40e40733          	sub	a4,s0,a4
    561a:	46a1                	li	a3,8
    561c:	fce6d1e3          	bge	a3,a4,55de <__ieee754_rem_pio2f+0x1bc>
    5620:	00003797          	auipc	a5,0x3
    5624:	79c7a607          	flw	fa2,1948(a5) # 8dbc <MySerNumInfo+0x25c>
    5628:	50c6f74b          	fnmsub.s	fa4,fa3,fa2,fa0
    562c:	00003797          	auipc	a5,0x3
    5630:	7947a787          	flw	fa5,1940(a5) # 8dc0 <MySerNumInfo+0x260>
    5634:	46e5                	li	a3,25
    5636:	08e57553          	fsub.s	fa0,fa0,fa4
    563a:	50c6f54b          	fnmsub.s	fa0,fa3,fa2,fa0
    563e:	50f6f7c7          	fmsub.s	fa5,fa3,fa5,fa0
    5642:	08f77653          	fsub.s	fa2,fa4,fa5
    5646:	e00607d3          	fmv.x.w	a5,fa2
    564a:	0177d713          	srli	a4,a5,0x17
    564e:	0ff77713          	andi	a4,a4,255
    5652:	8c19                	sub	s0,s0,a4
    5654:	0086c663          	blt	a3,s0,5660 <__ieee754_rem_pio2f+0x23e>
    5658:	e090                	fsw	fa2,0(s1)
    565a:	20e70553          	fmv.s	fa0,fa4
    565e:	b749                	j	55e0 <__ieee754_rem_pio2f+0x1be>
    5660:	00003797          	auipc	a5,0x3
    5664:	7687a607          	flw	fa2,1896(a5) # 8dc8 <MySerNumInfo+0x268>
    5668:	70c6f54b          	fnmsub.s	fa0,fa3,fa2,fa4
    566c:	00003797          	auipc	a5,0x3
    5670:	7607a787          	flw	fa5,1888(a5) # 8dcc <MySerNumInfo+0x26c>
    5674:	08a77753          	fsub.s	fa4,fa4,fa0
    5678:	70c6f74b          	fnmsub.s	fa4,fa3,fa2,fa4
    567c:	70f6f7c7          	fmsub.s	fa5,fa3,fa5,fa4
    5680:	08f57753          	fsub.s	fa4,fa0,fa5
    5684:	e00707d3          	fmv.x.w	a5,fa4
    5688:	bf99                	j	55de <__ieee754_rem_pio2f+0x1bc>
    568a:	00f577d3          	fadd.s	fa5,fa0,fa5
    568e:	02e40063          	beq	s0,a4,56ae <__ieee754_rem_pio2f+0x28c>
    5692:	00003797          	auipc	a5,0x3
    5696:	7267a707          	flw	fa4,1830(a5) # 8db8 <MySerNumInfo+0x258>
    569a:	00e7f6d3          	fadd.s	fa3,fa5,fa4
    569e:	557d                	li	a0,-1
    56a0:	08d7f7d3          	fsub.s	fa5,fa5,fa3
    56a4:	e094                	fsw	fa3,0(s1)
    56a6:	00e7f7d3          	fadd.s	fa5,fa5,fa4
    56aa:	e0dc                	fsw	fa5,4(s1)
    56ac:	bbf9                	j	548a <__ieee754_rem_pio2f+0x68>
    56ae:	00003797          	auipc	a5,0x3
    56b2:	70e7a707          	flw	fa4,1806(a5) # 8dbc <MySerNumInfo+0x25c>
    56b6:	00e7f7d3          	fadd.s	fa5,fa5,fa4
    56ba:	00003797          	auipc	a5,0x3
    56be:	7067a707          	flw	fa4,1798(a5) # 8dc0 <MySerNumInfo+0x260>
    56c2:	557d                	li	a0,-1
    56c4:	00e7f6d3          	fadd.s	fa3,fa5,fa4
    56c8:	08d7f7d3          	fsub.s	fa5,fa5,fa3
    56cc:	e094                	fsw	fa3,0(s1)
    56ce:	00e7f7d3          	fadd.s	fa5,fa5,fa4
    56d2:	e0dc                	fsw	fa5,4(s1)
    56d4:	bb5d                	j	548a <__ieee754_rem_pio2f+0x68>

000056d6 <__ieee754_sqrtf>:
    56d6:	e00506d3          	fmv.x.w	a3,fa0
    56da:	7f800737          	lui	a4,0x7f800
    56de:	00169793          	slli	a5,a3,0x1
    56e2:	8385                	srli	a5,a5,0x1
    56e4:	08e7f963          	bgeu	a5,a4,5776 <__ieee754_sqrtf+0xa0>
    56e8:	e0050553          	fmv.x.w	a0,fa0
    56ec:	c3d1                	beqz	a5,5770 <__ieee754_sqrtf+0x9a>
    56ee:	87b6                	mv	a5,a3
    56f0:	0806cd63          	bltz	a3,578a <__ieee754_sqrtf+0xb4>
    56f4:	00d77633          	and	a2,a4,a3
    56f8:	4176d713          	srai	a4,a3,0x17
    56fc:	e205                	bnez	a2,571c <__ieee754_sqrtf+0x46>
    56fe:	00869613          	slli	a2,a3,0x8
    5702:	08064d63          	bltz	a2,579c <__ieee754_sqrtf+0xc6>
    5706:	4681                	li	a3,0
    5708:	a011                	j	570c <__ieee754_sqrtf+0x36>
    570a:	86b2                	mv	a3,a2
    570c:	0786                	slli	a5,a5,0x1
    570e:	00879593          	slli	a1,a5,0x8
    5712:	00168613          	addi	a2,a3,1 # 7f800001 <_eusrstack+0x5f7f8001>
    5716:	fe05dae3          	bgez	a1,570a <__ieee754_sqrtf+0x34>
    571a:	8f15                	sub	a4,a4,a3
    571c:	008006b7          	lui	a3,0x800
    5720:	fff68613          	addi	a2,a3,-1 # 7fffff <_data_lma+0x7f6c83>
    5724:	8ff1                	and	a5,a5,a2
    5726:	f8170713          	addi	a4,a4,-127 # 7f7fff81 <_eusrstack+0x5f7f7f81>
    572a:	8edd                	or	a3,a3,a5
    572c:	00177613          	andi	a2,a4,1
    5730:	00169793          	slli	a5,a3,0x1
    5734:	ea21                	bnez	a2,5784 <__ieee754_sqrtf+0xae>
    5736:	40175813          	srai	a6,a4,0x1
    573a:	46e5                	li	a3,25
    573c:	4501                	li	a0,0
    573e:	4581                	li	a1,0
    5740:	01000737          	lui	a4,0x1000
    5744:	00e58633          	add	a2,a1,a4
    5748:	16fd                	addi	a3,a3,-1
    574a:	00c7c663          	blt	a5,a2,5756 <__ieee754_sqrtf+0x80>
    574e:	00e605b3          	add	a1,a2,a4
    5752:	8f91                	sub	a5,a5,a2
    5754:	953a                	add	a0,a0,a4
    5756:	0786                	slli	a5,a5,0x1
    5758:	8305                	srli	a4,a4,0x1
    575a:	f6ed                	bnez	a3,5744 <__ieee754_sqrtf+0x6e>
    575c:	c399                	beqz	a5,5762 <__ieee754_sqrtf+0x8c>
    575e:	0505                	addi	a0,a0,1
    5760:	9979                	andi	a0,a0,-2
    5762:	8505                	srai	a0,a0,0x1
    5764:	3f0007b7          	lui	a5,0x3f000
    5768:	953e                	add	a0,a0,a5
    576a:	01781713          	slli	a4,a6,0x17
    576e:	953a                	add	a0,a0,a4
    5770:	f0050553          	fmv.w.x	fa0,a0
    5774:	8082                	ret
    5776:	50a577c3          	fmadd.s	fa5,fa0,fa0,fa0
    577a:	e0078553          	fmv.x.w	a0,fa5
    577e:	f0050553          	fmv.w.x	fa0,a0
    5782:	8082                	ret
    5784:	00269793          	slli	a5,a3,0x2
    5788:	b77d                	j	5736 <__ieee754_sqrtf+0x60>
    578a:	08a577d3          	fsub.s	fa5,fa0,fa0
    578e:	18f7f7d3          	fdiv.s	fa5,fa5,fa5
    5792:	e0078553          	fmv.x.w	a0,fa5
    5796:	f0050553          	fmv.w.x	fa0,a0
    579a:	8082                	ret
    579c:	56fd                	li	a3,-1
    579e:	8f15                	sub	a4,a4,a3
    57a0:	bfb5                	j	571c <__ieee754_sqrtf+0x46>

000057a2 <__kernel_cosf>:
    57a2:	e0050753          	fmv.x.w	a4,fa0
    57a6:	320006b7          	lui	a3,0x32000
    57aa:	00171793          	slli	a5,a4,0x1
    57ae:	8385                	srli	a5,a5,0x1
    57b0:	06d7df63          	bge	a5,a3,582e <__kernel_cosf+0x8c>
    57b4:	c00517d3          	fcvt.w.s	a5,fa0,rtz
    57b8:	12078063          	beqz	a5,58d8 <__kernel_cosf+0x136>
    57bc:	10a576d3          	fmul.s	fa3,fa0,fa0
    57c0:	00004797          	auipc	a5,0x4
    57c4:	9b87a787          	flw	fa5,-1608(a5) # 9178 <two_over_pi+0x324>
    57c8:	00004797          	auipc	a5,0x4
    57cc:	9ac7a507          	flw	fa0,-1620(a5) # 9174 <two_over_pi+0x320>
    57d0:	00004797          	auipc	a5,0x4
    57d4:	9ac7a007          	flw	ft0,-1620(a5) # 917c <two_over_pi+0x328>
    57d8:	00004797          	auipc	a5,0x4
    57dc:	9a87a607          	flw	fa2,-1624(a5) # 9180 <two_over_pi+0x32c>
    57e0:	78a6f543          	fmadd.s	fa0,fa3,fa0,fa5
    57e4:	00004797          	auipc	a5,0x4
    57e8:	9a07a707          	flw	fa4,-1632(a5) # 9184 <two_over_pi+0x330>
    57ec:	00004797          	auipc	a5,0x4
    57f0:	99c7a787          	flw	fa5,-1636(a5) # 9188 <two_over_pi+0x334>
    57f4:	00a6f543          	fmadd.s	fa0,fa3,fa0,ft0
    57f8:	60a6f543          	fmadd.s	fa0,fa3,fa0,fa2
    57fc:	70a6f543          	fmadd.s	fa0,fa3,fa0,fa4
    5800:	78a6f7c3          	fmadd.s	fa5,fa3,fa0,fa5
    5804:	10d7f7d3          	fmul.s	fa5,fa5,fa3
    5808:	f0070753          	fmv.w.x	fa4,a4
    580c:	00003797          	auipc	a5,0x3
    5810:	3e87a507          	flw	fa0,1000(a5) # 8bf4 <MySerNumInfo+0x94>
    5814:	10b775d3          	fmul.s	fa1,fa4,fa1
    5818:	00003797          	auipc	a5,0x3
    581c:	3c47a707          	flw	fa4,964(a5) # 8bdc <MySerNumInfo+0x7c>
    5820:	58f6f7c7          	fmsub.s	fa5,fa3,fa5,fa1
    5824:	78e6f7c7          	fmsub.s	fa5,fa3,fa4,fa5
    5828:	08f57553          	fsub.s	fa0,fa0,fa5
    582c:	8082                	ret
    582e:	10a576d3          	fmul.s	fa3,fa0,fa0
    5832:	00004697          	auipc	a3,0x4
    5836:	9466a607          	flw	fa2,-1722(a3) # 9178 <two_over_pi+0x324>
    583a:	00004697          	auipc	a3,0x4
    583e:	93a6a707          	flw	fa4,-1734(a3) # 9174 <two_over_pi+0x320>
    5842:	00004697          	auipc	a3,0x4
    5846:	93a6a787          	flw	fa5,-1734(a3) # 917c <two_over_pi+0x328>
    584a:	00004697          	auipc	a3,0x4
    584e:	9366a007          	flw	ft0,-1738(a3) # 9180 <two_over_pi+0x32c>
    5852:	60e6f743          	fmadd.s	fa4,fa3,fa4,fa2
    5856:	00004697          	auipc	a3,0x4
    585a:	92e6a507          	flw	fa0,-1746(a3) # 9184 <two_over_pi+0x330>
    585e:	00004697          	auipc	a3,0x4
    5862:	92a6a607          	flw	fa2,-1750(a3) # 9188 <two_over_pi+0x334>
    5866:	3e99a6b7          	lui	a3,0x3e99a
    586a:	99968693          	addi	a3,a3,-1639 # 3e999999 <_eusrstack+0x1e991999>
    586e:	78d777c3          	fmadd.s	fa5,fa4,fa3,fa5
    5872:	00d7f7c3          	fmadd.s	fa5,fa5,fa3,ft0
    5876:	50d7f7c3          	fmadd.s	fa5,fa5,fa3,fa0
    587a:	60d7f7c3          	fmadd.s	fa5,fa5,fa3,fa2
    587e:	10d7f7d3          	fmul.s	fa5,fa5,fa3
    5882:	f8f6d3e3          	bge	a3,a5,5808 <__kernel_cosf+0x66>
    5886:	3f4806b7          	lui	a3,0x3f480
    588a:	02f6ce63          	blt	a3,a5,58c6 <__kernel_cosf+0x124>
    588e:	ff0006b7          	lui	a3,0xff000
    5892:	97b6                	add	a5,a5,a3
    5894:	f0078653          	fmv.w.x	fa2,a5
    5898:	00003697          	auipc	a3,0x3
    589c:	35c6a507          	flw	fa0,860(a3) # 8bf4 <MySerNumInfo+0x94>
    58a0:	08c57553          	fsub.s	fa0,fa0,fa2
    58a4:	f0070753          	fmv.w.x	fa4,a4
    58a8:	10b775d3          	fmul.s	fa1,fa4,fa1
    58ac:	00003797          	auipc	a5,0x3
    58b0:	3307a707          	flw	fa4,816(a5) # 8bdc <MySerNumInfo+0x7c>
    58b4:	60e6f747          	fmsub.s	fa4,fa3,fa4,fa2
    58b8:	58f6f7c7          	fmsub.s	fa5,fa3,fa5,fa1
    58bc:	08f777d3          	fsub.s	fa5,fa4,fa5
    58c0:	08f57553          	fsub.s	fa0,fa0,fa5
    58c4:	8082                	ret
    58c6:	00004797          	auipc	a5,0x4
    58ca:	8a67a507          	flw	fa0,-1882(a5) # 916c <two_over_pi+0x318>
    58ce:	00004797          	auipc	a5,0x4
    58d2:	8a27a607          	flw	fa2,-1886(a5) # 9170 <two_over_pi+0x31c>
    58d6:	b7f9                	j	58a4 <__kernel_cosf+0x102>
    58d8:	00003797          	auipc	a5,0x3
    58dc:	31c7a507          	flw	fa0,796(a5) # 8bf4 <MySerNumInfo+0x94>
    58e0:	8082                	ret

000058e2 <__kernel_rem_pio2f>:
    58e2:	7121                	addi	sp,sp,-448
    58e4:	00271813          	slli	a6,a4,0x2
    58e8:	ca3a                	sw	a4,20(sp)
    58ea:	00004717          	auipc	a4,0x4
    58ee:	8da70713          	addi	a4,a4,-1830 # 91c4 <init_jk>
    58f2:	9742                	add	a4,a4,a6
    58f4:	1a812c23          	sw	s0,440(sp)
    58f8:	19912a23          	sw	s9,404(sp)
    58fc:	19a12823          	sw	s10,400(sp)
    5900:	8432                	mv	s0,a2
    5902:	ce32                	sw	a2,28(sp)
    5904:	1a112e23          	sw	ra,444(sp)
    5908:	1a912a23          	sw	s1,436(sp)
    590c:	1b212823          	sw	s2,432(sp)
    5910:	1b312623          	sw	s3,428(sp)
    5914:	1b412423          	sw	s4,424(sp)
    5918:	1b512223          	sw	s5,420(sp)
    591c:	1b612023          	sw	s6,416(sp)
    5920:	19712e23          	sw	s7,412(sp)
    5924:	19812c23          	sw	s8,408(sp)
    5928:	19b12623          	sw	s11,396(sp)
    592c:	16812e27          	fsw	fs0,380(sp)
    5930:	16912c27          	fsw	fs1,376(sp)
    5934:	17212a27          	fsw	fs2,372(sp)
    5938:	17312827          	fsw	fs3,368(sp)
    593c:	17412627          	fsw	fs4,364(sp)
    5940:	17512427          	fsw	fs5,360(sp)
    5944:	17612227          	fsw	fs6,356(sp)
    5948:	5871                	li	a6,-4
    594a:	c82e                	sw	a1,16(sp)
    594c:	c23e                	sw	a5,4(sp)
    594e:	862a                	mv	a2,a0
    5950:	00072c83          	lw	s9,0(a4)
    5954:	fff68d13          	addi	s10,a3,-1
    5958:	63044a63          	blt	s0,a6,5f8c <__kernel_rem_pio2f+0x6aa>
    595c:	ffd40793          	addi	a5,s0,-3 # 3fdffffd <_eusrstack+0x1fdf7ffd>
    5960:	41f7d493          	srai	s1,a5,0x1f
    5964:	889d                	andi	s1,s1,7
    5966:	94be                	add	s1,s1,a5
    5968:	4034d793          	srai	a5,s1,0x3
    596c:	00178b13          	addi	s6,a5,1
    5970:	c43e                	sw	a5,8(sp)
    5972:	003b1793          	slli	a5,s6,0x3
    5976:	cc3e                	sw	a5,24(sp)
    5978:	47a2                	lw	a5,8(sp)
    597a:	4562                	lw	a0,24(sp)
    597c:	45f2                	lw	a1,28(sp)
    597e:	01ac8733          	add	a4,s9,s10
    5982:	41a787b3          	sub	a5,a5,s10
    5986:	00170813          	addi	a6,a4,1
    598a:	40a58a33          	sub	s4,a1,a0
    598e:	983e                	add	a6,a6,a5
    5990:	1888                	addi	a0,sp,112
    5992:	02074363          	bltz	a4,59b8 <__kernel_rem_pio2f+0xd6>
    5996:	4592                	lw	a1,4(sp)
    5998:	00279713          	slli	a4,a5,0x2
    599c:	f00007d3          	fmv.w.x	fa5,zero
    59a0:	972e                	add	a4,a4,a1
    59a2:	0007c563          	bltz	a5,59ac <__kernel_rem_pio2f+0xca>
    59a6:	4318                	lw	a4,0(a4)
    59a8:	d00777d3          	fcvt.s.w	fa5,a4
    59ac:	0511                	addi	a0,a0,4
    59ae:	0785                	addi	a5,a5,1
    59b0:	fef52e27          	fsw	fa5,-4(a0)
    59b4:	ff0791e3          	bne	a5,a6,5996 <__kernel_rem_pio2f+0xb4>
    59b8:	002c9d93          	slli	s11,s9,0x2
    59bc:	040cc463          	bltz	s9,5a04 <__kernel_rem_pio2f+0x122>
    59c0:	002d1893          	slli	a7,s10,0x2
    59c4:	189c                	addi	a5,sp,112
    59c6:	00488513          	addi	a0,a7,4
    59ca:	002c9d93          	slli	s11,s9,0x2
    59ce:	98be                	add	a7,a7,a5
    59d0:	0a5c                	addi	a5,sp,276
    59d2:	11010813          	addi	a6,sp,272
    59d6:	01b78333          	add	t1,a5,s11
    59da:	9532                	add	a0,a0,a2
    59dc:	8746                	mv	a4,a7
    59de:	87b2                	mv	a5,a2
    59e0:	f00007d3          	fmv.w.x	fa5,zero
    59e4:	000d4a63          	bltz	s10,59f8 <__kernel_rem_pio2f+0x116>
    59e8:	6394                	flw	fa3,0(a5)
    59ea:	6318                	flw	fa4,0(a4)
    59ec:	0791                	addi	a5,a5,4
    59ee:	1771                	addi	a4,a4,-4
    59f0:	78e6f7c3          	fmadd.s	fa5,fa3,fa4,fa5
    59f4:	fea79ae3          	bne	a5,a0,59e8 <__kernel_rem_pio2f+0x106>
    59f8:	00f82027          	fsw	fa5,0(a6)
    59fc:	0811                	addi	a6,a6,4
    59fe:	0891                	addi	a7,a7,4
    5a00:	fc681ee3          	bne	a6,t1,59dc <__kernel_rem_pio2f+0xfa>
    5a04:	fffc8793          	addi	a5,s9,-1
    5a08:	ff8d8993          	addi	s3,s11,-8
    5a0c:	00279913          	slli	s2,a5,0x2
    5a10:	02010a93          	addi	s5,sp,32
    5a14:	087c                	addi	a5,sp,28
    5a16:	9dbe                	add	s11,s11,a5
    5a18:	013a87b3          	add	a5,s5,s3
    5a1c:	c63e                	sw	a5,12(sp)
    5a1e:	068a                	slli	a3,a3,0x2
    5a20:	00003797          	auipc	a5,0x3
    5a24:	7a07a487          	flw	fs1,1952(a5) # 91c0 <PIo2+0x34>
    5a28:	00003797          	auipc	a5,0x3
    5a2c:	2187a407          	flw	fs0,536(a5) # 8c40 <MySerNumInfo+0xe0>
    5a30:	00003797          	auipc	a5,0x3
    5a34:	1c47a907          	flw	fs2,452(a5) # 8bf4 <MySerNumInfo+0x94>
    5a38:	00003797          	auipc	a5,0x3
    5a3c:	7847ab07          	flw	fs6,1924(a5) # 91bc <PIo2+0x30>
    5a40:	00003797          	auipc	a5,0x3
    5a44:	3907aa87          	flw	fs5,912(a5) # 8dd0 <MySerNumInfo+0x270>
    5a48:	00003797          	auipc	a5,0x3
    5a4c:	1947a987          	flw	fs3,404(a5) # 8bdc <MySerNumInfo+0x7c>
    5a50:	00d60c33          	add	s8,a2,a3
    5a54:	129c                	addi	a5,sp,352
    5a56:	400006b7          	lui	a3,0x40000
    5a5a:	89e6                	mv	s3,s9
    5a5c:	fff68413          	addi	s0,a3,-1 # 3fffffff <_eusrstack+0x1fff7fff>
    5a60:	993e                	add	s2,s2,a5
    5a62:	00299493          	slli	s1,s3,0x2
    5a66:	129c                	addi	a5,sp,352
    5a68:	97a6                	add	a5,a5,s1
    5a6a:	fb07a507          	flw	fa0,-80(a5)
    5a6e:	03305f63          	blez	s3,5aac <__kernel_rem_pio2f+0x1ca>
    5a72:	00898533          	add	a0,s3,s0
    5a76:	11010e93          	addi	t4,sp,272
    5a7a:	050a                	slli	a0,a0,0x2
    5a7c:	9576                	add	a0,a0,t4
    5a7e:	8356                	mv	t1,s5
    5a80:	a011                	j	5a84 <__kernel_rem_pio2f+0x1a2>
    5a82:	8572                	mv	a0,t3
    5a84:	116577d3          	fmul.s	fa5,fa0,fs6
    5a88:	6114                	flw	fa3,0(a0)
    5a8a:	0311                	addi	t1,t1,4
    5a8c:	ffc50e13          	addi	t3,a0,-4
    5a90:	c00797d3          	fcvt.w.s	a5,fa5,rtz
    5a94:	d007f7d3          	fcvt.s.w	fa5,a5
    5a98:	5157f74b          	fnmsub.s	fa4,fa5,fs5,fa0
    5a9c:	00d7f553          	fadd.s	fa0,fa5,fa3
    5aa0:	c00717d3          	fcvt.w.s	a5,fa4,rtz
    5aa4:	fef32e23          	sw	a5,-4(t1)
    5aa8:	fcae9de3          	bne	t4,a0,5a82 <__kernel_rem_pio2f+0x1a0>
    5aac:	8552                	mv	a0,s4
    5aae:	c032                	sw	a2,0(sp)
    5ab0:	2be9                	jal	608a <scalbnf>
    5ab2:	20a50a53          	fmv.s	fs4,fa0
    5ab6:	10957553          	fmul.s	fa0,fa0,fs1
    5aba:	c36ff0ef          	jal	ra,4ef0 <floorf>
    5abe:	a085754b          	fnmsub.s	fa0,fa0,fs0,fs4
    5ac2:	4602                	lw	a2,0(sp)
    5ac4:	c0051b53          	fcvt.w.s	s6,fa0,rtz
    5ac8:	d00b7a53          	fcvt.s.w	fs4,s6
    5acc:	09457a53          	fsub.s	fs4,fa0,fs4
    5ad0:	0d405f63          	blez	s4,5bae <__kernel_rem_pio2f+0x2cc>
    5ad4:	fff98793          	addi	a5,s3,-1
    5ad8:	078a                	slli	a5,a5,0x2
    5ada:	1298                	addi	a4,sp,352
    5adc:	97ba                	add	a5,a5,a4
    5ade:	ec07a303          	lw	t1,-320(a5)
    5ae2:	4521                	li	a0,8
    5ae4:	41450533          	sub	a0,a0,s4
    5ae8:	40a35e33          	sra	t3,t1,a0
    5aec:	00ae1533          	sll	a0,t3,a0
    5af0:	40a30333          	sub	t1,t1,a0
    5af4:	451d                	li	a0,7
    5af6:	41450533          	sub	a0,a0,s4
    5afa:	ec67a023          	sw	t1,-320(a5)
    5afe:	40a35bb3          	sra	s7,t1,a0
    5b02:	9b72                	add	s6,s6,t3
    5b04:	0d704263          	bgtz	s7,5bc8 <__kernel_rem_pio2f+0x2e6>
    5b08:	f00007d3          	fmv.w.x	fa5,zero
    5b0c:	a0fa27d3          	feq.s	a5,fs4,fa5
    5b10:	12078963          	beqz	a5,5c42 <__kernel_rem_pio2f+0x360>
    5b14:	fff98e13          	addi	t3,s3,-1
    5b18:	019e4e63          	blt	t3,s9,5b34 <__kernel_rem_pio2f+0x252>
    5b1c:	008987b3          	add	a5,s3,s0
    5b20:	078a                	slli	a5,a5,0x2
    5b22:	97d6                	add	a5,a5,s5
    5b24:	4701                	li	a4,0
    5b26:	4388                	lw	a0,0(a5)
    5b28:	17f1                	addi	a5,a5,-4
    5b2a:	8f49                	or	a4,a4,a0
    5b2c:	ffb79de3          	bne	a5,s11,5b26 <__kernel_rem_pio2f+0x244>
    5b30:	30071663          	bnez	a4,5e3c <__kernel_rem_pio2f+0x55a>
    5b34:	ec092783          	lw	a5,-320(s2)
    5b38:	2e079d63          	bnez	a5,5e32 <__kernel_rem_pio2f+0x550>
    5b3c:	47b2                	lw	a5,12(sp)
    5b3e:	4705                	li	a4,1
    5b40:	17f1                	addi	a5,a5,-4
    5b42:	43c8                	lw	a0,4(a5)
    5b44:	0705                	addi	a4,a4,1
    5b46:	dd6d                	beqz	a0,5b40 <__kernel_rem_pio2f+0x25e>
    5b48:	00198793          	addi	a5,s3,1
    5b4c:	8e3e                	mv	t3,a5
    5b4e:	00e988b3          	add	a7,s3,a4
    5b52:	4722                	lw	a4,8(sp)
    5b54:	00fd0533          	add	a0,s10,a5
    5b58:	9522                	add	a0,a0,s0
    5b5a:	00f70333          	add	t1,a4,a5
    5b5e:	4712                	lw	a4,4(sp)
    5b60:	030a                	slli	t1,t1,0x2
    5b62:	078a                	slli	a5,a5,0x2
    5b64:	933a                	add	t1,t1,a4
    5b66:	0a18                	addi	a4,sp,272
    5b68:	050a                	slli	a0,a0,0x2
    5b6a:	00f70eb3          	add	t4,a4,a5
    5b6e:	189c                	addi	a5,sp,112
    5b70:	953e                	add	a0,a0,a5
    5b72:	00032783          	lw	a5,0(t1)
    5b76:	f0000753          	fmv.w.x	fa4,zero
    5b7a:	d007f7d3          	fcvt.s.w	fa5,a5
    5b7e:	e15c                	fsw	fa5,4(a0)
    5b80:	000d4d63          	bltz	s10,5b9a <__kernel_rem_pio2f+0x2b8>
    5b84:	872a                	mv	a4,a0
    5b86:	87b2                	mv	a5,a2
    5b88:	a019                	j	5b8e <__kernel_rem_pio2f+0x2ac>
    5b8a:	631c                	flw	fa5,0(a4)
    5b8c:	1771                	addi	a4,a4,-4
    5b8e:	6394                	flw	fa3,0(a5)
    5b90:	0791                	addi	a5,a5,4
    5b92:	70f6f743          	fmadd.s	fa4,fa3,fa5,fa4
    5b96:	ff879ae3          	bne	a5,s8,5b8a <__kernel_rem_pio2f+0x2a8>
    5b9a:	00eea027          	fsw	fa4,0(t4)
    5b9e:	0e05                	addi	t3,t3,1
    5ba0:	0311                	addi	t1,t1,4
    5ba2:	0e91                	addi	t4,t4,4
    5ba4:	0511                	addi	a0,a0,4
    5ba6:	fdc8d6e3          	bge	a7,t3,5b72 <__kernel_rem_pio2f+0x290>
    5baa:	89c6                	mv	s3,a7
    5bac:	bd5d                	j	5a62 <__kernel_rem_pio2f+0x180>
    5bae:	260a1663          	bnez	s4,5e1a <__kernel_rem_pio2f+0x538>
    5bb2:	fff98793          	addi	a5,s3,-1
    5bb6:	078a                	slli	a5,a5,0x2
    5bb8:	1298                	addi	a4,sp,352
    5bba:	97ba                	add	a5,a5,a4
    5bbc:	ec07a303          	lw	t1,-320(a5)
    5bc0:	40835b93          	srai	s7,t1,0x8
    5bc4:	f57052e3          	blez	s7,5b08 <__kernel_rem_pio2f+0x226>
    5bc8:	0b05                	addi	s6,s6,1
    5bca:	3d305563          	blez	s3,5f94 <__kernel_rem_pio2f+0x6b2>
    5bce:	5e02                	lw	t3,32(sp)
    5bd0:	200e1363          	bnez	t3,5dd6 <__kernel_rem_pio2f+0x4f4>
    5bd4:	4785                	li	a5,1
    5bd6:	00f98e63          	beq	s3,a5,5bf2 <__kernel_rem_pio2f+0x310>
    5bda:	02410f13          	addi	t5,sp,36
    5bde:	000f2e03          	lw	t3,0(t5)
    5be2:	00178513          	addi	a0,a5,1
    5be6:	0f11                	addi	t5,t5,4
    5be8:	1e0e1963          	bnez	t3,5dda <__kernel_rem_pio2f+0x4f8>
    5bec:	87aa                	mv	a5,a0
    5bee:	fea998e3          	bne	s3,a0,5bde <__kernel_rem_pio2f+0x2fc>
    5bf2:	03405363          	blez	s4,5c18 <__kernel_rem_pio2f+0x336>
    5bf6:	4785                	li	a5,1
    5bf8:	36fa0e63          	beq	s4,a5,5f74 <__kernel_rem_pio2f+0x692>
    5bfc:	4789                	li	a5,2
    5bfe:	00fa1d63          	bne	s4,a5,5c18 <__kernel_rem_pio2f+0x336>
    5c02:	fff98793          	addi	a5,s3,-1
    5c06:	078a                	slli	a5,a5,0x2
    5c08:	1298                	addi	a4,sp,352
    5c0a:	97ba                	add	a5,a5,a4
    5c0c:	ec07a503          	lw	a0,-320(a5)
    5c10:	03f57513          	andi	a0,a0,63
    5c14:	eca7a023          	sw	a0,-320(a5)
    5c18:	4789                	li	a5,2
    5c1a:	eefb97e3          	bne	s7,a5,5b08 <__kernel_rem_pio2f+0x226>
    5c1e:	09497a53          	fsub.s	fs4,fs2,fs4
    5c22:	ee0e03e3          	beqz	t3,5b08 <__kernel_rem_pio2f+0x226>
    5c26:	21290553          	fmv.s	fa0,fs2
    5c2a:	8552                	mv	a0,s4
    5c2c:	c032                	sw	a2,0(sp)
    5c2e:	29b1                	jal	608a <scalbnf>
    5c30:	08aa7a53          	fsub.s	fs4,fs4,fa0
    5c34:	f00007d3          	fmv.w.x	fa5,zero
    5c38:	4602                	lw	a2,0(sp)
    5c3a:	a0fa27d3          	feq.s	a5,fs4,fa5
    5c3e:	ec079be3          	bnez	a5,5b14 <__kernel_rem_pio2f+0x232>
    5c42:	47e2                	lw	a5,24(sp)
    5c44:	4772                	lw	a4,28(sp)
    5c46:	214a0553          	fmv.s	fa0,fs4
    5c4a:	40e78533          	sub	a0,a5,a4
    5c4e:	2935                	jal	608a <scalbnf>
    5c50:	00003797          	auipc	a5,0x3
    5c54:	1807a687          	flw	fa3,384(a5) # 8dd0 <MySerNumInfo+0x270>
    5c58:	a0a687d3          	fle.s	a5,fa3,fa0
    5c5c:	32078e63          	beqz	a5,5f98 <__kernel_rem_pio2f+0x6b6>
    5c60:	00003797          	auipc	a5,0x3
    5c64:	55c7a707          	flw	fa4,1372(a5) # 91bc <PIo2+0x30>
    5c68:	10e57753          	fmul.s	fa4,fa0,fa4
    5c6c:	00198e13          	addi	t3,s3,1
    5c70:	129c                	addi	a5,sp,352
    5c72:	002e1613          	slli	a2,t3,0x2
    5c76:	00978733          	add	a4,a5,s1
    5c7a:	963e                	add	a2,a2,a5
    5c7c:	c00717d3          	fcvt.w.s	a5,fa4,rtz
    5c80:	0a21                	addi	s4,s4,8
    5c82:	d007f7d3          	fcvt.s.w	fa5,a5
    5c86:	50d7f6cb          	fnmsub.s	fa3,fa5,fa3,fa0
    5c8a:	c00797d3          	fcvt.w.s	a5,fa5,rtz
    5c8e:	c00696d3          	fcvt.w.s	a3,fa3,rtz
    5c92:	ecd72023          	sw	a3,-320(a4)
    5c96:	ecf62023          	sw	a5,-320(a2)
    5c9a:	21290553          	fmv.s	fa0,fs2
    5c9e:	8552                	mv	a0,s4
    5ca0:	c072                	sw	t3,0(sp)
    5ca2:	26e5                	jal	608a <scalbnf>
    5ca4:	4e02                	lw	t3,0(sp)
    5ca6:	1c0e4563          	bltz	t3,5e70 <__kernel_rem_pio2f+0x58e>
    5caa:	002e1893          	slli	a7,t3,0x2
    5cae:	11010f13          	addi	t5,sp,272
    5cb2:	011f05b3          	add	a1,t5,a7
    5cb6:	011a8733          	add	a4,s5,a7
    5cba:	86ae                	mv	a3,a1
    5cbc:	00003797          	auipc	a5,0x3
    5cc0:	5007a707          	flw	fa4,1280(a5) # 91bc <PIo2+0x30>
    5cc4:	a011                	j	5cc8 <__kernel_rem_pio2f+0x3e6>
    5cc6:	8732                	mv	a4,a2
    5cc8:	431c                	lw	a5,0(a4)
    5cca:	16f1                	addi	a3,a3,-4
    5ccc:	ffc70613          	addi	a2,a4,-4
    5cd0:	d007f7d3          	fcvt.s.w	fa5,a5
    5cd4:	10a7f7d3          	fmul.s	fa5,fa5,fa0
    5cd8:	10e57553          	fmul.s	fa0,fa0,fa4
    5cdc:	e2dc                	fsw	fa5,4(a3)
    5cde:	feea94e3          	bne	s5,a4,5cc6 <__kernel_rem_pio2f+0x3e4>
    5ce2:	0c010813          	addi	a6,sp,192
    5ce6:	8542                	mv	a0,a6
    5ce8:	4601                	li	a2,0
    5cea:	00003797          	auipc	a5,0x3
    5cee:	4ce7a607          	flw	fa2,1230(a5) # 91b8 <PIo2+0x2c>
    5cf2:	040cc263          	bltz	s9,5d36 <__kernel_rem_pio2f+0x454>
    5cf6:	00003697          	auipc	a3,0x3
    5cfa:	49a68693          	addi	a3,a3,1178 # 9190 <PIo2+0x4>
    5cfe:	872e                	mv	a4,a1
    5d00:	20c60753          	fmv.s	fa4,fa2
    5d04:	f00007d3          	fmv.w.x	fa5,zero
    5d08:	4781                	li	a5,0
    5d0a:	a029                	j	5d14 <__kernel_rem_pio2f+0x432>
    5d0c:	00f64b63          	blt	a2,a5,5d22 <__kernel_rem_pio2f+0x440>
    5d10:	6298                	flw	fa4,0(a3)
    5d12:	0691                	addi	a3,a3,4
    5d14:	6314                	flw	fa3,0(a4)
    5d16:	0785                	addi	a5,a5,1
    5d18:	0711                	addi	a4,a4,4
    5d1a:	78e6f7c3          	fmadd.s	fa5,fa3,fa4,fa5
    5d1e:	fefcd7e3          	bge	s9,a5,5d0c <__kernel_rem_pio2f+0x42a>
    5d22:	e11c                	fsw	fa5,0(a0)
    5d24:	0605                	addi	a2,a2,1
    5d26:	0511                	addi	a0,a0,4
    5d28:	ffc58793          	addi	a5,a1,-4 # fffc <_data_lma+0x6c80>
    5d2c:	00bf0f63          	beq	t5,a1,5d4a <__kernel_rem_pio2f+0x468>
    5d30:	85be                	mv	a1,a5
    5d32:	fc0cd2e3          	bgez	s9,5cf6 <__kernel_rem_pio2f+0x414>
    5d36:	f00007d3          	fmv.w.x	fa5,zero
    5d3a:	0605                	addi	a2,a2,1
    5d3c:	0511                	addi	a0,a0,4
    5d3e:	fef52e27          	fsw	fa5,-4(a0)
    5d42:	ffc58793          	addi	a5,a1,-4
    5d46:	febf15e3          	bne	t5,a1,5d30 <__kernel_rem_pio2f+0x44e>
    5d4a:	4752                	lw	a4,20(sp)
    5d4c:	4789                	li	a5,2
    5d4e:	18e7c063          	blt	a5,a4,5ece <__kernel_rem_pio2f+0x5ec>
    5d52:	98c2                	add	a7,a7,a6
    5d54:	f00007d3          	fmv.w.x	fa5,zero
    5d58:	12e04a63          	bgtz	a4,5e8c <__kernel_rem_pio2f+0x5aa>
    5d5c:	c319                	beqz	a4,5d62 <__kernel_rem_pio2f+0x480>
    5d5e:	a005                	j	5d7e <__kernel_rem_pio2f+0x49c>
    5d60:	88be                	mv	a7,a5
    5d62:	0008a707          	flw	fa4,0(a7)
    5d66:	ffc88793          	addi	a5,a7,-4
    5d6a:	00e7f7d3          	fadd.s	fa5,fa5,fa4
    5d6e:	ff1819e3          	bne	a6,a7,5d60 <__kernel_rem_pio2f+0x47e>
    5d72:	000b8463          	beqz	s7,5d7a <__kernel_rem_pio2f+0x498>
    5d76:	20f797d3          	fneg.s	fa5,fa5
    5d7a:	47c2                	lw	a5,16(sp)
    5d7c:	e39c                	fsw	fa5,0(a5)
    5d7e:	1bc12083          	lw	ra,444(sp)
    5d82:	1b812403          	lw	s0,440(sp)
    5d86:	007b7513          	andi	a0,s6,7
    5d8a:	1b412483          	lw	s1,436(sp)
    5d8e:	1b012903          	lw	s2,432(sp)
    5d92:	1ac12983          	lw	s3,428(sp)
    5d96:	1a812a03          	lw	s4,424(sp)
    5d9a:	1a412a83          	lw	s5,420(sp)
    5d9e:	1a012b03          	lw	s6,416(sp)
    5da2:	19c12b83          	lw	s7,412(sp)
    5da6:	19812c03          	lw	s8,408(sp)
    5daa:	19412c83          	lw	s9,404(sp)
    5dae:	19012d03          	lw	s10,400(sp)
    5db2:	18c12d83          	lw	s11,396(sp)
    5db6:	17c12407          	flw	fs0,380(sp)
    5dba:	17812487          	flw	fs1,376(sp)
    5dbe:	17412907          	flw	fs2,372(sp)
    5dc2:	17012987          	flw	fs3,368(sp)
    5dc6:	16c12a07          	flw	fs4,364(sp)
    5dca:	16812a87          	flw	fs5,360(sp)
    5dce:	16412b07          	flw	fs6,356(sp)
    5dd2:	6139                	addi	sp,sp,448
    5dd4:	8082                	ret
    5dd6:	4505                	li	a0,1
    5dd8:	4781                	li	a5,0
    5dda:	078a                	slli	a5,a5,0x2
    5ddc:	1298                	addi	a4,sp,352
    5dde:	10000f13          	li	t5,256
    5de2:	97ba                	add	a5,a5,a4
    5de4:	41cf0e33          	sub	t3,t5,t3
    5de8:	edc7a023          	sw	t3,-320(a5)
    5dec:	03355563          	bge	a0,s3,5e16 <__kernel_rem_pio2f+0x534>
    5df0:	00251793          	slli	a5,a0,0x2
    5df4:	00f70533          	add	a0,a4,a5
    5df8:	ec052503          	lw	a0,-320(a0)
    5dfc:	97d6                	add	a5,a5,s5
    5dfe:	009a8f33          	add	t5,s5,s1
    5e02:	0ff00e13          	li	t3,255
    5e06:	a011                	j	5e0a <__kernel_rem_pio2f+0x528>
    5e08:	4388                	lw	a0,0(a5)
    5e0a:	40ae0533          	sub	a0,t3,a0
    5e0e:	c388                	sw	a0,0(a5)
    5e10:	0791                	addi	a5,a5,4
    5e12:	ffe79be3          	bne	a5,t5,5e08 <__kernel_rem_pio2f+0x526>
    5e16:	4e05                	li	t3,1
    5e18:	bbe9                	j	5bf2 <__kernel_rem_pio2f+0x310>
    5e1a:	a14987d3          	fle.s	a5,fs3,fs4
    5e1e:	4b81                	li	s7,0
    5e20:	ce0784e3          	beqz	a5,5b08 <__kernel_rem_pio2f+0x226>
    5e24:	0b05                	addi	s6,s6,1
    5e26:	4b89                	li	s7,2
    5e28:	db3043e3          	bgtz	s3,5bce <__kernel_rem_pio2f+0x2ec>
    5e2c:	09497a53          	fsub.s	fs4,fs2,fs4
    5e30:	b9e1                	j	5b08 <__kernel_rem_pio2f+0x226>
    5e32:	00198793          	addi	a5,s3,1
    5e36:	8e3e                	mv	t3,a5
    5e38:	88be                	mv	a7,a5
    5e3a:	bb21                	j	5b52 <__kernel_rem_pio2f+0x270>
    5e3c:	002e1793          	slli	a5,t3,0x2
    5e40:	1298                	addi	a4,sp,352
    5e42:	97ba                	add	a5,a5,a4
    5e44:	ec07a783          	lw	a5,-320(a5)
    5e48:	1a61                	addi	s4,s4,-8
    5e4a:	e40798e3          	bnez	a5,5c9a <__kernel_rem_pio2f+0x3b8>
    5e4e:	00299793          	slli	a5,s3,0x2
    5e52:	17e1                	addi	a5,a5,-8
    5e54:	97d6                	add	a5,a5,s5
    5e56:	17f1                	addi	a5,a5,-4
    5e58:	43d8                	lw	a4,4(a5)
    5e5a:	1e7d                	addi	t3,t3,-1
    5e5c:	1a61                	addi	s4,s4,-8
    5e5e:	df65                	beqz	a4,5e56 <__kernel_rem_pio2f+0x574>
    5e60:	21290553          	fmv.s	fa0,fs2
    5e64:	8552                	mv	a0,s4
    5e66:	c072                	sw	t3,0(sp)
    5e68:	240d                	jal	608a <scalbnf>
    5e6a:	4e02                	lw	t3,0(sp)
    5e6c:	e20e5fe3          	bgez	t3,5caa <__kernel_rem_pio2f+0x3c8>
    5e70:	4752                	lw	a4,20(sp)
    5e72:	4789                	li	a5,2
    5e74:	04e7cd63          	blt	a5,a4,5ece <__kernel_rem_pio2f+0x5ec>
    5e78:	f00007d3          	fmv.w.x	fa5,zero
    5e7c:	02e04063          	bgtz	a4,5e9c <__kernel_rem_pio2f+0x5ba>
    5e80:	ee071fe3          	bnez	a4,5d7e <__kernel_rem_pio2f+0x49c>
    5e84:	ee0b8be3          	beqz	s7,5d7a <__kernel_rem_pio2f+0x498>
    5e88:	b5fd                	j	5d76 <__kernel_rem_pio2f+0x494>
    5e8a:	88be                	mv	a7,a5
    5e8c:	0008a707          	flw	fa4,0(a7)
    5e90:	ffc88793          	addi	a5,a7,-4
    5e94:	00e7f7d3          	fadd.s	fa5,fa5,fa4
    5e98:	ff1819e3          	bne	a6,a7,5e8a <__kernel_rem_pio2f+0x5a8>
    5e9c:	670e                	flw	fa4,192(sp)
    5e9e:	08f77753          	fsub.s	fa4,fa4,fa5
    5ea2:	100b9363          	bnez	s7,5fa8 <__kernel_rem_pio2f+0x6c6>
    5ea6:	47c2                	lw	a5,16(sp)
    5ea8:	e39c                	fsw	fa5,0(a5)
    5eaa:	01c05f63          	blez	t3,5ec8 <__kernel_rem_pio2f+0x5e6>
    5eae:	01d8                	addi	a4,sp,196
    5eb0:	4785                	li	a5,1
    5eb2:	631c                	flw	fa5,0(a4)
    5eb4:	0785                	addi	a5,a5,1
    5eb6:	0711                	addi	a4,a4,4
    5eb8:	00f77753          	fadd.s	fa4,fa4,fa5
    5ebc:	fefe5be3          	bge	t3,a5,5eb2 <__kernel_rem_pio2f+0x5d0>
    5ec0:	000b8463          	beqz	s7,5ec8 <__kernel_rem_pio2f+0x5e6>
    5ec4:	20e71753          	fneg.s	fa4,fa4
    5ec8:	47c2                	lw	a5,16(sp)
    5eca:	e3d8                	fsw	fa4,4(a5)
    5ecc:	bd4d                	j	5d7e <__kernel_rem_pio2f+0x49c>
    5ece:	4752                	lw	a4,20(sp)
    5ed0:	478d                	li	a5,3
    5ed2:	eaf716e3          	bne	a4,a5,5d7e <__kernel_rem_pio2f+0x49c>
    5ed6:	0fc05d63          	blez	t3,5fd0 <__kernel_rem_pio2f+0x6ee>
    5eda:	002e1713          	slli	a4,t3,0x2
    5ede:	1294                	addi	a3,sp,352
    5ee0:	96ba                	add	a3,a3,a4
    5ee2:	0c010813          	addi	a6,sp,192
    5ee6:	ffc70793          	addi	a5,a4,-4
    5eea:	f606a687          	flw	fa3,-160(a3)
    5eee:	97c2                	add	a5,a5,a6
    5ef0:	a011                	j	5ef4 <__kernel_rem_pio2f+0x612>
    5ef2:	87b6                	mv	a5,a3
    5ef4:	639c                	flw	fa5,0(a5)
    5ef6:	ffc78693          	addi	a3,a5,-4
    5efa:	00d7f753          	fadd.s	fa4,fa5,fa3
    5efe:	08e7f7d3          	fsub.s	fa5,fa5,fa4
    5f02:	e398                	fsw	fa4,0(a5)
    5f04:	00d7f7d3          	fadd.s	fa5,fa5,fa3
    5f08:	20e706d3          	fmv.s	fa3,fa4
    5f0c:	e3dc                	fsw	fa5,4(a5)
    5f0e:	fef812e3          	bne	a6,a5,5ef2 <__kernel_rem_pio2f+0x610>
    5f12:	4785                	li	a5,1
    5f14:	0bc7de63          	bge	a5,t3,5fd0 <__kernel_rem_pio2f+0x6ee>
    5f18:	002e1793          	slli	a5,t3,0x2
    5f1c:	1294                	addi	a3,sp,352
    5f1e:	9736                	add	a4,a4,a3
    5f20:	17f1                	addi	a5,a5,-4
    5f22:	f6072687          	flw	fa3,-160(a4)
    5f26:	00f80733          	add	a4,a6,a5
    5f2a:	a011                	j	5f2e <__kernel_rem_pio2f+0x64c>
    5f2c:	8736                	mv	a4,a3
    5f2e:	631c                	flw	fa5,0(a4)
    5f30:	ffc70693          	addi	a3,a4,-4
    5f34:	00d7f753          	fadd.s	fa4,fa5,fa3
    5f38:	08e7f7d3          	fsub.s	fa5,fa5,fa4
    5f3c:	e318                	fsw	fa4,0(a4)
    5f3e:	00d7f7d3          	fadd.s	fa5,fa5,fa3
    5f42:	20e706d3          	fmv.s	fa3,fa4
    5f46:	e35c                	fsw	fa5,4(a4)
    5f48:	fed812e3          	bne	a6,a3,5f2c <__kernel_rem_pio2f+0x64a>
    5f4c:	f00007d3          	fmv.w.x	fa5,zero
    5f50:	0791                	addi	a5,a5,4
    5f52:	983e                	add	a6,a6,a5
    5f54:	00082707          	flw	fa4,0(a6)
    5f58:	1871                	addi	a6,a6,-4
    5f5a:	00e7f7d3          	fadd.s	fa5,fa5,fa4
    5f5e:	ff071be3          	bne	a4,a6,5f54 <__kernel_rem_pio2f+0x672>
    5f62:	668e                	flw	fa3,192(sp)
    5f64:	671e                	flw	fa4,196(sp)
    5f66:	040b9a63          	bnez	s7,5fba <__kernel_rem_pio2f+0x6d8>
    5f6a:	47c2                	lw	a5,16(sp)
    5f6c:	e394                	fsw	fa3,0(a5)
    5f6e:	e3d8                	fsw	fa4,4(a5)
    5f70:	e79c                	fsw	fa5,8(a5)
    5f72:	b531                	j	5d7e <__kernel_rem_pio2f+0x49c>
    5f74:	fff98793          	addi	a5,s3,-1
    5f78:	078a                	slli	a5,a5,0x2
    5f7a:	1298                	addi	a4,sp,352
    5f7c:	97ba                	add	a5,a5,a4
    5f7e:	ec07a503          	lw	a0,-320(a5)
    5f82:	07f57513          	andi	a0,a0,127
    5f86:	eca7a023          	sw	a0,-320(a5)
    5f8a:	b179                	j	5c18 <__kernel_rem_pio2f+0x336>
    5f8c:	47a1                	li	a5,8
    5f8e:	cc3e                	sw	a5,24(sp)
    5f90:	c402                	sw	zero,8(sp)
    5f92:	b2dd                	j	5978 <__kernel_rem_pio2f+0x96>
    5f94:	4e01                	li	t3,0
    5f96:	b9b1                	j	5bf2 <__kernel_rem_pio2f+0x310>
    5f98:	c00517d3          	fcvt.w.s	a5,fa0,rtz
    5f9c:	1298                	addi	a4,sp,352
    5f9e:	9726                	add	a4,a4,s1
    5fa0:	8e4e                	mv	t3,s3
    5fa2:	ecf72023          	sw	a5,-320(a4)
    5fa6:	b9d5                	j	5c9a <__kernel_rem_pio2f+0x3b8>
    5fa8:	20f797d3          	fneg.s	fa5,fa5
    5fac:	47c2                	lw	a5,16(sp)
    5fae:	e39c                	fsw	fa5,0(a5)
    5fb0:	efc04fe3          	bgtz	t3,5eae <__kernel_rem_pio2f+0x5cc>
    5fb4:	20e71753          	fneg.s	fa4,fa4
    5fb8:	bf01                	j	5ec8 <__kernel_rem_pio2f+0x5e6>
    5fba:	47c2                	lw	a5,16(sp)
    5fbc:	20d696d3          	fneg.s	fa3,fa3
    5fc0:	20e71753          	fneg.s	fa4,fa4
    5fc4:	20f797d3          	fneg.s	fa5,fa5
    5fc8:	e394                	fsw	fa3,0(a5)
    5fca:	e3d8                	fsw	fa4,4(a5)
    5fcc:	e79c                	fsw	fa5,8(a5)
    5fce:	bb45                	j	5d7e <__kernel_rem_pio2f+0x49c>
    5fd0:	f00007d3          	fmv.w.x	fa5,zero
    5fd4:	b779                	j	5f62 <__kernel_rem_pio2f+0x680>

00005fd6 <__kernel_sinf>:
    5fd6:	e00507d3          	fmv.x.w	a5,fa0
    5fda:	320006b7          	lui	a3,0x32000
    5fde:	00179713          	slli	a4,a5,0x1
    5fe2:	8305                	srli	a4,a4,0x1
    5fe4:	00d75563          	bge	a4,a3,5fee <__kernel_sinf+0x18>
    5fe8:	c0051753          	fcvt.w.s	a4,fa0,rtz
    5fec:	c749                	beqz	a4,6076 <__kernel_sinf+0xa0>
    5fee:	f00787d3          	fmv.w.x	fa5,a5
    5ff2:	00003717          	auipc	a4,0x3
    5ff6:	1e272687          	flw	fa3,482(a4) # 91d4 <init_jk+0x10>
    5ffa:	00003717          	auipc	a4,0x3
    5ffe:	1de72007          	flw	ft0,478(a4) # 91d8 <init_jk+0x14>
    6002:	10f7f753          	fmul.s	fa4,fa5,fa5
    6006:	00003717          	auipc	a4,0x3
    600a:	1ca72787          	flw	fa5,458(a4) # 91d0 <init_jk+0xc>
    600e:	00003717          	auipc	a4,0x3
    6012:	1ce72607          	flw	fa2,462(a4) # 91dc <init_jk+0x18>
    6016:	f0078553          	fmv.w.x	fa0,a5
    601a:	68f777c3          	fmadd.s	fa5,fa4,fa5,fa3
    601e:	00003717          	auipc	a4,0x3
    6022:	1c272687          	flw	fa3,450(a4) # 91e0 <init_jk+0x1c>
    6026:	10e57553          	fmul.s	fa0,fa0,fa4
    602a:	00e7f7c3          	fmadd.s	fa5,fa5,fa4,ft0
    602e:	60e7f7c3          	fmadd.s	fa5,fa5,fa4,fa2
    6032:	68e7f7c3          	fmadd.s	fa5,fa5,fa4,fa3
    6036:	ed01                	bnez	a0,604e <__kernel_sinf+0x78>
    6038:	00003717          	auipc	a4,0x3
    603c:	1ac72587          	flw	fa1,428(a4) # 91e4 <init_jk+0x20>
    6040:	58f777c3          	fmadd.s	fa5,fa4,fa5,fa1
    6044:	f0078753          	fmv.w.x	fa4,a5
    6048:	70a7f543          	fmadd.s	fa0,fa5,fa0,fa4
    604c:	8082                	ret
    604e:	10f577d3          	fmul.s	fa5,fa0,fa5
    6052:	00003717          	auipc	a4,0x3
    6056:	b8a72687          	flw	fa3,-1142(a4) # 8bdc <MySerNumInfo+0x7c>
    605a:	00003717          	auipc	a4,0x3
    605e:	18e72607          	flw	fa2,398(a4) # 91e8 <init_jk+0x24>
    6062:	78d5f7c7          	fmsub.s	fa5,fa1,fa3,fa5
    6066:	58e7f7c7          	fmsub.s	fa5,fa5,fa4,fa1
    606a:	78c57543          	fmadd.s	fa0,fa0,fa2,fa5
    606e:	f00787d3          	fmv.w.x	fa5,a5
    6072:	08a7f553          	fsub.s	fa0,fa5,fa0
    6076:	8082                	ret

00006078 <matherr>:
    6078:	4501                	li	a0,0
    607a:	8082                	ret

0000607c <fabsf>:
    607c:	e00507d3          	fmv.x.w	a5,fa0
    6080:	0786                	slli	a5,a5,0x1
    6082:	8385                	srli	a5,a5,0x1
    6084:	f0078553          	fmv.w.x	fa0,a5
    6088:	8082                	ret

0000608a <scalbnf>:
    608a:	e0050753          	fmv.x.w	a4,fa0
    608e:	00171793          	slli	a5,a4,0x1
    6092:	8385                	srli	a5,a5,0x1
    6094:	c3b9                	beqz	a5,60da <scalbnf+0x50>
    6096:	7f800637          	lui	a2,0x7f800
    609a:	02c7f963          	bgeu	a5,a2,60cc <scalbnf+0x42>
    609e:	00c776b3          	and	a3,a4,a2
    60a2:	ee9d                	bnez	a3,60e0 <scalbnf+0x56>
    60a4:	00003797          	auipc	a5,0x3
    60a8:	1487a787          	flw	fa5,328(a5) # 91ec <init_jk+0x28>
    60ac:	10f577d3          	fmul.s	fa5,fa0,fa5
    60b0:	77d1                	lui	a5,0xffff4
    60b2:	cb078793          	addi	a5,a5,-848 # ffff3cb0 <_eusrstack+0xdffebcb0>
    60b6:	e0078753          	fmv.x.w	a4,fa5
    60ba:	08f54663          	blt	a0,a5,6146 <scalbnf+0xbc>
    60be:	41775793          	srai	a5,a4,0x17
    60c2:	0ff7f793          	andi	a5,a5,255
    60c6:	86ba                	mv	a3,a4
    60c8:	179d                	addi	a5,a5,-25
    60ca:	a829                	j	60e4 <scalbnf+0x5a>
    60cc:	00a577d3          	fadd.s	fa5,fa0,fa0
    60d0:	e00787d3          	fmv.x.w	a5,fa5
    60d4:	f0078553          	fmv.w.x	fa0,a5
    60d8:	8082                	ret
    60da:	e00507d3          	fmv.x.w	a5,fa0
    60de:	bfdd                	j	60d4 <scalbnf+0x4a>
    60e0:	86ba                	mv	a3,a4
    60e2:	83dd                	srli	a5,a5,0x17
    60e4:	1101                	addi	sp,sp,-32
    60e6:	ce06                	sw	ra,28(sp)
    60e8:	e622                	fsw	fs0,12(sp)
    60ea:	97aa                	add	a5,a5,a0
    60ec:	0fe00613          	li	a2,254
    60f0:	00f64c63          	blt	a2,a5,6108 <scalbnf+0x7e>
    60f4:	02f04d63          	bgtz	a5,612e <scalbnf+0xa4>
    60f8:	5629                	li	a2,-22
    60fa:	06c7d163          	bge	a5,a2,615c <scalbnf+0xd2>
    60fe:	67b1                	lui	a5,0xc
    6100:	35078793          	addi	a5,a5,848 # c350 <_data_lma+0x2fd4>
    6104:	06a7de63          	bge	a5,a0,6180 <scalbnf+0xf6>
    6108:	00003797          	auipc	a5,0x3
    610c:	c987a407          	flw	fs0,-872(a5) # 8da0 <MySerNumInfo+0x240>
    6110:	20840553          	fmv.s	fa0,fs0
    6114:	f00705d3          	fmv.w.x	fa1,a4
    6118:	288d                	jal	618a <copysignf>
    611a:	108577d3          	fmul.s	fa5,fa0,fs0
    611e:	40f2                	lw	ra,28(sp)
    6120:	6432                	flw	fs0,12(sp)
    6122:	6105                	addi	sp,sp,32
    6124:	e00787d3          	fmv.x.w	a5,fa5
    6128:	f0078553          	fmv.w.x	fa0,a5
    612c:	8082                	ret
    612e:	80800737          	lui	a4,0x80800
    6132:	177d                	addi	a4,a4,-1
    6134:	8f75                	and	a4,a4,a3
    6136:	07de                	slli	a5,a5,0x17
    6138:	8fd9                	or	a5,a5,a4
    613a:	40f2                	lw	ra,28(sp)
    613c:	6432                	flw	fs0,12(sp)
    613e:	f0078553          	fmv.w.x	fa0,a5
    6142:	6105                	addi	sp,sp,32
    6144:	8082                	ret
    6146:	f0070753          	fmv.w.x	fa4,a4
    614a:	00003797          	auipc	a5,0x3
    614e:	0a67a787          	flw	fa5,166(a5) # 91f0 <init_jk+0x2c>
    6152:	10f777d3          	fmul.s	fa5,fa4,fa5
    6156:	e00787d3          	fmv.x.w	a5,fa5
    615a:	bfad                	j	60d4 <scalbnf+0x4a>
    615c:	80800737          	lui	a4,0x80800
    6160:	177d                	addi	a4,a4,-1
    6162:	07e5                	addi	a5,a5,25
    6164:	8ef9                	and	a3,a3,a4
    6166:	07de                	slli	a5,a5,0x17
    6168:	8fd5                	or	a5,a5,a3
    616a:	f0078753          	fmv.w.x	fa4,a5
    616e:	00003717          	auipc	a4,0x3
    6172:	08672787          	flw	fa5,134(a4) # 91f4 <init_jk+0x30>
    6176:	10f777d3          	fmul.s	fa5,fa4,fa5
    617a:	e00787d3          	fmv.x.w	a5,fa5
    617e:	bf75                	j	613a <scalbnf+0xb0>
    6180:	00003797          	auipc	a5,0x3
    6184:	0707a407          	flw	fs0,112(a5) # 91f0 <init_jk+0x2c>
    6188:	b761                	j	6110 <scalbnf+0x86>

0000618a <copysignf>:
    618a:	e00507d3          	fmv.x.w	a5,fa0
    618e:	e00586d3          	fmv.x.w	a3,fa1
    6192:	80000737          	lui	a4,0x80000
    6196:	fff74613          	not	a2,a4
    619a:	8ff1                	and	a5,a5,a2
    619c:	8f75                	and	a4,a4,a3
    619e:	8fd9                	or	a5,a5,a4
    61a0:	f0078553          	fmv.w.x	fa0,a5
    61a4:	8082                	ret

000061a6 <__adddf3>:
    61a6:	1101                	addi	sp,sp,-32
    61a8:	ce06                	sw	ra,28(sp)
    61aa:	cc22                	sw	s0,24(sp)
    61ac:	ca26                	sw	s1,20(sp)
    61ae:	c84a                	sw	s2,16(sp)
    61b0:	c64e                	sw	s3,12(sp)
    61b2:	c452                	sw	s4,8(sp)
    61b4:	002029f3          	frrm	s3
    61b8:	001008b7          	lui	a7,0x100
    61bc:	18fd                	addi	a7,a7,-1
    61be:	00b8f7b3          	and	a5,a7,a1
    61c2:	0146de13          	srli	t3,a3,0x14
    61c6:	00d8f8b3          	and	a7,a7,a3
    61ca:	0145d413          	srli	s0,a1,0x14
    61ce:	01d65313          	srli	t1,a2,0x1d
    61d2:	078e                	slli	a5,a5,0x3
    61d4:	01d55713          	srli	a4,a0,0x1d
    61d8:	088e                	slli	a7,a7,0x3
    61da:	01f5d913          	srli	s2,a1,0x1f
    61de:	7ff47413          	andi	s0,s0,2047
    61e2:	7ffe7593          	andi	a1,t3,2047
    61e6:	82fd                	srli	a3,a3,0x1f
    61e8:	011368b3          	or	a7,t1,a7
    61ec:	8f5d                	or	a4,a4,a5
    61ee:	00351813          	slli	a6,a0,0x3
    61f2:	00361e13          	slli	t3,a2,0x3
    61f6:	40b40333          	sub	t1,s0,a1
    61fa:	1cd90563          	beq	s2,a3,63c4 <__adddf3+0x21e>
    61fe:	16605363          	blez	t1,6364 <__adddf3+0x1be>
    6202:	20058763          	beqz	a1,6410 <__adddf3+0x26a>
    6206:	008006b7          	lui	a3,0x800
    620a:	7ff00793          	li	a5,2047
    620e:	00d8e8b3          	or	a7,a7,a3
    6212:	3ef40063          	beq	s0,a5,65f2 <__adddf3+0x44c>
    6216:	03800793          	li	a5,56
    621a:	3867c863          	blt	a5,t1,65aa <__adddf3+0x404>
    621e:	47fd                	li	a5,31
    6220:	5267cc63          	blt	a5,t1,6758 <__adddf3+0x5b2>
    6224:	02000793          	li	a5,32
    6228:	406787b3          	sub	a5,a5,t1
    622c:	00f894b3          	sll	s1,a7,a5
    6230:	006e56b3          	srl	a3,t3,t1
    6234:	00fe17b3          	sll	a5,t3,a5
    6238:	8cd5                	or	s1,s1,a3
    623a:	00f03e33          	snez	t3,a5
    623e:	0068d8b3          	srl	a7,a7,t1
    6242:	01c4e4b3          	or	s1,s1,t3
    6246:	41170733          	sub	a4,a4,a7
    624a:	409804b3          	sub	s1,a6,s1
    624e:	00983833          	sltu	a6,a6,s1
    6252:	41070733          	sub	a4,a4,a6
    6256:	00871793          	slli	a5,a4,0x8
    625a:	2407d863          	bgez	a5,64aa <__adddf3+0x304>
    625e:	00971a13          	slli	s4,a4,0x9
    6262:	009a5a13          	srli	s4,s4,0x9
    6266:	300a0a63          	beqz	s4,657a <__adddf3+0x3d4>
    626a:	8552                	mv	a0,s4
    626c:	74c020ef          	jal	ra,89b8 <__clzsi2>
    6270:	1561                	addi	a0,a0,-8
    6272:	02000793          	li	a5,32
    6276:	8f89                	sub	a5,a5,a0
    6278:	00aa1733          	sll	a4,s4,a0
    627c:	00f4d7b3          	srl	a5,s1,a5
    6280:	8fd9                	or	a5,a5,a4
    6282:	00a49a33          	sll	s4,s1,a0
    6286:	30854763          	blt	a0,s0,6594 <__adddf3+0x3ee>
    628a:	8d01                	sub	a0,a0,s0
    628c:	00150713          	addi	a4,a0,1
    6290:	46fd                	li	a3,31
    6292:	48e6ce63          	blt	a3,a4,672e <__adddf3+0x588>
    6296:	02000693          	li	a3,32
    629a:	8e99                	sub	a3,a3,a4
    629c:	00d794b3          	sll	s1,a5,a3
    62a0:	00ea5633          	srl	a2,s4,a4
    62a4:	00da16b3          	sll	a3,s4,a3
    62a8:	8cd1                	or	s1,s1,a2
    62aa:	00d036b3          	snez	a3,a3
    62ae:	8cd5                	or	s1,s1,a3
    62b0:	00e7d733          	srl	a4,a5,a4
    62b4:	00e4e7b3          	or	a5,s1,a4
    62b8:	cff5                	beqz	a5,63b4 <__adddf3+0x20e>
    62ba:	0074f793          	andi	a5,s1,7
    62be:	00149593          	slli	a1,s1,0x1
    62c2:	00171613          	slli	a2,a4,0x1
    62c6:	01f4d693          	srli	a3,s1,0x1f
    62ca:	0075f513          	andi	a0,a1,7
    62ce:	96b2                	add	a3,a3,a2
    62d0:	4301                	li	t1,0
    62d2:	c911                	beqz	a0,62e6 <__adddf3+0x140>
    62d4:	4609                	li	a2,2
    62d6:	60c98363          	beq	s3,a2,68dc <__adddf3+0x736>
    62da:	460d                	li	a2,3
    62dc:	4305                	li	t1,1
    62de:	62c98363          	beq	s3,a2,6904 <__adddf3+0x75e>
    62e2:	60098663          	beqz	s3,68ee <__adddf3+0x748>
    62e6:	01000637          	lui	a2,0x1000
    62ea:	8ef1                	and	a3,a3,a2
    62ec:	0016b613          	seqz	a2,a3
    62f0:	0a0786e3          	beqz	a5,6b9c <__adddf3+0x9f6>
    62f4:	4401                	li	s0,0
    62f6:	4789                	li	a5,2
    62f8:	24f98e63          	beq	s3,a5,6554 <__adddf3+0x3ae>
    62fc:	478d                	li	a5,3
    62fe:	4305                	li	t1,1
    6300:	26f98a63          	beq	s3,a5,6574 <__adddf3+0x3ce>
    6304:	22098c63          	beqz	s3,653c <__adddf3+0x396>
    6308:	008007b7          	lui	a5,0x800
    630c:	8ff9                	and	a5,a5,a4
    630e:	c219                	beqz	a2,6314 <__adddf3+0x16e>
    6310:	00236313          	ori	t1,t1,2
    6314:	060787e3          	beqz	a5,6b82 <__adddf3+0x9dc>
    6318:	0405                	addi	s0,s0,1
    631a:	7ff00793          	li	a5,2047
    631e:	1af40863          	beq	s0,a5,64ce <__adddf3+0x328>
    6322:	ff8007b7          	lui	a5,0xff800
    6326:	17fd                	addi	a5,a5,-1
    6328:	8ff9                	and	a5,a5,a4
    632a:	01d79813          	slli	a6,a5,0x1d
    632e:	808d                	srli	s1,s1,0x3
    6330:	07a6                	slli	a5,a5,0x9
    6332:	00986833          	or	a6,a6,s1
    6336:	83b1                	srli	a5,a5,0xc
    6338:	7ff47413          	andi	s0,s0,2047
    633c:	00c79713          	slli	a4,a5,0xc
    6340:	0452                	slli	s0,s0,0x14
    6342:	8331                	srli	a4,a4,0xc
    6344:	097e                	slli	s2,s2,0x1f
    6346:	8f41                	or	a4,a4,s0
    6348:	01276733          	or	a4,a4,s2
    634c:	8542                	mv	a0,a6
    634e:	85ba                	mv	a1,a4
    6350:	28031563          	bnez	t1,65da <__adddf3+0x434>
    6354:	40f2                	lw	ra,28(sp)
    6356:	4462                	lw	s0,24(sp)
    6358:	44d2                	lw	s1,20(sp)
    635a:	4942                	lw	s2,16(sp)
    635c:	49b2                	lw	s3,12(sp)
    635e:	4a22                	lw	s4,8(sp)
    6360:	6105                	addi	sp,sp,32
    6362:	8082                	ret
    6364:	0c031463          	bnez	t1,642c <__adddf3+0x286>
    6368:	00140793          	addi	a5,s0,1
    636c:	7fe7f793          	andi	a5,a5,2046
    6370:	2c079163          	bnez	a5,6632 <__adddf3+0x48c>
    6374:	01076eb3          	or	t4,a4,a6
    6378:	01c8e7b3          	or	a5,a7,t3
    637c:	5c041463          	bnez	s0,6944 <__adddf3+0x79e>
    6380:	4e0e8663          	beqz	t4,686c <__adddf3+0x6c6>
    6384:	4e078a63          	beqz	a5,6878 <__adddf3+0x6d2>
    6388:	41c805b3          	sub	a1,a6,t3
    638c:	00b837b3          	sltu	a5,a6,a1
    6390:	41170633          	sub	a2,a4,a7
    6394:	8e1d                	sub	a2,a2,a5
    6396:	00861793          	slli	a5,a2,0x8
    639a:	6e07d863          	bgez	a5,6a8a <__adddf3+0x8e4>
    639e:	410e04b3          	sub	s1,t3,a6
    63a2:	009e37b3          	sltu	a5,t3,s1
    63a6:	40e88733          	sub	a4,a7,a4
    63aa:	8f1d                	sub	a4,a4,a5
    63ac:	00e4e7b3          	or	a5,s1,a4
    63b0:	8936                	mv	s2,a3
    63b2:	f781                	bnez	a5,62ba <__adddf3+0x114>
    63b4:	4801                	li	a6,0
    63b6:	4401                	li	s0,0
    63b8:	4301                	li	t1,0
    63ba:	07b2                	slli	a5,a5,0xc
    63bc:	83b1                	srli	a5,a5,0xc
    63be:	7ff47413          	andi	s0,s0,2047
    63c2:	bfad                	j	633c <__adddf3+0x196>
    63c4:	12605663          	blez	t1,64f0 <__adddf3+0x34a>
    63c8:	c9dd                	beqz	a1,647e <__adddf3+0x2d8>
    63ca:	008006b7          	lui	a3,0x800
    63ce:	7ff00793          	li	a5,2047
    63d2:	00d8e8b3          	or	a7,a7,a3
    63d6:	20f40e63          	beq	s0,a5,65f2 <__adddf3+0x44c>
    63da:	03800793          	li	a5,56
    63de:	3067c663          	blt	a5,t1,66ea <__adddf3+0x544>
    63e2:	47fd                	li	a5,31
    63e4:	3e67da63          	bge	a5,t1,67d8 <__adddf3+0x632>
    63e8:	fe030493          	addi	s1,t1,-32
    63ec:	02000693          	li	a3,32
    63f0:	0098d7b3          	srl	a5,a7,s1
    63f4:	00d30a63          	beq	t1,a3,6408 <__adddf3+0x262>
    63f8:	04000693          	li	a3,64
    63fc:	40668333          	sub	t1,a3,t1
    6400:	006898b3          	sll	a7,a7,t1
    6404:	011e6e33          	or	t3,t3,a7
    6408:	01c034b3          	snez	s1,t3
    640c:	8cdd                	or	s1,s1,a5
    640e:	a4d5                	j	66f2 <__adddf3+0x54c>
    6410:	01c8e7b3          	or	a5,a7,t3
    6414:	1a078063          	beqz	a5,65b4 <__adddf3+0x40e>
    6418:	fff30793          	addi	a5,t1,-1
    641c:	48078363          	beqz	a5,68a2 <__adddf3+0x6fc>
    6420:	7ff00693          	li	a3,2047
    6424:	1cd30763          	beq	t1,a3,65f2 <__adddf3+0x44c>
    6428:	833e                	mv	t1,a5
    642a:	b3f5                	j	6216 <__adddf3+0x70>
    642c:	408587b3          	sub	a5,a1,s0
    6430:	28041163          	bnez	s0,66b2 <__adddf3+0x50c>
    6434:	01076533          	or	a0,a4,a6
    6438:	c12d                	beqz	a0,649a <__adddf3+0x2f4>
    643a:	fff78513          	addi	a0,a5,-1 # ff7fffff <_eusrstack+0xdf7f7fff>
    643e:	56050d63          	beqz	a0,69b8 <__adddf3+0x812>
    6442:	7ff00313          	li	t1,2047
    6446:	42678b63          	beq	a5,t1,687c <__adddf3+0x6d6>
    644a:	87aa                	mv	a5,a0
    644c:	03800613          	li	a2,56
    6450:	32f64863          	blt	a2,a5,6780 <__adddf3+0x5da>
    6454:	467d                	li	a2,31
    6456:	52f64d63          	blt	a2,a5,6990 <__adddf3+0x7ea>
    645a:	02000613          	li	a2,32
    645e:	8e1d                	sub	a2,a2,a5
    6460:	00c714b3          	sll	s1,a4,a2
    6464:	00f85533          	srl	a0,a6,a5
    6468:	00c81633          	sll	a2,a6,a2
    646c:	8cc9                	or	s1,s1,a0
    646e:	00c03633          	snez	a2,a2
    6472:	00f757b3          	srl	a5,a4,a5
    6476:	8cd1                	or	s1,s1,a2
    6478:	40f888b3          	sub	a7,a7,a5
    647c:	a631                	j	6788 <__adddf3+0x5e2>
    647e:	01c8e7b3          	or	a5,a7,t3
    6482:	12078963          	beqz	a5,65b4 <__adddf3+0x40e>
    6486:	fff30793          	addi	a5,t1,-1
    648a:	36078a63          	beqz	a5,67fe <__adddf3+0x658>
    648e:	7ff00693          	li	a3,2047
    6492:	4cd30e63          	beq	t1,a3,696e <__adddf3+0x7c8>
    6496:	833e                	mv	t1,a5
    6498:	b789                	j	63da <__adddf3+0x234>
    649a:	7ff00713          	li	a4,2047
    649e:	62e78b63          	beq	a5,a4,6ad4 <__adddf3+0x92e>
    64a2:	8746                	mv	a4,a7
    64a4:	84f2                	mv	s1,t3
    64a6:	843e                	mv	s0,a5
    64a8:	8936                	mv	s2,a3
    64aa:	00e4e7b3          	or	a5,s1,a4
    64ae:	e00405e3          	beqz	s0,62b8 <__adddf3+0x112>
    64b2:	0074f793          	andi	a5,s1,7
    64b6:	4601                	li	a2,0
    64b8:	e2079fe3          	bnez	a5,62f6 <__adddf3+0x150>
    64bc:	008007b7          	lui	a5,0x800
    64c0:	8ff9                	and	a5,a5,a4
    64c2:	4301                	li	t1,0
    64c4:	bd81                	j	6314 <__adddf3+0x16e>
    64c6:	478d                	li	a5,3
    64c8:	0af98063          	beq	s3,a5,6568 <__adddf3+0x3c2>
    64cc:	4315                	li	t1,5
    64ce:	10098b63          	beqz	s3,65e4 <__adddf3+0x43e>
    64d2:	478d                	li	a5,3
    64d4:	10f98663          	beq	s3,a5,65e0 <__adddf3+0x43a>
    64d8:	4789                	li	a5,2
    64da:	34f98d63          	beq	s3,a5,6834 <__adddf3+0x68e>
    64de:	00536313          	ori	t1,t1,5
    64e2:	200007b7          	lui	a5,0x20000
    64e6:	587d                	li	a6,-1
    64e8:	17fd                	addi	a5,a5,-1
    64ea:	7fe00413          	li	s0,2046
    64ee:	b5f1                	j	63ba <__adddf3+0x214>
    64f0:	16031863          	bnez	t1,6660 <__adddf3+0x4ba>
    64f4:	00140693          	addi	a3,s0,1
    64f8:	7fe6f793          	andi	a5,a3,2046
    64fc:	40079763          	bnez	a5,690a <__adddf3+0x764>
    6500:	010766b3          	or	a3,a4,a6
    6504:	32041d63          	bnez	s0,683e <__adddf3+0x698>
    6508:	01c8e7b3          	or	a5,a7,t3
    650c:	4a068f63          	beqz	a3,69ca <__adddf3+0x824>
    6510:	36078463          	beqz	a5,6878 <__adddf3+0x6d2>
    6514:	01c804b3          	add	s1,a6,t3
    6518:	011707b3          	add	a5,a4,a7
    651c:	0104b833          	sltu	a6,s1,a6
    6520:	01078733          	add	a4,a5,a6
    6524:	00871793          	slli	a5,a4,0x8
    6528:	d807d6e3          	bgez	a5,62b4 <__adddf3+0x10e>
    652c:	ff8007b7          	lui	a5,0xff800
    6530:	17fd                	addi	a5,a5,-1
    6532:	8f7d                	and	a4,a4,a5
    6534:	4405                	li	s0,1
    6536:	0074f793          	andi	a5,s1,7
    653a:	bfb5                	j	64b6 <__adddf3+0x310>
    653c:	00f4f793          	andi	a5,s1,15
    6540:	4691                	li	a3,4
    6542:	dcd783e3          	beq	a5,a3,6308 <__adddf3+0x162>
    6546:	00448793          	addi	a5,s1,4
    654a:	0097b4b3          	sltu	s1,a5,s1
    654e:	9726                	add	a4,a4,s1
    6550:	84be                	mv	s1,a5
    6552:	bb5d                	j	6308 <__adddf3+0x162>
    6554:	4305                	li	t1,1
    6556:	da0909e3          	beqz	s2,6308 <__adddf3+0x162>
    655a:	00848793          	addi	a5,s1,8
    655e:	0097b4b3          	sltu	s1,a5,s1
    6562:	9726                	add	a4,a4,s1
    6564:	84be                	mv	s1,a5
    6566:	b34d                	j	6308 <__adddf3+0x162>
    6568:	577d                	li	a4,-1
    656a:	54fd                	li	s1,-1
    656c:	7fe00413          	li	s0,2046
    6570:	4601                	li	a2,0
    6572:	4315                	li	t1,5
    6574:	fe0903e3          	beqz	s2,655a <__adddf3+0x3b4>
    6578:	bb41                	j	6308 <__adddf3+0x162>
    657a:	8526                	mv	a0,s1
    657c:	43c020ef          	jal	ra,89b8 <__clzsi2>
    6580:	ff850793          	addi	a5,a0,-8
    6584:	477d                	li	a4,31
    6586:	0561                	addi	a0,a0,24
    6588:	00f497b3          	sll	a5,s1,a5
    658c:	cea753e3          	bge	a4,a0,6272 <__adddf3+0xcc>
    6590:	ce855de3          	bge	a0,s0,628a <__adddf3+0xe4>
    6594:	ff800737          	lui	a4,0xff800
    6598:	177d                	addi	a4,a4,-1
    659a:	8f7d                	and	a4,a4,a5
    659c:	84d2                	mv	s1,s4
    659e:	8c09                	sub	s0,s0,a0
    65a0:	00e4e7b3          	or	a5,s1,a4
    65a4:	d0040ae3          	beqz	s0,62b8 <__adddf3+0x112>
    65a8:	b729                	j	64b2 <__adddf3+0x30c>
    65aa:	01c8e8b3          	or	a7,a7,t3
    65ae:	011034b3          	snez	s1,a7
    65b2:	b961                	j	624a <__adddf3+0xa4>
    65b4:	7ff00793          	li	a5,2047
    65b8:	30f30363          	beq	t1,a5,68be <__adddf3+0x718>
    65bc:	008007b7          	lui	a5,0x800
    65c0:	841a                	mv	s0,t1
    65c2:	8ff9                	and	a5,a5,a4
    65c4:	84c2                	mv	s1,a6
    65c6:	4301                	li	t1,0
    65c8:	b3b1                	j	6314 <__adddf3+0x16e>
    65ca:	46858863          	beq	a1,s0,6a3a <__adddf3+0x894>
    65ce:	46079f63          	bnez	a5,6a4c <__adddf3+0x8a6>
    65d2:	4501                	li	a0,0
    65d4:	7ff805b7          	lui	a1,0x7ff80
    65d8:	4341                	li	t1,16
    65da:	00132073          	csrs	fflags,t1
    65de:	bb9d                	j	6354 <__adddf3+0x1ae>
    65e0:	ee091fe3          	bnez	s2,64de <__adddf3+0x338>
    65e4:	00536313          	ori	t1,t1,5
    65e8:	7ff00413          	li	s0,2047
    65ec:	4781                	li	a5,0
    65ee:	4801                	li	a6,0
    65f0:	b3b1                	j	633c <__adddf3+0x196>
    65f2:	01076833          	or	a6,a4,a6
    65f6:	02080c63          	beqz	a6,662e <__adddf3+0x488>
    65fa:	00400337          	lui	t1,0x400
    65fe:	050e                	slli	a0,a0,0x3
    6600:	00677333          	and	t1,a4,t1
    6604:	01d71813          	slli	a6,a4,0x1d
    6608:	810d                	srli	a0,a0,0x3
    660a:	00133313          	seqz	t1,t1
    660e:	00a86833          	or	a6,a6,a0
    6612:	00375793          	srli	a5,a4,0x3
    6616:	0312                	slli	t1,t1,0x4
    6618:	0107e7b3          	or	a5,a5,a6
    661c:	d7f1                	beqz	a5,65e8 <__adddf3+0x442>
    661e:	4901                	li	s2,0
    6620:	7ff00413          	li	s0,2047
    6624:	000807b7          	lui	a5,0x80
    6628:	4801                	li	a6,0
    662a:	bb09                	j	633c <__adddf3+0x196>
    662c:	8936                	mv	s2,a3
    662e:	4301                	li	t1,0
    6630:	bf65                	j	65e8 <__adddf3+0x442>
    6632:	41c804b3          	sub	s1,a6,t3
    6636:	009837b3          	sltu	a5,a6,s1
    663a:	41170a33          	sub	s4,a4,a7
    663e:	40fa0a33          	sub	s4,s4,a5
    6642:	008a1793          	slli	a5,s4,0x8
    6646:	2e07c563          	bltz	a5,6930 <__adddf3+0x78a>
    664a:	0144e7b3          	or	a5,s1,s4
    664e:	c0079ce3          	bnez	a5,6266 <__adddf3+0xc0>
    6652:	ffe98913          	addi	s2,s3,-2
    6656:	00193913          	seqz	s2,s2
    665a:	4801                	li	a6,0
    665c:	4401                	li	s0,0
    665e:	bbb1                	j	63ba <__adddf3+0x214>
    6660:	408587b3          	sub	a5,a1,s0
    6664:	12040b63          	beqz	s0,679a <__adddf3+0x5f4>
    6668:	00800537          	lui	a0,0x800
    666c:	7ff00693          	li	a3,2047
    6670:	8f49                	or	a4,a4,a0
    6672:	34d58f63          	beq	a1,a3,69d0 <__adddf3+0x82a>
    6676:	03800693          	li	a3,56
    667a:	30f6c663          	blt	a3,a5,6986 <__adddf3+0x7e0>
    667e:	46fd                	li	a3,31
    6680:	40f6cf63          	blt	a3,a5,6a9e <__adddf3+0x8f8>
    6684:	02000693          	li	a3,32
    6688:	8e9d                	sub	a3,a3,a5
    668a:	00d714b3          	sll	s1,a4,a3
    668e:	00f85633          	srl	a2,a6,a5
    6692:	00d816b3          	sll	a3,a6,a3
    6696:	8cd1                	or	s1,s1,a2
    6698:	00d036b3          	snez	a3,a3
    669c:	00f757b3          	srl	a5,a4,a5
    66a0:	8cd5                	or	s1,s1,a3
    66a2:	98be                	add	a7,a7,a5
    66a4:	94f2                	add	s1,s1,t3
    66a6:	01c4b7b3          	sltu	a5,s1,t3
    66aa:	01178733          	add	a4,a5,a7
    66ae:	842e                	mv	s0,a1
    66b0:	a0a9                	j	66fa <__adddf3+0x554>
    66b2:	00800337          	lui	t1,0x800
    66b6:	7ff00513          	li	a0,2047
    66ba:	00676733          	or	a4,a4,t1
    66be:	d8a597e3          	bne	a1,a0,644c <__adddf3+0x2a6>
    66c2:	01c8e7b3          	or	a5,a7,t3
    66c6:	d3bd                	beqz	a5,662c <__adddf3+0x486>
    66c8:	00361813          	slli	a6,a2,0x3
    66cc:	01d89793          	slli	a5,a7,0x1d
    66d0:	00385813          	srli	a6,a6,0x3
    66d4:	00989713          	slli	a4,a7,0x9
    66d8:	00f86833          	or	a6,a6,a5
    66dc:	8936                	mv	s2,a3
    66de:	0038d793          	srli	a5,a7,0x3
    66e2:	1a074e63          	bltz	a4,689e <__adddf3+0x6f8>
    66e6:	4341                	li	t1,16
    66e8:	bf05                	j	6618 <__adddf3+0x472>
    66ea:	01c8e8b3          	or	a7,a7,t3
    66ee:	011034b3          	snez	s1,a7
    66f2:	94c2                	add	s1,s1,a6
    66f4:	0104b833          	sltu	a6,s1,a6
    66f8:	9742                	add	a4,a4,a6
    66fa:	00871793          	slli	a5,a4,0x8
    66fe:	da07d6e3          	bgez	a5,64aa <__adddf3+0x304>
    6702:	0405                	addi	s0,s0,1
    6704:	7ff00793          	li	a5,2047
    6708:	0af40763          	beq	s0,a5,67b6 <__adddf3+0x610>
    670c:	ff8007b7          	lui	a5,0xff800
    6710:	17fd                	addi	a5,a5,-1
    6712:	8ff9                	and	a5,a5,a4
    6714:	0014d713          	srli	a4,s1,0x1
    6718:	8885                	andi	s1,s1,1
    671a:	8cd9                	or	s1,s1,a4
    671c:	01f79813          	slli	a6,a5,0x1f
    6720:	009864b3          	or	s1,a6,s1
    6724:	0017d713          	srli	a4,a5,0x1
    6728:	0074f793          	andi	a5,s1,7
    672c:	b369                	j	64b6 <__adddf3+0x310>
    672e:	1505                	addi	a0,a0,-31
    6730:	02000693          	li	a3,32
    6734:	00a7d533          	srl	a0,a5,a0
    6738:	00d70a63          	beq	a4,a3,674c <__adddf3+0x5a6>
    673c:	04000693          	li	a3,64
    6740:	40e68733          	sub	a4,a3,a4
    6744:	00e797b3          	sll	a5,a5,a4
    6748:	00fa6a33          	or	s4,s4,a5
    674c:	014037b3          	snez	a5,s4
    6750:	8fc9                	or	a5,a5,a0
    6752:	84be                	mv	s1,a5
    6754:	4701                	li	a4,0
    6756:	b68d                	j	62b8 <__adddf3+0x112>
    6758:	fe030493          	addi	s1,t1,-32 # 7fffe0 <_data_lma+0x7f6c64>
    675c:	02000693          	li	a3,32
    6760:	0098d7b3          	srl	a5,a7,s1
    6764:	00d30a63          	beq	t1,a3,6778 <__adddf3+0x5d2>
    6768:	04000693          	li	a3,64
    676c:	40668333          	sub	t1,a3,t1
    6770:	006898b3          	sll	a7,a7,t1
    6774:	011e6e33          	or	t3,t3,a7
    6778:	01c034b3          	snez	s1,t3
    677c:	8cdd                	or	s1,s1,a5
    677e:	b4f1                	j	624a <__adddf3+0xa4>
    6780:	010764b3          	or	s1,a4,a6
    6784:	009034b3          	snez	s1,s1
    6788:	409e04b3          	sub	s1,t3,s1
    678c:	009e37b3          	sltu	a5,t3,s1
    6790:	40f88733          	sub	a4,a7,a5
    6794:	842e                	mv	s0,a1
    6796:	8936                	mv	s2,a3
    6798:	bc7d                	j	6256 <__adddf3+0xb0>
    679a:	010766b3          	or	a3,a4,a6
    679e:	24068d63          	beqz	a3,69f8 <__adddf3+0x852>
    67a2:	fff78693          	addi	a3,a5,-1 # ff7fffff <_eusrstack+0xdf7f7fff>
    67a6:	32068063          	beqz	a3,6ac6 <__adddf3+0x920>
    67aa:	7ff00513          	li	a0,2047
    67ae:	22a78163          	beq	a5,a0,69d0 <__adddf3+0x82a>
    67b2:	87b6                	mv	a5,a3
    67b4:	b5c9                	j	6676 <__adddf3+0x4d0>
    67b6:	1a098a63          	beqz	s3,696a <__adddf3+0x7c4>
    67ba:	478d                	li	a5,3
    67bc:	38f98c63          	beq	s3,a5,6b54 <__adddf3+0x9ae>
    67c0:	4789                	li	a5,2
    67c2:	38f98063          	beq	s3,a5,6b42 <__adddf3+0x99c>
    67c6:	d00990e3          	bnez	s3,64c6 <__adddf3+0x320>
    67ca:	4601                	li	a2,0
    67cc:	54fd                	li	s1,-1
    67ce:	4315                	li	t1,5
    67d0:	7fe00413          	li	s0,2046
    67d4:	577d                	li	a4,-1
    67d6:	bb85                	j	6546 <__adddf3+0x3a0>
    67d8:	02000793          	li	a5,32
    67dc:	406787b3          	sub	a5,a5,t1
    67e0:	00f894b3          	sll	s1,a7,a5
    67e4:	006e56b3          	srl	a3,t3,t1
    67e8:	00fe17b3          	sll	a5,t3,a5
    67ec:	8cd5                	or	s1,s1,a3
    67ee:	00f03e33          	snez	t3,a5
    67f2:	0068d8b3          	srl	a7,a7,t1
    67f6:	01c4e4b3          	or	s1,s1,t3
    67fa:	9746                	add	a4,a4,a7
    67fc:	bddd                	j	66f2 <__adddf3+0x54c>
    67fe:	01c804b3          	add	s1,a6,t3
    6802:	011707b3          	add	a5,a4,a7
    6806:	0104b833          	sltu	a6,s1,a6
    680a:	01078733          	add	a4,a5,a6
    680e:	00871793          	slli	a5,a4,0x8
    6812:	4405                	li	s0,1
    6814:	c807dfe3          	bgez	a5,64b2 <__adddf3+0x30c>
    6818:	ff8007b7          	lui	a5,0xff800
    681c:	17fd                	addi	a5,a5,-1
    681e:	8ff9                	and	a5,a5,a4
    6820:	01f79713          	slli	a4,a5,0x1f
    6824:	8085                	srli	s1,s1,0x1
    6826:	8cd9                	or	s1,s1,a4
    6828:	4409                	li	s0,2
    682a:	0017d713          	srli	a4,a5,0x1
    682e:	0074f793          	andi	a5,s1,7
    6832:	b151                	j	64b6 <__adddf3+0x310>
    6834:	00536313          	ori	t1,t1,5
    6838:	ca0905e3          	beqz	s2,64e2 <__adddf3+0x33c>
    683c:	b375                	j	65e8 <__adddf3+0x442>
    683e:	7ff00793          	li	a5,2047
    6842:	2cf40263          	beq	s0,a5,6b06 <__adddf3+0x960>
    6846:	2ef58463          	beq	a1,a5,6b2e <__adddf3+0x988>
    684a:	22068563          	beqz	a3,6a74 <__adddf3+0x8ce>
    684e:	01c8e8b3          	or	a7,a7,t3
    6852:	dc0896e3          	bnez	a7,661e <__adddf3+0x478>
    6856:	00351813          	slli	a6,a0,0x3
    685a:	01d71793          	slli	a5,a4,0x1d
    685e:	00385813          	srli	a6,a6,0x3
    6862:	00f86833          	or	a6,a6,a5
    6866:	00375793          	srli	a5,a4,0x3
    686a:	b37d                	j	6618 <__adddf3+0x472>
    686c:	de0783e3          	beqz	a5,6652 <__adddf3+0x4ac>
    6870:	4781                	li	a5,0
    6872:	8746                	mv	a4,a7
    6874:	8872                	mv	a6,t3
    6876:	8936                	mv	s2,a3
    6878:	84c2                	mv	s1,a6
    687a:	b491                	j	62be <__adddf3+0x118>
    687c:	01c8e7b3          	or	a5,a7,t3
    6880:	da0786e3          	beqz	a5,662c <__adddf3+0x486>
    6884:	060e                	slli	a2,a2,0x3
    6886:	01d89813          	slli	a6,a7,0x1d
    688a:	820d                	srli	a2,a2,0x3
    688c:	00989713          	slli	a4,a7,0x9
    6890:	00c86833          	or	a6,a6,a2
    6894:	0038d793          	srli	a5,a7,0x3
    6898:	8936                	mv	s2,a3
    689a:	e40756e3          	bgez	a4,66e6 <__adddf3+0x540>
    689e:	4301                	li	t1,0
    68a0:	bba5                	j	6618 <__adddf3+0x472>
    68a2:	41c804b3          	sub	s1,a6,t3
    68a6:	411707b3          	sub	a5,a4,a7
    68aa:	00983833          	sltu	a6,a6,s1
    68ae:	41078733          	sub	a4,a5,a6
    68b2:	00871793          	slli	a5,a4,0x8
    68b6:	4405                	li	s0,1
    68b8:	9a07c3e3          	bltz	a5,625e <__adddf3+0xb8>
    68bc:	bedd                	j	64b2 <__adddf3+0x30c>
    68be:	010767b3          	or	a5,a4,a6
    68c2:	ebd5                	bnez	a5,6976 <__adddf3+0x7d0>
    68c4:	4701                	li	a4,0
    68c6:	4801                	li	a6,0
    68c8:	4301                	li	t1,0
    68ca:	01d71793          	slli	a5,a4,0x1d
    68ce:	00385813          	srli	a6,a6,0x3
    68d2:	00f86833          	or	a6,a6,a5
    68d6:	00375793          	srli	a5,a4,0x3
    68da:	bb3d                	j	6618 <__adddf3+0x472>
    68dc:	4305                	li	t1,1
    68de:	a00904e3          	beqz	s2,62e6 <__adddf3+0x140>
    68e2:	ff85b613          	sltiu	a2,a1,-8
    68e6:	00164613          	xori	a2,a2,1
    68ea:	96b2                	add	a3,a3,a2
    68ec:	baed                	j	62e6 <__adddf3+0x140>
    68ee:	00f5f613          	andi	a2,a1,15
    68f2:	4511                	li	a0,4
    68f4:	9ea609e3          	beq	a2,a0,62e6 <__adddf3+0x140>
    68f8:	ffc5b593          	sltiu	a1,a1,-4
    68fc:	0015c593          	xori	a1,a1,1
    6900:	96ae                	add	a3,a3,a1
    6902:	b2d5                	j	62e6 <__adddf3+0x140>
    6904:	9e0911e3          	bnez	s2,62e6 <__adddf3+0x140>
    6908:	bfe9                	j	68e2 <__adddf3+0x73c>
    690a:	7ff00793          	li	a5,2047
    690e:	0ef68d63          	beq	a3,a5,6a08 <__adddf3+0x862>
    6912:	01c807b3          	add	a5,a6,t3
    6916:	0107b833          	sltu	a6,a5,a6
    691a:	9746                	add	a4,a4,a7
    691c:	9742                	add	a4,a4,a6
    691e:	01f71493          	slli	s1,a4,0x1f
    6922:	8385                	srli	a5,a5,0x1
    6924:	8cdd                	or	s1,s1,a5
    6926:	8305                	srli	a4,a4,0x1
    6928:	0074f793          	andi	a5,s1,7
    692c:	8436                	mv	s0,a3
    692e:	b661                	j	64b6 <__adddf3+0x310>
    6930:	410e04b3          	sub	s1,t3,a6
    6934:	40e888b3          	sub	a7,a7,a4
    6938:	009e37b3          	sltu	a5,t3,s1
    693c:	40f88a33          	sub	s4,a7,a5
    6940:	8936                	mv	s2,a3
    6942:	b215                	j	6266 <__adddf3+0xc0>
    6944:	7ff00813          	li	a6,2047
    6948:	0d040e63          	beq	s0,a6,6a24 <__adddf3+0x87e>
    694c:	0f058763          	beq	a1,a6,6a3a <__adddf3+0x894>
    6950:	c60e8fe3          	beqz	t4,65ce <__adddf3+0x428>
    6954:	cc0795e3          	bnez	a5,661e <__adddf3+0x478>
    6958:	050e                	slli	a0,a0,0x3
    695a:	01d71813          	slli	a6,a4,0x1d
    695e:	810d                	srli	a0,a0,0x3
    6960:	00a86833          	or	a6,a6,a0
    6964:	00375793          	srli	a5,a4,0x3
    6968:	b945                	j	6618 <__adddf3+0x472>
    696a:	4315                	li	t1,5
    696c:	b9b5                	j	65e8 <__adddf3+0x442>
    696e:	010767b3          	or	a5,a4,a6
    6972:	ca078ee3          	beqz	a5,662e <__adddf3+0x488>
    6976:	00400337          	lui	t1,0x400
    697a:	00677333          	and	t1,a4,t1
    697e:	00133313          	seqz	t1,t1
    6982:	0312                	slli	t1,t1,0x4
    6984:	b799                	j	68ca <__adddf3+0x724>
    6986:	010764b3          	or	s1,a4,a6
    698a:	009034b3          	snez	s1,s1
    698e:	bb19                	j	66a4 <__adddf3+0x4fe>
    6990:	fe078613          	addi	a2,a5,-32 # ff7fffe0 <_eusrstack+0xdf7f7fe0>
    6994:	02000513          	li	a0,32
    6998:	00c75633          	srl	a2,a4,a2
    699c:	00a78a63          	beq	a5,a0,69b0 <__adddf3+0x80a>
    69a0:	04000513          	li	a0,64
    69a4:	40f507b3          	sub	a5,a0,a5
    69a8:	00f717b3          	sll	a5,a4,a5
    69ac:	00f86833          	or	a6,a6,a5
    69b0:	010034b3          	snez	s1,a6
    69b4:	8cd1                	or	s1,s1,a2
    69b6:	bbc9                	j	6788 <__adddf3+0x5e2>
    69b8:	410e04b3          	sub	s1,t3,a6
    69bc:	40e88733          	sub	a4,a7,a4
    69c0:	009e37b3          	sltu	a5,t3,s1
    69c4:	8f1d                	sub	a4,a4,a5
    69c6:	8936                	mv	s2,a3
    69c8:	b5ed                	j	68b2 <__adddf3+0x70c>
    69ca:	8746                	mv	a4,a7
    69cc:	84f2                	mv	s1,t3
    69ce:	b0ed                	j	62b8 <__adddf3+0x112>
    69d0:	01c8e7b3          	or	a5,a7,t3
    69d4:	c4078de3          	beqz	a5,662e <__adddf3+0x488>
    69d8:	00400337          	lui	t1,0x400
    69dc:	060e                	slli	a2,a2,0x3
    69de:	0068f333          	and	t1,a7,t1
    69e2:	01d89813          	slli	a6,a7,0x1d
    69e6:	820d                	srli	a2,a2,0x3
    69e8:	00133313          	seqz	t1,t1
    69ec:	00c86833          	or	a6,a6,a2
    69f0:	0038d793          	srli	a5,a7,0x3
    69f4:	0312                	slli	t1,t1,0x4
    69f6:	b10d                	j	6618 <__adddf3+0x472>
    69f8:	7ff00713          	li	a4,2047
    69fc:	0ee78963          	beq	a5,a4,6aee <__adddf3+0x948>
    6a00:	8746                	mv	a4,a7
    6a02:	84f2                	mv	s1,t3
    6a04:	843e                	mv	s0,a5
    6a06:	b455                	j	64aa <__adddf3+0x304>
    6a08:	f60981e3          	beqz	s3,696a <__adddf3+0x7c4>
    6a0c:	478d                	li	a5,3
    6a0e:	daf999e3          	bne	s3,a5,67c0 <__adddf3+0x61a>
    6a12:	f4090ce3          	beqz	s2,696a <__adddf3+0x7c4>
    6a16:	4601                	li	a2,0
    6a18:	7fe00413          	li	s0,2046
    6a1c:	4315                	li	t1,5
    6a1e:	577d                	li	a4,-1
    6a20:	54fd                	li	s1,-1
    6a22:	b0dd                	j	6308 <__adddf3+0x162>
    6a24:	ba0e83e3          	beqz	t4,65ca <__adddf3+0x424>
    6a28:	00971413          	slli	s0,a4,0x9
    6a2c:	00044363          	bltz	s0,6a32 <__adddf3+0x88c>
    6a30:	4341                	li	t1,16
    6a32:	7ff00813          	li	a6,2047
    6a36:	f1059fe3          	bne	a1,a6,6954 <__adddf3+0x7ae>
    6a3a:	12078763          	beqz	a5,6b68 <__adddf3+0x9c2>
    6a3e:	00989793          	slli	a5,a7,0x9
    6a42:	0007c363          	bltz	a5,6a48 <__adddf3+0x8a2>
    6a46:	4341                	li	t1,16
    6a48:	bc0e9be3          	bnez	t4,661e <__adddf3+0x478>
    6a4c:	060e                	slli	a2,a2,0x3
    6a4e:	01d89813          	slli	a6,a7,0x1d
    6a52:	820d                	srli	a2,a2,0x3
    6a54:	00c86833          	or	a6,a6,a2
    6a58:	0038d793          	srli	a5,a7,0x3
    6a5c:	8936                	mv	s2,a3
    6a5e:	be6d                	j	6618 <__adddf3+0x472>
    6a60:	00859a63          	bne	a1,s0,6a74 <__adddf3+0x8ce>
    6a64:	01c8e7b3          	or	a5,a7,t3
    6a68:	c791                	beqz	a5,6a74 <__adddf3+0x8ce>
    6a6a:	00989793          	slli	a5,a7,0x9
    6a6e:	0007c363          	bltz	a5,6a74 <__adddf3+0x8ce>
    6a72:	4341                	li	t1,16
    6a74:	00361813          	slli	a6,a2,0x3
    6a78:	01d89793          	slli	a5,a7,0x1d
    6a7c:	00385813          	srli	a6,a6,0x3
    6a80:	00f86833          	or	a6,a6,a5
    6a84:	0038d793          	srli	a5,a7,0x3
    6a88:	be41                	j	6618 <__adddf3+0x472>
    6a8a:	00c5e7b3          	or	a5,a1,a2
    6a8e:	bc0782e3          	beqz	a5,6652 <__adddf3+0x4ac>
    6a92:	882e                	mv	a6,a1
    6a94:	0075f793          	andi	a5,a1,7
    6a98:	8732                	mv	a4,a2
    6a9a:	84c2                	mv	s1,a6
    6a9c:	b00d                	j	62be <__adddf3+0x118>
    6a9e:	fe078693          	addi	a3,a5,-32
    6aa2:	02000613          	li	a2,32
    6aa6:	00d756b3          	srl	a3,a4,a3
    6aaa:	00c78a63          	beq	a5,a2,6abe <__adddf3+0x918>
    6aae:	04000613          	li	a2,64
    6ab2:	40f607b3          	sub	a5,a2,a5
    6ab6:	00f717b3          	sll	a5,a4,a5
    6aba:	00f86833          	or	a6,a6,a5
    6abe:	010034b3          	snez	s1,a6
    6ac2:	8cd5                	or	s1,s1,a3
    6ac4:	b6c5                	j	66a4 <__adddf3+0x4fe>
    6ac6:	01c804b3          	add	s1,a6,t3
    6aca:	9746                	add	a4,a4,a7
    6acc:	01c4b7b3          	sltu	a5,s1,t3
    6ad0:	973e                	add	a4,a4,a5
    6ad2:	bb35                	j	680e <__adddf3+0x668>
    6ad4:	01c8e833          	or	a6,a7,t3
    6ad8:	08080b63          	beqz	a6,6b6e <__adddf3+0x9c8>
    6adc:	00989793          	slli	a5,a7,0x9
    6ae0:	8746                	mv	a4,a7
    6ae2:	8872                	mv	a6,t3
    6ae4:	8936                	mv	s2,a3
    6ae6:	0007ce63          	bltz	a5,6b02 <__adddf3+0x95c>
    6aea:	4341                	li	t1,16
    6aec:	bbf9                	j	68ca <__adddf3+0x724>
    6aee:	01c8e833          	or	a6,a7,t3
    6af2:	08080563          	beqz	a6,6b7c <__adddf3+0x9d6>
    6af6:	00989793          	slli	a5,a7,0x9
    6afa:	8746                	mv	a4,a7
    6afc:	8872                	mv	a6,t3
    6afe:	fe07d6e3          	bgez	a5,6aea <__adddf3+0x944>
    6b02:	4301                	li	t1,0
    6b04:	b3d9                	j	68ca <__adddf3+0x724>
    6b06:	dea9                	beqz	a3,6a60 <__adddf3+0x8ba>
    6b08:	00971793          	slli	a5,a4,0x9
    6b0c:	0007c363          	bltz	a5,6b12 <__adddf3+0x96c>
    6b10:	4341                	li	t1,16
    6b12:	7ff00793          	li	a5,2047
    6b16:	d2f59ce3          	bne	a1,a5,684e <__adddf3+0x6a8>
    6b1a:	01c8e7b3          	or	a5,a7,t3
    6b1e:	d2078ce3          	beqz	a5,6856 <__adddf3+0x6b0>
    6b22:	00989793          	slli	a5,a7,0x9
    6b26:	0007dc63          	bgez	a5,6b3e <__adddf3+0x998>
    6b2a:	d6a9                	beqz	a3,6a74 <__adddf3+0x8ce>
    6b2c:	bccd                	j	661e <__adddf3+0x478>
    6b2e:	01c8e7b3          	or	a5,a7,t3
    6b32:	c3b1                	beqz	a5,6b76 <__adddf3+0x9d0>
    6b34:	00989793          	slli	a5,a7,0x9
    6b38:	fe07c9e3          	bltz	a5,6b2a <__adddf3+0x984>
    6b3c:	da9d                	beqz	a3,6a72 <__adddf3+0x8cc>
    6b3e:	4341                	li	t1,16
    6b40:	bcf9                	j	661e <__adddf3+0x478>
    6b42:	e20914e3          	bnez	s2,696a <__adddf3+0x7c4>
    6b46:	7fe00413          	li	s0,2046
    6b4a:	577d                	li	a4,-1
    6b4c:	54fd                	li	s1,-1
    6b4e:	4315                	li	t1,5
    6b50:	fc8ff06f          	j	6318 <__adddf3+0x172>
    6b54:	e0090be3          	beqz	s2,696a <__adddf3+0x7c4>
    6b58:	7fe00413          	li	s0,2046
    6b5c:	4601                	li	a2,0
    6b5e:	4315                	li	t1,5
    6b60:	577d                	li	a4,-1
    6b62:	54fd                	li	s1,-1
    6b64:	fa4ff06f          	j	6308 <__adddf3+0x162>
    6b68:	a60e85e3          	beqz	t4,65d2 <__adddf3+0x42c>
    6b6c:	b3f5                	j	6958 <__adddf3+0x7b2>
    6b6e:	4701                	li	a4,0
    6b70:	8936                	mv	s2,a3
    6b72:	4301                	li	t1,0
    6b74:	bb99                	j	68ca <__adddf3+0x724>
    6b76:	ee068fe3          	beqz	a3,6a74 <__adddf3+0x8ce>
    6b7a:	b9f1                	j	6856 <__adddf3+0x6b0>
    6b7c:	4701                	li	a4,0
    6b7e:	4301                	li	t1,0
    6b80:	b3a9                	j	68ca <__adddf3+0x724>
    6b82:	01d71693          	slli	a3,a4,0x1d
    6b86:	0034d813          	srli	a6,s1,0x3
    6b8a:	7ff00613          	li	a2,2047
    6b8e:	0106e833          	or	a6,a3,a6
    6b92:	00375793          	srli	a5,a4,0x3
    6b96:	a8c401e3          	beq	s0,a2,6618 <__adddf3+0x472>
    6b9a:	b005                	j	63ba <__adddf3+0x214>
    6b9c:	008007b7          	lui	a5,0x800
    6ba0:	8ff9                	and	a5,a5,a4
    6ba2:	4401                	li	s0,0
    6ba4:	f6069863          	bnez	a3,6314 <__adddf3+0x16e>
    6ba8:	f6030663          	beqz	t1,6314 <__adddf3+0x16e>
    6bac:	00236313          	ori	t1,t1,2
    6bb0:	f64ff06f          	j	6314 <__adddf3+0x16e>

00006bb4 <__divdf3>:
    6bb4:	7139                	addi	sp,sp,-64
    6bb6:	da26                	sw	s1,52(sp)
    6bb8:	de06                	sw	ra,60(sp)
    6bba:	dc22                	sw	s0,56(sp)
    6bbc:	d84a                	sw	s2,48(sp)
    6bbe:	d64e                	sw	s3,44(sp)
    6bc0:	d452                	sw	s4,40(sp)
    6bc2:	d256                	sw	s5,36(sp)
    6bc4:	d05a                	sw	s6,32(sp)
    6bc6:	ce5e                	sw	s7,28(sp)
    6bc8:	cc62                	sw	s8,24(sp)
    6bca:	ca66                	sw	s9,20(sp)
    6bcc:	84aa                	mv	s1,a0
    6bce:	00202b73          	frrm	s6
    6bd2:	0145d513          	srli	a0,a1,0x14
    6bd6:	00c59413          	slli	s0,a1,0xc
    6bda:	7ff57513          	andi	a0,a0,2047
    6bde:	8031                	srli	s0,s0,0xc
    6be0:	01f5da13          	srli	s4,a1,0x1f
    6be4:	c979                	beqz	a0,6cba <__divdf3+0x106>
    6be6:	7ff00793          	li	a5,2047
    6bea:	10f50d63          	beq	a0,a5,6d04 <__divdf3+0x150>
    6bee:	01d4db93          	srli	s7,s1,0x1d
    6bf2:	040e                	slli	s0,s0,0x3
    6bf4:	008be433          	or	s0,s7,s0
    6bf8:	00800bb7          	lui	s7,0x800
    6bfc:	00349c13          	slli	s8,s1,0x3
    6c00:	01746bb3          	or	s7,s0,s7
    6c04:	c0150993          	addi	s3,a0,-1023 # 7ffc01 <_data_lma+0x7f6885>
    6c08:	4481                	li	s1,0
    6c0a:	4c81                	li	s9,0
    6c0c:	4901                	li	s2,0
    6c0e:	0146d793          	srli	a5,a3,0x14
    6c12:	00c69413          	slli	s0,a3,0xc
    6c16:	7ff7f793          	andi	a5,a5,2047
    6c1a:	85b2                	mv	a1,a2
    6c1c:	8031                	srli	s0,s0,0xc
    6c1e:	01f6da93          	srli	s5,a3,0x1f
    6c22:	c3a5                	beqz	a5,6c82 <__divdf3+0xce>
    6c24:	7ff00713          	li	a4,2047
    6c28:	04e78063          	beq	a5,a4,6c68 <__divdf3+0xb4>
    6c2c:	00341513          	slli	a0,s0,0x3
    6c30:	01d65413          	srli	s0,a2,0x1d
    6c34:	8c49                	or	s0,s0,a0
    6c36:	c0178793          	addi	a5,a5,-1023 # 7ffc01 <_data_lma+0x7f6885>
    6c3a:	00800537          	lui	a0,0x800
    6c3e:	00361593          	slli	a1,a2,0x3
    6c42:	8c49                	or	s0,s0,a0
    6c44:	40f989b3          	sub	s3,s3,a5
    6c48:	4601                	li	a2,0
    6c4a:	015a46b3          	xor	a3,s4,s5
    6c4e:	47bd                	li	a5,15
    6c50:	8836                	mv	a6,a3
    6c52:	1c97e663          	bltu	a5,s1,6e1e <__divdf3+0x26a>
    6c56:	00002717          	auipc	a4,0x2
    6c5a:	5a270713          	addi	a4,a4,1442 # 91f8 <init_jk+0x34>
    6c5e:	048a                	slli	s1,s1,0x2
    6c60:	94ba                	add	s1,s1,a4
    6c62:	409c                	lw	a5,0(s1)
    6c64:	97ba                	add	a5,a5,a4
    6c66:	8782                	jr	a5
    6c68:	8e41                	or	a2,a2,s0
    6c6a:	80198993          	addi	s3,s3,-2047
    6c6e:	ce79                	beqz	a2,6d4c <__divdf3+0x198>
    6c70:	00c41793          	slli	a5,s0,0xc
    6c74:	0034e493          	ori	s1,s1,3
    6c78:	460d                	li	a2,3
    6c7a:	fc07c8e3          	bltz	a5,6c4a <__divdf3+0x96>
    6c7e:	4941                	li	s2,16
    6c80:	b7e9                	j	6c4a <__divdf3+0x96>
    6c82:	00c467b3          	or	a5,s0,a2
    6c86:	cfcd                	beqz	a5,6d40 <__divdf3+0x18c>
    6c88:	36040363          	beqz	s0,6fee <__divdf3+0x43a>
    6c8c:	8522                	mv	a0,s0
    6c8e:	c432                	sw	a2,8(sp)
    6c90:	529010ef          	jal	ra,89b8 <__clzsi2>
    6c94:	4622                	lw	a2,8(sp)
    6c96:	ff550713          	addi	a4,a0,-11 # 7ffff5 <_data_lma+0x7f6c79>
    6c9a:	47f5                	li	a5,29
    6c9c:	ff850593          	addi	a1,a0,-8
    6ca0:	8f99                	sub	a5,a5,a4
    6ca2:	00b41433          	sll	s0,s0,a1
    6ca6:	00f657b3          	srl	a5,a2,a5
    6caa:	8c5d                	or	s0,s0,a5
    6cac:	00b615b3          	sll	a1,a2,a1
    6cb0:	954e                	add	a0,a0,s3
    6cb2:	3f350993          	addi	s3,a0,1011
    6cb6:	4601                	li	a2,0
    6cb8:	bf49                	j	6c4a <__divdf3+0x96>
    6cba:	00946bb3          	or	s7,s0,s1
    6cbe:	060b8b63          	beqz	s7,6d34 <__divdf3+0x180>
    6cc2:	c636                	sw	a3,12(sp)
    6cc4:	c432                	sw	a2,8(sp)
    6cc6:	30040263          	beqz	s0,6fca <__divdf3+0x416>
    6cca:	8522                	mv	a0,s0
    6ccc:	4ed010ef          	jal	ra,89b8 <__clzsi2>
    6cd0:	4622                	lw	a2,8(sp)
    6cd2:	46b2                	lw	a3,12(sp)
    6cd4:	89aa                	mv	s3,a0
    6cd6:	ff550713          	addi	a4,a0,-11
    6cda:	4bf5                	li	s7,29
    6cdc:	ff898c13          	addi	s8,s3,-8
    6ce0:	40eb8bb3          	sub	s7,s7,a4
    6ce4:	01841433          	sll	s0,s0,s8
    6ce8:	0174dbb3          	srl	s7,s1,s7
    6cec:	008bebb3          	or	s7,s7,s0
    6cf0:	01849c33          	sll	s8,s1,s8
    6cf4:	c0d00513          	li	a0,-1011
    6cf8:	413509b3          	sub	s3,a0,s3
    6cfc:	4481                	li	s1,0
    6cfe:	4c81                	li	s9,0
    6d00:	4901                	li	s2,0
    6d02:	b731                	j	6c0e <__divdf3+0x5a>
    6d04:	00946bb3          	or	s7,s0,s1
    6d08:	000b8f63          	beqz	s7,6d26 <__divdf3+0x172>
    6d0c:	00c41793          	slli	a5,s0,0xc
    6d10:	8c26                	mv	s8,s1
    6d12:	8ba2                	mv	s7,s0
    6d14:	44b1                	li	s1,12
    6d16:	7ff00993          	li	s3,2047
    6d1a:	4c8d                	li	s9,3
    6d1c:	4941                	li	s2,16
    6d1e:	ee07d8e3          	bgez	a5,6c0e <__divdf3+0x5a>
    6d22:	4901                	li	s2,0
    6d24:	b5ed                	j	6c0e <__divdf3+0x5a>
    6d26:	44a1                	li	s1,8
    6d28:	4c01                	li	s8,0
    6d2a:	7ff00993          	li	s3,2047
    6d2e:	4c89                	li	s9,2
    6d30:	4901                	li	s2,0
    6d32:	bdf1                	j	6c0e <__divdf3+0x5a>
    6d34:	4491                	li	s1,4
    6d36:	4c01                	li	s8,0
    6d38:	4981                	li	s3,0
    6d3a:	4c85                	li	s9,1
    6d3c:	4901                	li	s2,0
    6d3e:	bdc1                	j	6c0e <__divdf3+0x5a>
    6d40:	0014e493          	ori	s1,s1,1
    6d44:	4401                	li	s0,0
    6d46:	4581                	li	a1,0
    6d48:	4605                	li	a2,1
    6d4a:	b701                	j	6c4a <__divdf3+0x96>
    6d4c:	0024e493          	ori	s1,s1,2
    6d50:	4401                	li	s0,0
    6d52:	4581                	li	a1,0
    6d54:	4609                	li	a2,2
    6d56:	bdd5                	j	6c4a <__divdf3+0x96>
    6d58:	4681                	li	a3,0
    6d5a:	7ff00713          	li	a4,2047
    6d5e:	000807b7          	lui	a5,0x80
    6d62:	4401                	li	s0,0
    6d64:	07b2                	slli	a5,a5,0xc
    6d66:	0752                	slli	a4,a4,0x14
    6d68:	83b1                	srli	a5,a5,0xc
    6d6a:	06fe                	slli	a3,a3,0x1f
    6d6c:	8fd9                	or	a5,a5,a4
    6d6e:	8fd5                	or	a5,a5,a3
    6d70:	8522                	mv	a0,s0
    6d72:	85be                	mv	a1,a5
    6d74:	0a091263          	bnez	s2,6e18 <__divdf3+0x264>
    6d78:	50f2                	lw	ra,60(sp)
    6d7a:	5462                	lw	s0,56(sp)
    6d7c:	54d2                	lw	s1,52(sp)
    6d7e:	5942                	lw	s2,48(sp)
    6d80:	59b2                	lw	s3,44(sp)
    6d82:	5a22                	lw	s4,40(sp)
    6d84:	5a92                	lw	s5,36(sp)
    6d86:	5b02                	lw	s6,32(sp)
    6d88:	4bf2                	lw	s7,28(sp)
    6d8a:	4c62                	lw	s8,24(sp)
    6d8c:	4cd2                	lw	s9,20(sp)
    6d8e:	6121                	addi	sp,sp,64
    6d90:	8082                	ret
    6d92:	4701                	li	a4,0
    6d94:	4781                	li	a5,0
    6d96:	4401                	li	s0,0
    6d98:	b7f1                	j	6d64 <__divdf3+0x1b0>
    6d9a:	8852                	mv	a6,s4
    6d9c:	845e                	mv	s0,s7
    6d9e:	85e2                	mv	a1,s8
    6da0:	8666                	mv	a2,s9
    6da2:	4789                	li	a5,2
    6da4:	52f60163          	beq	a2,a5,72c6 <__divdf3+0x712>
    6da8:	478d                	li	a5,3
    6daa:	faf607e3          	beq	a2,a5,6d58 <__divdf3+0x1a4>
    6dae:	4785                	li	a5,1
    6db0:	4cf60063          	beq	a2,a5,7270 <__divdf3+0x6bc>
    6db4:	3ff98613          	addi	a2,s3,1023
    6db8:	28c05a63          	blez	a2,704c <__divdf3+0x498>
    6dbc:	0075f793          	andi	a5,a1,7
    6dc0:	42079463          	bnez	a5,71e8 <__divdf3+0x634>
    6dc4:	818d                	srli	a1,a1,0x3
    6dc6:	86c2                	mv	a3,a6
    6dc8:	00741793          	slli	a5,s0,0x7
    6dcc:	0007d863          	bgez	a5,6ddc <__divdf3+0x228>
    6dd0:	ff0007b7          	lui	a5,0xff000
    6dd4:	17fd                	addi	a5,a5,-1
    6dd6:	8c7d                	and	s0,s0,a5
    6dd8:	40098613          	addi	a2,s3,1024
    6ddc:	7fe00793          	li	a5,2046
    6de0:	2ec7cb63          	blt	a5,a2,70d6 <__divdf3+0x522>
    6de4:	01d41713          	slli	a4,s0,0x1d
    6de8:	00941793          	slli	a5,s0,0x9
    6dec:	83b1                	srli	a5,a5,0xc
    6dee:	00b76433          	or	s0,a4,a1
    6df2:	7ff67713          	andi	a4,a2,2047
    6df6:	b7bd                	j	6d64 <__divdf3+0x1b0>
    6df8:	7ff00713          	li	a4,2047
    6dfc:	4781                	li	a5,0
    6dfe:	4401                	li	s0,0
    6e00:	b795                	j	6d64 <__divdf3+0x1b0>
    6e02:	8856                	mv	a6,s5
    6e04:	bf79                	j	6da2 <__divdf3+0x1ee>
    6e06:	00896913          	ori	s2,s2,8
    6e0a:	7ff00793          	li	a5,2047
    6e0e:	06fe                	slli	a3,a3,0x1f
    6e10:	07d2                	slli	a5,a5,0x14
    6e12:	8fd5                	or	a5,a5,a3
    6e14:	4501                	li	a0,0
    6e16:	85be                	mv	a1,a5
    6e18:	00192073          	csrs	fflags,s2
    6e1c:	bfb1                	j	6d78 <__divdf3+0x1c4>
    6e1e:	21746e63          	bltu	s0,s7,703a <__divdf3+0x486>
    6e22:	208b8a63          	beq	s7,s0,7036 <__divdf3+0x482>
    6e26:	87e2                	mv	a5,s8
    6e28:	19fd                	addi	s3,s3,-1
    6e2a:	4c01                	li	s8,0
    6e2c:	0422                	slli	s0,s0,0x8
    6e2e:	0185d893          	srli	a7,a1,0x18
    6e32:	0088e8b3          	or	a7,a7,s0
    6e36:	0108d313          	srli	t1,a7,0x10
    6e3a:	026bd433          	divu	s0,s7,t1
    6e3e:	01089e13          	slli	t3,a7,0x10
    6e42:	010e5e13          	srli	t3,t3,0x10
    6e46:	0107d713          	srli	a4,a5,0x10
    6e4a:	00859e93          	slli	t4,a1,0x8
    6e4e:	026bfbb3          	remu	s7,s7,t1
    6e52:	028e0633          	mul	a2,t3,s0
    6e56:	0bc2                	slli	s7,s7,0x10
    6e58:	01776733          	or	a4,a4,s7
    6e5c:	00c77b63          	bgeu	a4,a2,6e72 <__divdf3+0x2be>
    6e60:	9746                	add	a4,a4,a7
    6e62:	fff40593          	addi	a1,s0,-1
    6e66:	2d176a63          	bltu	a4,a7,713a <__divdf3+0x586>
    6e6a:	2cc77863          	bgeu	a4,a2,713a <__divdf3+0x586>
    6e6e:	1479                	addi	s0,s0,-2
    6e70:	9746                	add	a4,a4,a7
    6e72:	8f11                	sub	a4,a4,a2
    6e74:	02675533          	divu	a0,a4,t1
    6e78:	07c2                	slli	a5,a5,0x10
    6e7a:	83c1                	srli	a5,a5,0x10
    6e7c:	02677733          	remu	a4,a4,t1
    6e80:	02ae02b3          	mul	t0,t3,a0
    6e84:	0742                	slli	a4,a4,0x10
    6e86:	8fd9                	or	a5,a5,a4
    6e88:	0057fb63          	bgeu	a5,t0,6e9e <__divdf3+0x2ea>
    6e8c:	97c6                	add	a5,a5,a7
    6e8e:	fff50713          	addi	a4,a0,-1
    6e92:	2b17e263          	bltu	a5,a7,7136 <__divdf3+0x582>
    6e96:	2a57f063          	bgeu	a5,t0,7136 <__divdf3+0x582>
    6e9a:	1579                	addi	a0,a0,-2
    6e9c:	97c6                	add	a5,a5,a7
    6e9e:	0442                	slli	s0,s0,0x10
    6ea0:	63c1                	lui	t2,0x10
    6ea2:	8c49                	or	s0,s0,a0
    6ea4:	fff38513          	addi	a0,t2,-1 # ffff <_data_lma+0x6c83>
    6ea8:	00a47633          	and	a2,s0,a0
    6eac:	01045593          	srli	a1,s0,0x10
    6eb0:	010edf13          	srli	t5,t4,0x10
    6eb4:	00aef533          	and	a0,t4,a0
    6eb8:	02c50fb3          	mul	t6,a0,a2
    6ebc:	405787b3          	sub	a5,a5,t0
    6ec0:	02cf0633          	mul	a2,t5,a2
    6ec4:	010fd713          	srli	a4,t6,0x10
    6ec8:	02a582b3          	mul	t0,a1,a0
    6ecc:	9616                	add	a2,a2,t0
    6ece:	9732                	add	a4,a4,a2
    6ed0:	03e585b3          	mul	a1,a1,t5
    6ed4:	00577363          	bgeu	a4,t0,6eda <__divdf3+0x326>
    6ed8:	959e                	add	a1,a1,t2
    6eda:	62c1                	lui	t0,0x10
    6edc:	12fd                	addi	t0,t0,-1
    6ede:	01075613          	srli	a2,a4,0x10
    6ee2:	00577733          	and	a4,a4,t0
    6ee6:	0742                	slli	a4,a4,0x10
    6ee8:	005fffb3          	and	t6,t6,t0
    6eec:	962e                	add	a2,a2,a1
    6eee:	977e                	add	a4,a4,t6
    6ef0:	12c7e463          	bltu	a5,a2,7018 <__divdf3+0x464>
    6ef4:	12c78063          	beq	a5,a2,7014 <__divdf3+0x460>
    6ef8:	40ec0733          	sub	a4,s8,a4
    6efc:	8f91                	sub	a5,a5,a2
    6efe:	00ec3c33          	sltu	s8,s8,a4
    6f02:	418787b3          	sub	a5,a5,s8
    6f06:	3ff98613          	addi	a2,s3,1023
    6f0a:	2af88f63          	beq	a7,a5,71c8 <__divdf3+0x614>
    6f0e:	0267d5b3          	divu	a1,a5,t1
    6f12:	01075693          	srli	a3,a4,0x10
    6f16:	0267f7b3          	remu	a5,a5,t1
    6f1a:	02be0fb3          	mul	t6,t3,a1
    6f1e:	07c2                	slli	a5,a5,0x10
    6f20:	8fd5                	or	a5,a5,a3
    6f22:	01f7fb63          	bgeu	a5,t6,6f38 <__divdf3+0x384>
    6f26:	97c6                	add	a5,a5,a7
    6f28:	fff58693          	addi	a3,a1,-1 # 7ff7ffff <_eusrstack+0x5ff77fff>
    6f2c:	2f17e063          	bltu	a5,a7,720c <__divdf3+0x658>
    6f30:	2df7fe63          	bgeu	a5,t6,720c <__divdf3+0x658>
    6f34:	15f9                	addi	a1,a1,-2
    6f36:	97c6                	add	a5,a5,a7
    6f38:	41f787b3          	sub	a5,a5,t6
    6f3c:	0267d6b3          	divu	a3,a5,t1
    6f40:	0742                	slli	a4,a4,0x10
    6f42:	8341                	srli	a4,a4,0x10
    6f44:	0267f7b3          	remu	a5,a5,t1
    6f48:	02de0e33          	mul	t3,t3,a3
    6f4c:	07c2                	slli	a5,a5,0x10
    6f4e:	8fd9                	or	a5,a5,a4
    6f50:	01c7fb63          	bgeu	a5,t3,6f66 <__divdf3+0x3b2>
    6f54:	97c6                	add	a5,a5,a7
    6f56:	fff68713          	addi	a4,a3,-1 # 7fffff <_data_lma+0x7f6c83>
    6f5a:	2b17eb63          	bltu	a5,a7,7210 <__divdf3+0x65c>
    6f5e:	2bc7f963          	bgeu	a5,t3,7210 <__divdf3+0x65c>
    6f62:	16f9                	addi	a3,a3,-2
    6f64:	97c6                	add	a5,a5,a7
    6f66:	05c2                	slli	a1,a1,0x10
    6f68:	8dd5                	or	a1,a1,a3
    6f6a:	01059693          	slli	a3,a1,0x10
    6f6e:	0105df93          	srli	t6,a1,0x10
    6f72:	82c1                	srli	a3,a3,0x10
    6f74:	02a68333          	mul	t1,a3,a0
    6f78:	41c787b3          	sub	a5,a5,t3
    6f7c:	02df06b3          	mul	a3,t5,a3
    6f80:	01035713          	srli	a4,t1,0x10
    6f84:	02af8533          	mul	a0,t6,a0
    6f88:	96aa                	add	a3,a3,a0
    6f8a:	9736                	add	a4,a4,a3
    6f8c:	03ff0f33          	mul	t5,t5,t6
    6f90:	00a77463          	bgeu	a4,a0,6f98 <__divdf3+0x3e4>
    6f94:	66c1                	lui	a3,0x10
    6f96:	9f36                	add	t5,t5,a3
    6f98:	6541                	lui	a0,0x10
    6f9a:	157d                	addi	a0,a0,-1
    6f9c:	01075693          	srli	a3,a4,0x10
    6fa0:	8f69                	and	a4,a4,a0
    6fa2:	0742                	slli	a4,a4,0x10
    6fa4:	00a37333          	and	t1,t1,a0
    6fa8:	9f36                	add	t5,t5,a3
    6faa:	971a                	add	a4,a4,t1
    6fac:	17e7fa63          	bgeu	a5,t5,7120 <__divdf3+0x56c>
    6fb0:	97c6                	add	a5,a5,a7
    6fb2:	fff58693          	addi	a3,a1,-1
    6fb6:	2d17e263          	bltu	a5,a7,727a <__divdf3+0x6c6>
    6fba:	27e7eb63          	bltu	a5,t5,7230 <__divdf3+0x67c>
    6fbe:	35e78a63          	beq	a5,t5,7312 <__divdf3+0x75e>
    6fc2:	85b6                	mv	a1,a3
    6fc4:	0015e593          	ori	a1,a1,1
    6fc8:	bbc5                	j	6db8 <__divdf3+0x204>
    6fca:	8526                	mv	a0,s1
    6fcc:	1ed010ef          	jal	ra,89b8 <__clzsi2>
    6fd0:	01550713          	addi	a4,a0,21 # 10015 <_data_lma+0x6c99>
    6fd4:	45f1                	li	a1,28
    6fd6:	02050993          	addi	s3,a0,32
    6fda:	4622                	lw	a2,8(sp)
    6fdc:	46b2                	lw	a3,12(sp)
    6fde:	cee5dee3          	bge	a1,a4,6cda <__divdf3+0x126>
    6fe2:	ff850413          	addi	s0,a0,-8
    6fe6:	00849bb3          	sll	s7,s1,s0
    6fea:	4c01                	li	s8,0
    6fec:	b321                	j	6cf4 <__divdf3+0x140>
    6fee:	8532                	mv	a0,a2
    6ff0:	c432                	sw	a2,8(sp)
    6ff2:	1c7010ef          	jal	ra,89b8 <__clzsi2>
    6ff6:	01550713          	addi	a4,a0,21
    6ffa:	46f1                	li	a3,28
    6ffc:	87aa                	mv	a5,a0
    6ffe:	4622                	lw	a2,8(sp)
    7000:	02050513          	addi	a0,a0,32
    7004:	c8e6dbe3          	bge	a3,a4,6c9a <__divdf3+0xe6>
    7008:	ff878413          	addi	s0,a5,-8 # fefffff8 <_eusrstack+0xdeff7ff8>
    700c:	4581                	li	a1,0
    700e:	00861433          	sll	s0,a2,s0
    7012:	b979                	j	6cb0 <__divdf3+0xfc>
    7014:	eeec72e3          	bgeu	s8,a4,6ef8 <__divdf3+0x344>
    7018:	9c76                	add	s8,s8,t4
    701a:	01dc35b3          	sltu	a1,s8,t4
    701e:	95c6                	add	a1,a1,a7
    7020:	97ae                	add	a5,a5,a1
    7022:	fff40593          	addi	a1,s0,-1
    7026:	10f8f263          	bgeu	a7,a5,712a <__divdf3+0x576>
    702a:	18c7e863          	bltu	a5,a2,71ba <__divdf3+0x606>
    702e:	18f60463          	beq	a2,a5,71b6 <__divdf3+0x602>
    7032:	842e                	mv	s0,a1
    7034:	b5d1                	j	6ef8 <__divdf3+0x344>
    7036:	debc68e3          	bltu	s8,a1,6e26 <__divdf3+0x272>
    703a:	01fb9713          	slli	a4,s7,0x1f
    703e:	001c5793          	srli	a5,s8,0x1
    7042:	001bdb93          	srli	s7,s7,0x1
    7046:	8fd9                	or	a5,a5,a4
    7048:	0c7e                	slli	s8,s8,0x1f
    704a:	b3cd                	j	6e2c <__divdf3+0x278>
    704c:	86c2                	mv	a3,a6
    704e:	e635                	bnez	a2,70ba <__divdf3+0x506>
    7050:	0075f613          	andi	a2,a1,7
    7054:	88a2                	mv	a7,s0
    7056:	24061263          	bnez	a2,729a <__divdf3+0x6e6>
    705a:	8061                	srli	s0,s0,0x18
    705c:	00144413          	xori	s0,s0,1
    7060:	00147613          	andi	a2,s0,1
    7064:	4785                	li	a5,1
    7066:	41e98513          	addi	a0,s3,1054
    706a:	00a89733          	sll	a4,a7,a0
    706e:	00f5d433          	srl	s0,a1,a5
    7072:	00a595b3          	sll	a1,a1,a0
    7076:	8c59                	or	s0,s0,a4
    7078:	00b035b3          	snez	a1,a1
    707c:	8c4d                	or	s0,s0,a1
    707e:	00747593          	andi	a1,s0,7
    7082:	00f8d733          	srl	a4,a7,a5
    7086:	c999                	beqz	a1,709c <__divdf3+0x4e8>
    7088:	4789                	li	a5,2
    708a:	00196913          	ori	s2,s2,1
    708e:	2efb0663          	beq	s6,a5,737a <__divdf3+0x7c6>
    7092:	478d                	li	a5,3
    7094:	2cfb0863          	beq	s6,a5,7364 <__divdf3+0x7b0>
    7098:	280b0563          	beqz	s6,7322 <__divdf3+0x76e>
    709c:	00871793          	slli	a5,a4,0x8
    70a0:	2207dd63          	bgez	a5,72da <__divdf3+0x726>
    70a4:	00196913          	ori	s2,s2,1
    70a8:	4785                	li	a5,1
    70aa:	d60602e3          	beqz	a2,6e0e <__divdf3+0x25a>
    70ae:	4605                	li	a2,1
    70b0:	4781                	li	a5,0
    70b2:	4401                	li	s0,0
    70b4:	00296913          	ori	s2,s2,2
    70b8:	a081                	j	70f8 <__divdf3+0x544>
    70ba:	4785                	li	a5,1
    70bc:	8f91                	sub	a5,a5,a2
    70be:	03800713          	li	a4,56
    70c2:	08f75c63          	bge	a4,a5,715a <__divdf3+0x5a6>
    70c6:	8c4d                	or	s0,s0,a1
    70c8:	14041663          	bnez	s0,7214 <__divdf3+0x660>
    70cc:	00296913          	ori	s2,s2,2
    70d0:	4601                	li	a2,0
    70d2:	4781                	li	a5,0
    70d4:	a015                	j	70f8 <__divdf3+0x544>
    70d6:	4789                	li	a5,2
    70d8:	0cfb0c63          	beq	s6,a5,71b0 <__divdf3+0x5fc>
    70dc:	478d                	li	a5,3
    70de:	06fb0063          	beq	s6,a5,713e <__divdf3+0x58a>
    70e2:	060b0063          	beqz	s6,7142 <__divdf3+0x58e>
    70e6:	00100437          	lui	s0,0x100
    70ea:	fff40793          	addi	a5,s0,-1 # fffff <_data_lma+0xf6c83>
    70ee:	7fe00613          	li	a2,2046
    70f2:	547d                	li	s0,-1
    70f4:	00596913          	ori	s2,s2,5
    70f8:	00c79713          	slli	a4,a5,0xc
    70fc:	8331                	srli	a4,a4,0xc
    70fe:	01461793          	slli	a5,a2,0x14
    7102:	06fe                	slli	a3,a3,0x1f
    7104:	8fd9                	or	a5,a5,a4
    7106:	8fd5                	or	a5,a5,a3
    7108:	8522                	mv	a0,s0
    710a:	85be                	mv	a1,a5
    710c:	00192073          	csrs	fflags,s2
    7110:	b1a5                	j	6d78 <__divdf3+0x1c4>
    7112:	4501                	li	a0,0
    7114:	7ff805b7          	lui	a1,0x7ff80
    7118:	4941                	li	s2,16
    711a:	00192073          	csrs	fflags,s2
    711e:	b9a9                	j	6d78 <__divdf3+0x1c4>
    7120:	ebe792e3          	bne	a5,t5,6fc4 <__divdf3+0x410>
    7124:	c8070ae3          	beqz	a4,6db8 <__divdf3+0x204>
    7128:	b561                	j	6fb0 <__divdf3+0x3fc>
    712a:	f0f894e3          	bne	a7,a5,7032 <__divdf3+0x47e>
    712e:	efdc7ee3          	bgeu	s8,t4,702a <__divdf3+0x476>
    7132:	842e                	mv	s0,a1
    7134:	b3d1                	j	6ef8 <__divdf3+0x344>
    7136:	853a                	mv	a0,a4
    7138:	b39d                	j	6e9e <__divdf3+0x2ea>
    713a:	842e                	mv	s0,a1
    713c:	bb1d                	j	6e72 <__divdf3+0x2be>
    713e:	fa0814e3          	bnez	a6,70e6 <__divdf3+0x532>
    7142:	7ff00613          	li	a2,2047
    7146:	4781                	li	a5,0
    7148:	4401                	li	s0,0
    714a:	b76d                	j	70f4 <__divdf3+0x540>
    714c:	4785                	li	a5,1
    714e:	8f91                	sub	a5,a5,a2
    7150:	03800713          	li	a4,56
    7154:	0cf74063          	blt	a4,a5,7214 <__divdf3+0x660>
    7158:	55fd                	li	a1,-1
    715a:	477d                	li	a4,31
    715c:	22f75e63          	bge	a4,a5,7398 <__divdf3+0x7e4>
    7160:	5705                	li	a4,-31
    7162:	8f11                	sub	a4,a4,a2
    7164:	02000613          	li	a2,32
    7168:	00e45733          	srl	a4,s0,a4
    716c:	00c78763          	beq	a5,a2,717a <__divdf3+0x5c6>
    7170:	43e98513          	addi	a0,s3,1086
    7174:	00a41433          	sll	s0,s0,a0
    7178:	8dc1                	or	a1,a1,s0
    717a:	00b03433          	snez	s0,a1
    717e:	8c59                	or	s0,s0,a4
    7180:	00747793          	andi	a5,s0,7
    7184:	cb99                	beqz	a5,719a <__divdf3+0x5e6>
    7186:	4789                	li	a5,2
    7188:	00196913          	ori	s2,s2,1
    718c:	1efb0563          	beq	s6,a5,7376 <__divdf3+0x7c2>
    7190:	478d                	li	a5,3
    7192:	1cfb0763          	beq	s6,a5,7360 <__divdf3+0x7ac>
    7196:	180b0463          	beqz	s6,731e <__divdf3+0x76a>
    719a:	800d                	srli	s0,s0,0x3
    719c:	4781                	li	a5,0
    719e:	00197613          	andi	a2,s2,1
    71a2:	4701                	li	a4,0
    71a4:	bc0600e3          	beqz	a2,6d64 <__divdf3+0x1b0>
    71a8:	4601                	li	a2,0
    71aa:	00296913          	ori	s2,s2,2
    71ae:	b7a9                	j	70f8 <__divdf3+0x544>
    71b0:	f2080be3          	beqz	a6,70e6 <__divdf3+0x532>
    71b4:	b779                	j	7142 <__divdf3+0x58e>
    71b6:	e6ec7ee3          	bgeu	s8,a4,7032 <__divdf3+0x47e>
    71ba:	9c76                	add	s8,s8,t4
    71bc:	01dc35b3          	sltu	a1,s8,t4
    71c0:	95c6                	add	a1,a1,a7
    71c2:	1479                	addi	s0,s0,-2
    71c4:	97ae                	add	a5,a5,a1
    71c6:	bb0d                	j	6ef8 <__divdf3+0x344>
    71c8:	08c05363          	blez	a2,724e <__divdf3+0x69a>
    71cc:	4789                	li	a5,2
    71ce:	00196913          	ori	s2,s2,1
    71d2:	0afb0e63          	beq	s6,a5,728e <__divdf3+0x6da>
    71d6:	478d                	li	a5,3
    71d8:	0afb0563          	beq	s6,a5,7282 <__divdf3+0x6ce>
    71dc:	0e0b0b63          	beqz	s6,72d2 <__divdf3+0x71e>
    71e0:	200005b7          	lui	a1,0x20000
    71e4:	15fd                	addi	a1,a1,-1
    71e6:	b6cd                	j	6dc8 <__divdf3+0x214>
    71e8:	4789                	li	a5,2
    71ea:	00196913          	ori	s2,s2,1
    71ee:	0afb0163          	beq	s6,a5,7290 <__divdf3+0x6dc>
    71f2:	478d                	li	a5,3
    71f4:	08fb0863          	beq	s6,a5,7284 <__divdf3+0x6d0>
    71f8:	bc0b16e3          	bnez	s6,6dc4 <__divdf3+0x210>
    71fc:	00f5f793          	andi	a5,a1,15
    7200:	4711                	li	a4,4
    7202:	86c2                	mv	a3,a6
    7204:	16e79e63          	bne	a5,a4,7380 <__divdf3+0x7cc>
    7208:	818d                	srli	a1,a1,0x3
    720a:	be7d                	j	6dc8 <__divdf3+0x214>
    720c:	85b6                	mv	a1,a3
    720e:	b32d                	j	6f38 <__divdf3+0x384>
    7210:	86ba                	mv	a3,a4
    7212:	bb91                	j	6f66 <__divdf3+0x3b2>
    7214:	4789                	li	a5,2
    7216:	00196913          	ori	s2,s2,1
    721a:	01003433          	snez	s0,a6
    721e:	eafb07e3          	beq	s6,a5,70cc <__divdf3+0x518>
    7222:	478d                	li	a5,3
    7224:	4401                	li	s0,0
    7226:	eafb13e3          	bne	s6,a5,70cc <__divdf3+0x518>
    722a:	00183413          	seqz	s0,a6
    722e:	bd79                	j	70cc <__divdf3+0x518>
    7230:	001e9693          	slli	a3,t4,0x1
    7234:	01d6beb3          	sltu	t4,a3,t4
    7238:	98f6                	add	a7,a7,t4
    723a:	97c6                	add	a5,a5,a7
    723c:	15f9                	addi	a1,a1,-2
    723e:	8eb6                	mv	t4,a3
    7240:	d9e792e3          	bne	a5,t5,6fc4 <__divdf3+0x410>
    7244:	b7d70ae3          	beq	a4,t4,6db8 <__divdf3+0x204>
    7248:	0015e593          	ori	a1,a1,1
    724c:	b6b5                	j	6db8 <__divdf3+0x204>
    724e:	ee061fe3          	bnez	a2,714c <__divdf3+0x598>
    7252:	4789                	li	a5,2
    7254:	00196913          	ori	s2,s2,1
    7258:	0efb0d63          	beq	s6,a5,7352 <__divdf3+0x79e>
    725c:	478d                	li	a5,3
    725e:	0cfb0e63          	beq	s6,a5,733a <__divdf3+0x786>
    7262:	120b0763          	beqz	s6,7390 <__divdf3+0x7dc>
    7266:	88a2                	mv	a7,s0
    7268:	55fd                	li	a1,-1
    726a:	c0100993          	li	s3,-1023
    726e:	b3f5                	j	705a <__divdf3+0x4a6>
    7270:	86c2                	mv	a3,a6
    7272:	4701                	li	a4,0
    7274:	4781                	li	a5,0
    7276:	4401                	li	s0,0
    7278:	b4f5                	j	6d64 <__divdf3+0x1b0>
    727a:	85b6                	mv	a1,a3
    727c:	fde784e3          	beq	a5,t5,7244 <__divdf3+0x690>
    7280:	b391                	j	6fc4 <__divdf3+0x410>
    7282:	55fd                	li	a1,-1
    7284:	06080e63          	beqz	a6,7300 <__divdf3+0x74c>
    7288:	818d                	srli	a1,a1,0x3
    728a:	4685                	li	a3,1
    728c:	be35                	j	6dc8 <__divdf3+0x214>
    728e:	55fd                	li	a1,-1
    7290:	04081f63          	bnez	a6,72ee <__divdf3+0x73a>
    7294:	818d                	srli	a1,a1,0x3
    7296:	4681                	li	a3,0
    7298:	be05                	j	6dc8 <__divdf3+0x214>
    729a:	4789                	li	a5,2
    729c:	00196913          	ori	s2,s2,1
    72a0:	0afb0d63          	beq	s6,a5,735a <__divdf3+0x7a6>
    72a4:	478d                	li	a5,3
    72a6:	08fb0d63          	beq	s6,a5,7340 <__divdf3+0x78c>
    72aa:	da0b18e3          	bnez	s6,705a <__divdf3+0x4a6>
    72ae:	00f5f793          	andi	a5,a1,15
    72b2:	4711                	li	a4,4
    72b4:	dae783e3          	beq	a5,a4,705a <__divdf3+0x4a6>
    72b8:	ffc5b793          	sltiu	a5,a1,-4
    72bc:	0017c793          	xori	a5,a5,1
    72c0:	88a2                	mv	a7,s0
    72c2:	943e                	add	s0,s0,a5
    72c4:	bb59                	j	705a <__divdf3+0x4a6>
    72c6:	86c2                	mv	a3,a6
    72c8:	7ff00713          	li	a4,2047
    72cc:	4781                	li	a5,0
    72ce:	4401                	li	s0,0
    72d0:	bc51                	j	6d64 <__divdf3+0x1b0>
    72d2:	4785                	li	a5,1
    72d4:	4581                	li	a1,0
    72d6:	943e                	add	s0,s0,a5
    72d8:	bcc5                	j	6dc8 <__divdf3+0x214>
    72da:	00971793          	slli	a5,a4,0x9
    72de:	800d                	srli	s0,s0,0x3
    72e0:	0776                	slli	a4,a4,0x1d
    72e2:	83b1                	srli	a5,a5,0xc
    72e4:	8c59                	or	s0,s0,a4
    72e6:	ea061ce3          	bnez	a2,719e <__divdf3+0x5ea>
    72ea:	4701                	li	a4,0
    72ec:	bca5                	j	6d64 <__divdf3+0x1b0>
    72ee:	00858793          	addi	a5,a1,8 # 20000008 <_data_vma+0x8>
    72f2:	00b7b5b3          	sltu	a1,a5,a1
    72f6:	942e                	add	s0,s0,a1
    72f8:	4685                	li	a3,1
    72fa:	0037d593          	srli	a1,a5,0x3
    72fe:	b4e9                	j	6dc8 <__divdf3+0x214>
    7300:	00858793          	addi	a5,a1,8
    7304:	00b7b5b3          	sltu	a1,a5,a1
    7308:	942e                	add	s0,s0,a1
    730a:	4681                	li	a3,0
    730c:	0037d593          	srli	a1,a5,0x3
    7310:	bc65                	j	6dc8 <__divdf3+0x214>
    7312:	f0eeefe3          	bltu	t4,a4,7230 <__divdf3+0x67c>
    7316:	85b6                	mv	a1,a3
    7318:	f3d718e3          	bne	a4,t4,7248 <__divdf3+0x694>
    731c:	bc71                	j	6db8 <__divdf3+0x204>
    731e:	4605                	li	a2,1
    7320:	4701                	li	a4,0
    7322:	00f47793          	andi	a5,s0,15
    7326:	4591                	li	a1,4
    7328:	d6b78ae3          	beq	a5,a1,709c <__divdf3+0x4e8>
    732c:	00440793          	addi	a5,s0,4
    7330:	0087b433          	sltu	s0,a5,s0
    7334:	9722                	add	a4,a4,s0
    7336:	843e                	mv	s0,a5
    7338:	b395                	j	709c <__divdf3+0x4e8>
    733a:	55fd                	li	a1,-1
    733c:	c0100993          	li	s3,-1023
    7340:	88a2                	mv	a7,s0
    7342:	d0081ce3          	bnez	a6,705a <__divdf3+0x4a6>
    7346:	ff85b793          	sltiu	a5,a1,-8
    734a:	0017c793          	xori	a5,a5,1
    734e:	943e                	add	s0,s0,a5
    7350:	b329                	j	705a <__divdf3+0x4a6>
    7352:	88a2                	mv	a7,s0
    7354:	55fd                	li	a1,-1
    7356:	c0100993          	li	s3,-1023
    735a:	d00800e3          	beqz	a6,705a <__divdf3+0x4a6>
    735e:	b7e5                	j	7346 <__divdf3+0x792>
    7360:	4605                	li	a2,1
    7362:	4701                	li	a4,0
    7364:	d2081ce3          	bnez	a6,709c <__divdf3+0x4e8>
    7368:	00840793          	addi	a5,s0,8
    736c:	0087b433          	sltu	s0,a5,s0
    7370:	9722                	add	a4,a4,s0
    7372:	843e                	mv	s0,a5
    7374:	b325                	j	709c <__divdf3+0x4e8>
    7376:	4605                	li	a2,1
    7378:	4701                	li	a4,0
    737a:	d20801e3          	beqz	a6,709c <__divdf3+0x4e8>
    737e:	b7ed                	j	7368 <__divdf3+0x7b4>
    7380:	ffc5b793          	sltiu	a5,a1,-4
    7384:	0017c793          	xori	a5,a5,1
    7388:	0591                	addi	a1,a1,4
    738a:	818d                	srli	a1,a1,0x3
    738c:	943e                	add	s0,s0,a5
    738e:	bc2d                	j	6dc8 <__divdf3+0x214>
    7390:	55fd                	li	a1,-1
    7392:	c0100993          	li	s3,-1023
    7396:	b70d                	j	72b8 <__divdf3+0x704>
    7398:	88a2                	mv	a7,s0
    739a:	4605                	li	a2,1
    739c:	b1e9                	j	7066 <__divdf3+0x4b2>

0000739e <__ledf2>:
    739e:	002027f3          	frrm	a5
    73a2:	001007b7          	lui	a5,0x100
    73a6:	0145d713          	srli	a4,a1,0x14
    73aa:	17fd                	addi	a5,a5,-1
    73ac:	0146d813          	srli	a6,a3,0x14
    73b0:	7ff77713          	andi	a4,a4,2047
    73b4:	7ff00893          	li	a7,2047
    73b8:	00b7f333          	and	t1,a5,a1
    73bc:	8e2a                	mv	t3,a0
    73be:	8ff5                	and	a5,a5,a3
    73c0:	81fd                	srli	a1,a1,0x1f
    73c2:	8eb2                	mv	t4,a2
    73c4:	7ff87813          	andi	a6,a6,2047
    73c8:	82fd                	srli	a3,a3,0x1f
    73ca:	03170f63          	beq	a4,a7,7408 <__ledf2+0x6a>
    73ce:	01180d63          	beq	a6,a7,73e8 <__ledf2+0x4a>
    73d2:	e321                	bnez	a4,7412 <__ledf2+0x74>
    73d4:	00a368b3          	or	a7,t1,a0
    73d8:	02081063          	bnez	a6,73f8 <__ledf2+0x5a>
    73dc:	8e5d                	or	a2,a2,a5
    73de:	ee09                	bnez	a2,73f8 <__ledf2+0x5a>
    73e0:	4501                	li	a0,0
    73e2:	00089f63          	bnez	a7,7400 <__ledf2+0x62>
    73e6:	8082                	ret
    73e8:	00c7e8b3          	or	a7,a5,a2
    73ec:	fe0883e3          	beqz	a7,73d2 <__ledf2+0x34>
    73f0:	00186073          	csrsi	fflags,16
    73f4:	4509                	li	a0,2
    73f6:	8082                	ret
    73f8:	02088f63          	beqz	a7,7436 <__ledf2+0x98>
    73fc:	02d58363          	beq	a1,a3,7422 <__ledf2+0x84>
    7400:	4505                	li	a0,1
    7402:	d1f5                	beqz	a1,73e6 <__ledf2+0x48>
    7404:	557d                	li	a0,-1
    7406:	8082                	ret
    7408:	00a36533          	or	a0,t1,a0
    740c:	f175                	bnez	a0,73f0 <__ledf2+0x52>
    740e:	02e80763          	beq	a6,a4,743c <__ledf2+0x9e>
    7412:	00081463          	bnez	a6,741a <__ledf2+0x7c>
    7416:	8e5d                	or	a2,a2,a5
    7418:	d665                	beqz	a2,7400 <__ledf2+0x62>
    741a:	fed593e3          	bne	a1,a3,7400 <__ledf2+0x62>
    741e:	fee841e3          	blt	a6,a4,7400 <__ledf2+0x62>
    7422:	01074863          	blt	a4,a6,7432 <__ledf2+0x94>
    7426:	fc67ede3          	bltu	a5,t1,7400 <__ledf2+0x62>
    742a:	00f30e63          	beq	t1,a5,7446 <__ledf2+0xa8>
    742e:	00f37a63          	bgeu	t1,a5,7442 <__ledf2+0xa4>
    7432:	e199                	bnez	a1,7438 <__ledf2+0x9a>
    7434:	bfc1                	j	7404 <__ledf2+0x66>
    7436:	d6f9                	beqz	a3,7404 <__ledf2+0x66>
    7438:	4505                	li	a0,1
    743a:	8082                	ret
    743c:	8e5d                	or	a2,a2,a5
    743e:	de71                	beqz	a2,741a <__ledf2+0x7c>
    7440:	bf45                	j	73f0 <__ledf2+0x52>
    7442:	4501                	li	a0,0
    7444:	8082                	ret
    7446:	fbceede3          	bltu	t4,t3,7400 <__ledf2+0x62>
    744a:	4501                	li	a0,0
    744c:	f9de7de3          	bgeu	t3,t4,73e6 <__ledf2+0x48>
    7450:	f5e5                	bnez	a1,7438 <__ledf2+0x9a>
    7452:	bf4d                	j	7404 <__ledf2+0x66>

00007454 <__muldf3>:
    7454:	7139                	addi	sp,sp,-64
    7456:	d452                	sw	s4,40(sp)
    7458:	de06                	sw	ra,60(sp)
    745a:	dc22                	sw	s0,56(sp)
    745c:	da26                	sw	s1,52(sp)
    745e:	d84a                	sw	s2,48(sp)
    7460:	d64e                	sw	s3,44(sp)
    7462:	d256                	sw	s5,36(sp)
    7464:	d05a                	sw	s6,32(sp)
    7466:	ce5e                	sw	s7,28(sp)
    7468:	cc62                	sw	s8,24(sp)
    746a:	ca66                	sw	s9,20(sp)
    746c:	8a2a                	mv	s4,a0
    746e:	00202b73          	frrm	s6
    7472:	0145d913          	srli	s2,a1,0x14
    7476:	00c59993          	slli	s3,a1,0xc
    747a:	7ff97913          	andi	s2,s2,2047
    747e:	00c9d993          	srli	s3,s3,0xc
    7482:	01f5db93          	srli	s7,a1,0x1f
    7486:	12090e63          	beqz	s2,75c2 <__muldf3+0x16e>
    748a:	7ff00793          	li	a5,2047
    748e:	16f90d63          	beq	s2,a5,7608 <__muldf3+0x1b4>
    7492:	01d55413          	srli	s0,a0,0x1d
    7496:	098e                	slli	s3,s3,0x3
    7498:	013469b3          	or	s3,s0,s3
    749c:	00800437          	lui	s0,0x800
    74a0:	0089e433          	or	s0,s3,s0
    74a4:	00351493          	slli	s1,a0,0x3
    74a8:	c0190913          	addi	s2,s2,-1023
    74ac:	4a01                	li	s4,0
    74ae:	4c81                	li	s9,0
    74b0:	4a81                	li	s5,0
    74b2:	0146d793          	srli	a5,a3,0x14
    74b6:	00c69993          	slli	s3,a3,0xc
    74ba:	7ff7f793          	andi	a5,a5,2047
    74be:	85b2                	mv	a1,a2
    74c0:	00c9d993          	srli	s3,s3,0xc
    74c4:	01f6dc13          	srli	s8,a3,0x1f
    74c8:	cfd5                	beqz	a5,7584 <__muldf3+0x130>
    74ca:	7ff00713          	li	a4,2047
    74ce:	04e78463          	beq	a5,a4,7516 <__muldf3+0xc2>
    74d2:	00399513          	slli	a0,s3,0x3
    74d6:	01d65993          	srli	s3,a2,0x1d
    74da:	00a9e9b3          	or	s3,s3,a0
    74de:	c0178793          	addi	a5,a5,-1023 # ffc01 <_data_lma+0xf6885>
    74e2:	00800537          	lui	a0,0x800
    74e6:	00a9e9b3          	or	s3,s3,a0
    74ea:	00361593          	slli	a1,a2,0x3
    74ee:	993e                	add	s2,s2,a5
    74f0:	4801                	li	a6,0
    74f2:	018bc633          	xor	a2,s7,s8
    74f6:	47bd                	li	a5,15
    74f8:	86b2                	mv	a3,a2
    74fa:	00190713          	addi	a4,s2,1
    74fe:	1747ef63          	bltu	a5,s4,767c <__muldf3+0x228>
    7502:	00002517          	auipc	a0,0x2
    7506:	d3650513          	addi	a0,a0,-714 # 9238 <init_jk+0x74>
    750a:	0a0a                	slli	s4,s4,0x2
    750c:	9a2a                	add	s4,s4,a0
    750e:	000a2783          	lw	a5,0(s4)
    7512:	97aa                	add	a5,a5,a0
    7514:	8782                	jr	a5
    7516:	00c9e633          	or	a2,s3,a2
    751a:	7ff90913          	addi	s2,s2,2047
    751e:	12060863          	beqz	a2,764e <__muldf3+0x1fa>
    7522:	00c99793          	slli	a5,s3,0xc
    7526:	003a6a13          	ori	s4,s4,3
    752a:	480d                	li	a6,3
    752c:	fc07c3e3          	bltz	a5,74f2 <__muldf3+0x9e>
    7530:	4ac1                	li	s5,16
    7532:	b7c1                	j	74f2 <__muldf3+0x9e>
    7534:	86e2                	mv	a3,s8
    7536:	844e                	mv	s0,s3
    7538:	84ae                	mv	s1,a1
    753a:	8cc2                	mv	s9,a6
    753c:	4789                	li	a5,2
    753e:	12fc8963          	beq	s9,a5,7670 <__muldf3+0x21c>
    7542:	478d                	li	a5,3
    7544:	10fc8b63          	beq	s9,a5,765a <__muldf3+0x206>
    7548:	4785                	li	a5,1
    754a:	8636                	mv	a2,a3
    754c:	4cfc9263          	bne	s9,a5,7a10 <__muldf3+0x5bc>
    7550:	4701                	li	a4,0
    7552:	4781                	li	a5,0
    7554:	4401                	li	s0,0
    7556:	07b2                	slli	a5,a5,0xc
    7558:	0752                	slli	a4,a4,0x14
    755a:	83b1                	srli	a5,a5,0xc
    755c:	067e                	slli	a2,a2,0x1f
    755e:	8fd9                	or	a5,a5,a4
    7560:	8fd1                	or	a5,a5,a2
    7562:	8522                	mv	a0,s0
    7564:	85be                	mv	a1,a5
    7566:	340a9963          	bnez	s5,78b8 <__muldf3+0x464>
    756a:	50f2                	lw	ra,60(sp)
    756c:	5462                	lw	s0,56(sp)
    756e:	54d2                	lw	s1,52(sp)
    7570:	5942                	lw	s2,48(sp)
    7572:	59b2                	lw	s3,44(sp)
    7574:	5a22                	lw	s4,40(sp)
    7576:	5a92                	lw	s5,36(sp)
    7578:	5b02                	lw	s6,32(sp)
    757a:	4bf2                	lw	s7,28(sp)
    757c:	4c62                	lw	s8,24(sp)
    757e:	4cd2                	lw	s9,20(sp)
    7580:	6121                	addi	sp,sp,64
    7582:	8082                	ret
    7584:	00c9e7b3          	or	a5,s3,a2
    7588:	cfcd                	beqz	a5,7642 <__muldf3+0x1ee>
    758a:	34098a63          	beqz	s3,78de <__muldf3+0x48a>
    758e:	854e                	mv	a0,s3
    7590:	c432                	sw	a2,8(sp)
    7592:	426010ef          	jal	ra,89b8 <__clzsi2>
    7596:	4622                	lw	a2,8(sp)
    7598:	87aa                	mv	a5,a0
    759a:	ff550693          	addi	a3,a0,-11
    759e:	4775                	li	a4,29
    75a0:	ff878593          	addi	a1,a5,-8
    75a4:	8f15                	sub	a4,a4,a3
    75a6:	00b999b3          	sll	s3,s3,a1
    75aa:	00e65733          	srl	a4,a2,a4
    75ae:	013769b3          	or	s3,a4,s3
    75b2:	00b615b3          	sll	a1,a2,a1
    75b6:	40f90933          	sub	s2,s2,a5
    75ba:	c0d90913          	addi	s2,s2,-1011
    75be:	4801                	li	a6,0
    75c0:	bf0d                	j	74f2 <__muldf3+0x9e>
    75c2:	00a9e433          	or	s0,s3,a0
    75c6:	c825                	beqz	s0,7636 <__muldf3+0x1e2>
    75c8:	c636                	sw	a3,12(sp)
    75ca:	c432                	sw	a2,8(sp)
    75cc:	2e098963          	beqz	s3,78be <__muldf3+0x46a>
    75d0:	854e                	mv	a0,s3
    75d2:	3e6010ef          	jal	ra,89b8 <__clzsi2>
    75d6:	4622                	lw	a2,8(sp)
    75d8:	46b2                	lw	a3,12(sp)
    75da:	87aa                	mv	a5,a0
    75dc:	ff550713          	addi	a4,a0,-11
    75e0:	4475                	li	s0,29
    75e2:	ff878493          	addi	s1,a5,-8
    75e6:	8c19                	sub	s0,s0,a4
    75e8:	009999b3          	sll	s3,s3,s1
    75ec:	008a5433          	srl	s0,s4,s0
    75f0:	01346433          	or	s0,s0,s3
    75f4:	009a14b3          	sll	s1,s4,s1
    75f8:	c0d00913          	li	s2,-1011
    75fc:	40f90933          	sub	s2,s2,a5
    7600:	4a01                	li	s4,0
    7602:	4c81                	li	s9,0
    7604:	4a81                	li	s5,0
    7606:	b575                	j	74b2 <__muldf3+0x5e>
    7608:	00a9e433          	or	s0,s3,a0
    760c:	cc11                	beqz	s0,7628 <__muldf3+0x1d4>
    760e:	00c99793          	slli	a5,s3,0xc
    7612:	84aa                	mv	s1,a0
    7614:	844e                	mv	s0,s3
    7616:	4a31                	li	s4,12
    7618:	7ff00913          	li	s2,2047
    761c:	4c8d                	li	s9,3
    761e:	4ac1                	li	s5,16
    7620:	e807d9e3          	bgez	a5,74b2 <__muldf3+0x5e>
    7624:	4a81                	li	s5,0
    7626:	b571                	j	74b2 <__muldf3+0x5e>
    7628:	4a21                	li	s4,8
    762a:	4481                	li	s1,0
    762c:	7ff00913          	li	s2,2047
    7630:	4c89                	li	s9,2
    7632:	4a81                	li	s5,0
    7634:	bdbd                	j	74b2 <__muldf3+0x5e>
    7636:	4a11                	li	s4,4
    7638:	4481                	li	s1,0
    763a:	4901                	li	s2,0
    763c:	4c85                	li	s9,1
    763e:	4a81                	li	s5,0
    7640:	bd8d                	j	74b2 <__muldf3+0x5e>
    7642:	001a6a13          	ori	s4,s4,1
    7646:	4981                	li	s3,0
    7648:	4581                	li	a1,0
    764a:	4805                	li	a6,1
    764c:	b55d                	j	74f2 <__muldf3+0x9e>
    764e:	002a6a13          	ori	s4,s4,2
    7652:	4981                	li	s3,0
    7654:	4581                	li	a1,0
    7656:	4809                	li	a6,2
    7658:	bd69                	j	74f2 <__muldf3+0x9e>
    765a:	4601                	li	a2,0
    765c:	7ff00713          	li	a4,2047
    7660:	000807b7          	lui	a5,0x80
    7664:	4401                	li	s0,0
    7666:	bdc5                	j	7556 <__muldf3+0x102>
    7668:	4789                	li	a5,2
    766a:	86de                	mv	a3,s7
    766c:	ecfc9be3          	bne	s9,a5,7542 <__muldf3+0xee>
    7670:	8636                	mv	a2,a3
    7672:	7ff00713          	li	a4,2047
    7676:	4781                	li	a5,0
    7678:	4401                	li	s0,0
    767a:	bdf1                	j	7556 <__muldf3+0x102>
    767c:	6341                	lui	t1,0x10
    767e:	fff30793          	addi	a5,t1,-1 # ffff <_data_lma+0x6c83>
    7682:	0104d513          	srli	a0,s1,0x10
    7686:	0105de13          	srli	t3,a1,0x10
    768a:	8cfd                	and	s1,s1,a5
    768c:	8dfd                	and	a1,a1,a5
    768e:	029587b3          	mul	a5,a1,s1
    7692:	02b508b3          	mul	a7,a0,a1
    7696:	0107d393          	srli	t2,a5,0x10
    769a:	029e0833          	mul	a6,t3,s1
    769e:	9846                	add	a6,a6,a7
    76a0:	93c2                	add	t2,t2,a6
    76a2:	03c50833          	mul	a6,a0,t3
    76a6:	0113f363          	bgeu	t2,a7,76ac <__muldf3+0x258>
    76aa:	981a                	add	a6,a6,t1
    76ac:	6341                	lui	t1,0x10
    76ae:	fff30e93          	addi	t4,t1,-1 # ffff <_data_lma+0x6c83>
    76b2:	0109d293          	srli	t0,s3,0x10
    76b6:	01d9f9b3          	and	s3,s3,t4
    76ba:	01d3f8b3          	and	a7,t2,t4
    76be:	01d7f7b3          	and	a5,a5,t4
    76c2:	08c2                	slli	a7,a7,0x10
    76c4:	03348eb3          	mul	t4,s1,s3
    76c8:	98be                	add	a7,a7,a5
    76ca:	0103d393          	srli	t2,t2,0x10
    76ce:	03350fb3          	mul	t6,a0,s3
    76d2:	010edf13          	srli	t5,t4,0x10
    76d6:	029284b3          	mul	s1,t0,s1
    76da:	94fe                	add	s1,s1,t6
    76dc:	94fa                	add	s1,s1,t5
    76de:	025507b3          	mul	a5,a0,t0
    76e2:	01f4f363          	bgeu	s1,t6,76e8 <__muldf3+0x294>
    76e6:	979a                	add	a5,a5,t1
    76e8:	6341                	lui	t1,0x10
    76ea:	fff30b93          	addi	s7,t1,-1 # ffff <_data_lma+0x6c83>
    76ee:	01045a13          	srli	s4,s0,0x10
    76f2:	01747533          	and	a0,s0,s7
    76f6:	0174ffb3          	and	t6,s1,s7
    76fa:	80c1                	srli	s1,s1,0x10
    76fc:	00f48f33          	add	t5,s1,a5
    7700:	02a58433          	mul	s0,a1,a0
    7704:	017efeb3          	and	t4,t4,s7
    7708:	0fc2                	slli	t6,t6,0x10
    770a:	9ff6                	add	t6,t6,t4
    770c:	93fe                	add	t2,t2,t6
    770e:	02ae07b3          	mul	a5,t3,a0
    7712:	01045e93          	srli	t4,s0,0x10
    7716:	02ba05b3          	mul	a1,s4,a1
    771a:	97ae                	add	a5,a5,a1
    771c:	9ebe                	add	t4,t4,a5
    771e:	034e0e33          	mul	t3,t3,s4
    7722:	00bef363          	bgeu	t4,a1,7728 <__muldf3+0x2d4>
    7726:	9e1a                	add	t3,t3,t1
    7728:	67c1                	lui	a5,0x10
    772a:	fff78593          	addi	a1,a5,-1 # ffff <_data_lma+0x6c83>
    772e:	00bef333          	and	t1,t4,a1
    7732:	8c6d                	and	s0,s0,a1
    7734:	0342                	slli	t1,t1,0x10
    7736:	9322                	add	t1,t1,s0
    7738:	010ede93          	srli	t4,t4,0x10
    773c:	033505b3          	mul	a1,a0,s3
    7740:	9e76                	add	t3,t3,t4
    7742:	02a28533          	mul	a0,t0,a0
    7746:	0105d413          	srli	s0,a1,0x10
    774a:	033a09b3          	mul	s3,s4,s3
    774e:	954e                	add	a0,a0,s3
    7750:	9522                	add	a0,a0,s0
    7752:	034282b3          	mul	t0,t0,s4
    7756:	01357363          	bgeu	a0,s3,775c <__muldf3+0x308>
    775a:	92be                	add	t0,t0,a5
    775c:	6ec1                	lui	t4,0x10
    775e:	1efd                	addi	t4,t4,-1
    7760:	01d577b3          	and	a5,a0,t4
    7764:	07c2                	slli	a5,a5,0x10
    7766:	01d5feb3          	and	t4,a1,t4
    776a:	97f6                	add	a5,a5,t4
    776c:	007805b3          	add	a1,a6,t2
    7770:	01f5bfb3          	sltu	t6,a1,t6
    7774:	97fa                	add	a5,a5,t5
    7776:	959a                	add	a1,a1,t1
    7778:	01f78433          	add	s0,a5,t6
    777c:	0065b833          	sltu	a6,a1,t1
    7780:	01c40eb3          	add	t4,s0,t3
    7784:	010e8333          	add	t1,t4,a6
    7788:	01f43433          	sltu	s0,s0,t6
    778c:	01e7b7b3          	sltu	a5,a5,t5
    7790:	8fc1                	or	a5,a5,s0
    7792:	01033833          	sltu	a6,t1,a6
    7796:	01055413          	srli	s0,a0,0x10
    779a:	01cebe33          	sltu	t3,t4,t3
    779e:	943e                	add	s0,s0,a5
    77a0:	010e6833          	or	a6,t3,a6
    77a4:	9442                	add	s0,s0,a6
    77a6:	00959493          	slli	s1,a1,0x9
    77aa:	9416                	add	s0,s0,t0
    77ac:	01735513          	srli	a0,t1,0x17
    77b0:	0114e4b3          	or	s1,s1,a7
    77b4:	0426                	slli	s0,s0,0x9
    77b6:	009034b3          	snez	s1,s1
    77ba:	81dd                	srli	a1,a1,0x17
    77bc:	8c49                	or	s0,s0,a0
    77be:	8ccd                	or	s1,s1,a1
    77c0:	0326                	slli	t1,t1,0x9
    77c2:	00741793          	slli	a5,s0,0x7
    77c6:	0064e4b3          	or	s1,s1,t1
    77ca:	0007db63          	bgez	a5,77e0 <__muldf3+0x38c>
    77ce:	0014d793          	srli	a5,s1,0x1
    77d2:	8885                	andi	s1,s1,1
    77d4:	01f41593          	slli	a1,s0,0x1f
    77d8:	8cdd                	or	s1,s1,a5
    77da:	8ccd                	or	s1,s1,a1
    77dc:	8005                	srli	s0,s0,0x1
    77de:	893a                	mv	s2,a4
    77e0:	3ff90713          	addi	a4,s2,1023
    77e4:	04e05963          	blez	a4,7836 <__muldf3+0x3e2>
    77e8:	0074f793          	andi	a5,s1,7
    77ec:	cb99                	beqz	a5,7802 <__muldf3+0x3ae>
    77ee:	4789                	li	a5,2
    77f0:	001aea93          	ori	s5,s5,1
    77f4:	20fb0b63          	beq	s6,a5,7a0a <__muldf3+0x5b6>
    77f8:	478d                	li	a5,3
    77fa:	1efb0d63          	beq	s6,a5,79f4 <__muldf3+0x5a0>
    77fe:	1c0b0f63          	beqz	s6,79dc <__muldf3+0x588>
    7802:	00741793          	slli	a5,s0,0x7
    7806:	0007d863          	bgez	a5,7816 <__muldf3+0x3c2>
    780a:	ff0007b7          	lui	a5,0xff000
    780e:	17fd                	addi	a5,a5,-1
    7810:	8c7d                	and	s0,s0,a5
    7812:	40090713          	addi	a4,s2,1024
    7816:	7fe00793          	li	a5,2046
    781a:	10e7c963          	blt	a5,a4,792c <__muldf3+0x4d8>
    781e:	0034d693          	srli	a3,s1,0x3
    7822:	00941793          	slli	a5,s0,0x9
    7826:	01d41493          	slli	s1,s0,0x1d
    782a:	00d4e433          	or	s0,s1,a3
    782e:	83b1                	srli	a5,a5,0xc
    7830:	7ff77713          	andi	a4,a4,2047
    7834:	b30d                	j	7556 <__muldf3+0x102>
    7836:	4785                	li	a5,1
    7838:	8f99                	sub	a5,a5,a4
    783a:	e379                	bnez	a4,7900 <__muldf3+0x4ac>
    783c:	0074f593          	andi	a1,s1,7
    7840:	8722                	mv	a4,s0
    7842:	cd81                	beqz	a1,785a <__muldf3+0x406>
    7844:	4709                	li	a4,2
    7846:	001aea93          	ori	s5,s5,1
    784a:	20eb0963          	beq	s6,a4,7a5c <__muldf3+0x608>
    784e:	470d                	li	a4,3
    7850:	1eeb0d63          	beq	s6,a4,7a4a <__muldf3+0x5f6>
    7854:	8722                	mv	a4,s0
    7856:	1c0b0f63          	beqz	s6,7a34 <__muldf3+0x5e0>
    785a:	8361                	srli	a4,a4,0x18
    785c:	00174713          	xori	a4,a4,1
    7860:	00177593          	andi	a1,a4,1
    7864:	41e90913          	addi	s2,s2,1054
    7868:	01249733          	sll	a4,s1,s2
    786c:	01241933          	sll	s2,s0,s2
    7870:	00f4d4b3          	srl	s1,s1,a5
    7874:	00e03733          	snez	a4,a4
    7878:	009964b3          	or	s1,s2,s1
    787c:	8cd9                	or	s1,s1,a4
    787e:	0074f513          	andi	a0,s1,7
    7882:	00f45733          	srl	a4,s0,a5
    7886:	c919                	beqz	a0,789c <__muldf3+0x448>
    7888:	4789                	li	a5,2
    788a:	001aea93          	ori	s5,s5,1
    788e:	1efb0863          	beq	s6,a5,7a7e <__muldf3+0x62a>
    7892:	478d                	li	a5,3
    7894:	1cfb0a63          	beq	s6,a5,7a68 <__muldf3+0x614>
    7898:	1e0b0863          	beqz	s6,7a88 <__muldf3+0x634>
    789c:	00871793          	slli	a5,a4,0x8
    78a0:	1807d063          	bgez	a5,7a20 <__muldf3+0x5cc>
    78a4:	001aea93          	ori	s5,s5,1
    78a8:	16059663          	bnez	a1,7a14 <__muldf3+0x5c0>
    78ac:	067e                	slli	a2,a2,0x1f
    78ae:	001007b7          	lui	a5,0x100
    78b2:	8fd1                	or	a5,a5,a2
    78b4:	4501                	li	a0,0
    78b6:	85be                	mv	a1,a5
    78b8:	001aa073          	csrs	fflags,s5
    78bc:	b17d                	j	756a <__muldf3+0x116>
    78be:	0fa010ef          	jal	ra,89b8 <__clzsi2>
    78c2:	01550713          	addi	a4,a0,21
    78c6:	45f1                	li	a1,28
    78c8:	02050793          	addi	a5,a0,32
    78cc:	4622                	lw	a2,8(sp)
    78ce:	46b2                	lw	a3,12(sp)
    78d0:	d0e5d8e3          	bge	a1,a4,75e0 <__muldf3+0x18c>
    78d4:	1561                	addi	a0,a0,-8
    78d6:	00aa1433          	sll	s0,s4,a0
    78da:	4481                	li	s1,0
    78dc:	bb31                	j	75f8 <__muldf3+0x1a4>
    78de:	8532                	mv	a0,a2
    78e0:	c432                	sw	a2,8(sp)
    78e2:	0d6010ef          	jal	ra,89b8 <__clzsi2>
    78e6:	01550693          	addi	a3,a0,21
    78ea:	4771                	li	a4,28
    78ec:	02050793          	addi	a5,a0,32
    78f0:	4622                	lw	a2,8(sp)
    78f2:	cad756e3          	bge	a4,a3,759e <__muldf3+0x14a>
    78f6:	1561                	addi	a0,a0,-8
    78f8:	4581                	li	a1,0
    78fa:	00a619b3          	sll	s3,a2,a0
    78fe:	b965                	j	75b6 <__muldf3+0x162>
    7900:	03800593          	li	a1,56
    7904:	06f5d963          	bge	a1,a5,7976 <__muldf3+0x522>
    7908:	8c45                	or	s0,s0,s1
    790a:	cc01                	beqz	s0,7922 <__muldf3+0x4ce>
    790c:	4789                	li	a5,2
    790e:	001aea93          	ori	s5,s5,1
    7912:	00d03433          	snez	s0,a3
    7916:	00fb0663          	beq	s6,a5,7922 <__muldf3+0x4ce>
    791a:	478d                	li	a5,3
    791c:	4401                	li	s0,0
    791e:	18fb0163          	beq	s6,a5,7aa0 <__muldf3+0x64c>
    7922:	002aea93          	ori	s5,s5,2
    7926:	4681                	li	a3,0
    7928:	4781                	li	a5,0
    792a:	a015                	j	794e <__muldf3+0x4fa>
    792c:	4789                	li	a5,2
    792e:	0cfb0c63          	beq	s6,a5,7a06 <__muldf3+0x5b2>
    7932:	478d                	li	a5,3
    7934:	08fb0e63          	beq	s6,a5,79d0 <__muldf3+0x57c>
    7938:	080b0d63          	beqz	s6,79d2 <__muldf3+0x57e>
    793c:	00100437          	lui	s0,0x100
    7940:	fff40793          	addi	a5,s0,-1 # fffff <_data_lma+0xf6c83>
    7944:	7fe00693          	li	a3,2046
    7948:	547d                	li	s0,-1
    794a:	005aea93          	ori	s5,s5,5
    794e:	00c79713          	slli	a4,a5,0xc
    7952:	8331                	srli	a4,a4,0xc
    7954:	01469793          	slli	a5,a3,0x14
    7958:	067e                	slli	a2,a2,0x1f
    795a:	8fd9                	or	a5,a5,a4
    795c:	8fd1                	or	a5,a5,a2
    795e:	8522                	mv	a0,s0
    7960:	85be                	mv	a1,a5
    7962:	001aa073          	csrs	fflags,s5
    7966:	b111                	j	756a <__muldf3+0x116>
    7968:	4501                	li	a0,0
    796a:	7ff805b7          	lui	a1,0x7ff80
    796e:	4ac1                	li	s5,16
    7970:	001aa073          	csrs	fflags,s5
    7974:	bedd                	j	756a <__muldf3+0x116>
    7976:	45fd                	li	a1,31
    7978:	12f5d763          	bge	a1,a5,7aa6 <__muldf3+0x652>
    797c:	5585                	li	a1,-31
    797e:	40e58733          	sub	a4,a1,a4
    7982:	02000593          	li	a1,32
    7986:	00e45733          	srl	a4,s0,a4
    798a:	00b78763          	beq	a5,a1,7998 <__muldf3+0x544>
    798e:	43e90913          	addi	s2,s2,1086
    7992:	01241433          	sll	s0,s0,s2
    7996:	8cc1                	or	s1,s1,s0
    7998:	009034b3          	snez	s1,s1
    799c:	8cd9                	or	s1,s1,a4
    799e:	0074f793          	andi	a5,s1,7
    79a2:	cb99                	beqz	a5,79b8 <__muldf3+0x564>
    79a4:	4789                	li	a5,2
    79a6:	001aea93          	ori	s5,s5,1
    79aa:	0cfb0863          	beq	s6,a5,7a7a <__muldf3+0x626>
    79ae:	478d                	li	a5,3
    79b0:	0afb0a63          	beq	s6,a5,7a64 <__muldf3+0x610>
    79b4:	0c0b0863          	beqz	s6,7a84 <__muldf3+0x630>
    79b8:	0034d413          	srli	s0,s1,0x3
    79bc:	4781                	li	a5,0
    79be:	001af693          	andi	a3,s5,1
    79c2:	4701                	li	a4,0
    79c4:	b80689e3          	beqz	a3,7556 <__muldf3+0x102>
    79c8:	4681                	li	a3,0
    79ca:	002aea93          	ori	s5,s5,2
    79ce:	b741                	j	794e <__muldf3+0x4fa>
    79d0:	f6b5                	bnez	a3,793c <__muldf3+0x4e8>
    79d2:	7ff00693          	li	a3,2047
    79d6:	4781                	li	a5,0
    79d8:	4401                	li	s0,0
    79da:	bf85                	j	794a <__muldf3+0x4f6>
    79dc:	00f4f793          	andi	a5,s1,15
    79e0:	4591                	li	a1,4
    79e2:	e2b780e3          	beq	a5,a1,7802 <__muldf3+0x3ae>
    79e6:	00448793          	addi	a5,s1,4
    79ea:	0097b4b3          	sltu	s1,a5,s1
    79ee:	9426                	add	s0,s0,s1
    79f0:	84be                	mv	s1,a5
    79f2:	bd01                	j	7802 <__muldf3+0x3ae>
    79f4:	e00697e3          	bnez	a3,7802 <__muldf3+0x3ae>
    79f8:	00848793          	addi	a5,s1,8
    79fc:	0097b4b3          	sltu	s1,a5,s1
    7a00:	9426                	add	s0,s0,s1
    7a02:	84be                	mv	s1,a5
    7a04:	bbfd                	j	7802 <__muldf3+0x3ae>
    7a06:	da9d                	beqz	a3,793c <__muldf3+0x4e8>
    7a08:	b7e9                	j	79d2 <__muldf3+0x57e>
    7a0a:	de068ce3          	beqz	a3,7802 <__muldf3+0x3ae>
    7a0e:	b7ed                	j	79f8 <__muldf3+0x5a4>
    7a10:	893a                	mv	s2,a4
    7a12:	b3f9                	j	77e0 <__muldf3+0x38c>
    7a14:	4685                	li	a3,1
    7a16:	4781                	li	a5,0
    7a18:	4401                	li	s0,0
    7a1a:	002aea93          	ori	s5,s5,2
    7a1e:	bf05                	j	794e <__muldf3+0x4fa>
    7a20:	00971793          	slli	a5,a4,0x9
    7a24:	0034d413          	srli	s0,s1,0x3
    7a28:	0776                	slli	a4,a4,0x1d
    7a2a:	83b1                	srli	a5,a5,0xc
    7a2c:	8c59                	or	s0,s0,a4
    7a2e:	f9c1                	bnez	a1,79be <__muldf3+0x56a>
    7a30:	4701                	li	a4,0
    7a32:	b615                	j	7556 <__muldf3+0x102>
    7a34:	00f4f593          	andi	a1,s1,15
    7a38:	4511                	li	a0,4
    7a3a:	e2a580e3          	beq	a1,a0,785a <__muldf3+0x406>
    7a3e:	ffc4b713          	sltiu	a4,s1,-4
    7a42:	00174713          	xori	a4,a4,1
    7a46:	9722                	add	a4,a4,s0
    7a48:	bd09                	j	785a <__muldf3+0x406>
    7a4a:	8722                	mv	a4,s0
    7a4c:	e00697e3          	bnez	a3,785a <__muldf3+0x406>
    7a50:	ff84b713          	sltiu	a4,s1,-8
    7a54:	00174713          	xori	a4,a4,1
    7a58:	9722                	add	a4,a4,s0
    7a5a:	b501                	j	785a <__muldf3+0x406>
    7a5c:	8722                	mv	a4,s0
    7a5e:	de068ee3          	beqz	a3,785a <__muldf3+0x406>
    7a62:	b7fd                	j	7a50 <__muldf3+0x5fc>
    7a64:	4585                	li	a1,1
    7a66:	4701                	li	a4,0
    7a68:	e2069ae3          	bnez	a3,789c <__muldf3+0x448>
    7a6c:	00848793          	addi	a5,s1,8
    7a70:	0097b4b3          	sltu	s1,a5,s1
    7a74:	9726                	add	a4,a4,s1
    7a76:	84be                	mv	s1,a5
    7a78:	b515                	j	789c <__muldf3+0x448>
    7a7a:	4585                	li	a1,1
    7a7c:	4701                	li	a4,0
    7a7e:	e0068fe3          	beqz	a3,789c <__muldf3+0x448>
    7a82:	b7ed                	j	7a6c <__muldf3+0x618>
    7a84:	4585                	li	a1,1
    7a86:	4701                	li	a4,0
    7a88:	00f4f793          	andi	a5,s1,15
    7a8c:	4691                	li	a3,4
    7a8e:	e0d787e3          	beq	a5,a3,789c <__muldf3+0x448>
    7a92:	00448793          	addi	a5,s1,4
    7a96:	0097b4b3          	sltu	s1,a5,s1
    7a9a:	9726                	add	a4,a4,s1
    7a9c:	84be                	mv	s1,a5
    7a9e:	bbfd                	j	789c <__muldf3+0x448>
    7aa0:	0016b413          	seqz	s0,a3
    7aa4:	bdbd                	j	7922 <__muldf3+0x4ce>
    7aa6:	4585                	li	a1,1
    7aa8:	bb75                	j	7864 <__muldf3+0x410>

00007aaa <__subdf3>:
    7aaa:	1101                	addi	sp,sp,-32
    7aac:	ce06                	sw	ra,28(sp)
    7aae:	cc22                	sw	s0,24(sp)
    7ab0:	ca26                	sw	s1,20(sp)
    7ab2:	c84a                	sw	s2,16(sp)
    7ab4:	c64e                	sw	s3,12(sp)
    7ab6:	c452                	sw	s4,8(sp)
    7ab8:	002029f3          	frrm	s3
    7abc:	00100837          	lui	a6,0x100
    7ac0:	187d                	addi	a6,a6,-1
    7ac2:	00b87733          	and	a4,a6,a1
    7ac6:	0146d893          	srli	a7,a3,0x14
    7aca:	00d87833          	and	a6,a6,a3
    7ace:	0145d413          	srli	s0,a1,0x14
    7ad2:	00371e13          	slli	t3,a4,0x3
    7ad6:	01d55793          	srli	a5,a0,0x1d
    7ada:	080e                	slli	a6,a6,0x3
    7adc:	01d65313          	srli	t1,a2,0x1d
    7ae0:	7ff8f893          	andi	a7,a7,2047
    7ae4:	7ff00e93          	li	t4,2047
    7ae8:	01f5d493          	srli	s1,a1,0x1f
    7aec:	01c7e733          	or	a4,a5,t3
    7af0:	7ff47413          	andi	s0,s0,2047
    7af4:	00351e13          	slli	t3,a0,0x3
    7af8:	82fd                	srli	a3,a3,0x1f
    7afa:	01036833          	or	a6,t1,a6
    7afe:	00361593          	slli	a1,a2,0x3
    7b02:	1dd88263          	beq	a7,t4,7cc6 <__subdf3+0x21c>
    7b06:	0016c693          	xori	a3,a3,1
    7b0a:	41140333          	sub	t1,s0,a7
    7b0e:	16d48763          	beq	s1,a3,7c7c <__subdf3+0x1d2>
    7b12:	1c605363          	blez	t1,7cd8 <__subdf3+0x22e>
    7b16:	22088463          	beqz	a7,7d3e <__subdf3+0x294>
    7b1a:	008007b7          	lui	a5,0x800
    7b1e:	00f86833          	or	a6,a6,a5
    7b22:	6dd40263          	beq	s0,t4,81e6 <__subdf3+0x73c>
    7b26:	03800793          	li	a5,56
    7b2a:	3a67cd63          	blt	a5,t1,7ee4 <__subdf3+0x43a>
    7b2e:	47fd                	li	a5,31
    7b30:	5267c263          	blt	a5,t1,8054 <__subdf3+0x5aa>
    7b34:	02000793          	li	a5,32
    7b38:	406787b3          	sub	a5,a5,t1
    7b3c:	0065d933          	srl	s2,a1,t1
    7b40:	00f81633          	sll	a2,a6,a5
    7b44:	00f595b3          	sll	a1,a1,a5
    7b48:	01266633          	or	a2,a2,s2
    7b4c:	00685333          	srl	t1,a6,t1
    7b50:	00b03933          	snez	s2,a1
    7b54:	01266633          	or	a2,a2,s2
    7b58:	40670733          	sub	a4,a4,t1
    7b5c:	40ce0933          	sub	s2,t3,a2
    7b60:	012e3633          	sltu	a2,t3,s2
    7b64:	8f11                	sub	a4,a4,a2
    7b66:	00871793          	slli	a5,a4,0x8
    7b6a:	2a07da63          	bgez	a5,7e1e <__subdf3+0x374>
    7b6e:	00971a13          	slli	s4,a4,0x9
    7b72:	009a5a13          	srli	s4,s4,0x9
    7b76:	340a0b63          	beqz	s4,7ecc <__subdf3+0x422>
    7b7a:	8552                	mv	a0,s4
    7b7c:	63d000ef          	jal	ra,89b8 <__clzsi2>
    7b80:	1561                	addi	a0,a0,-8
    7b82:	02000793          	li	a5,32
    7b86:	8f89                	sub	a5,a5,a0
    7b88:	00aa1733          	sll	a4,s4,a0
    7b8c:	00f957b3          	srl	a5,s2,a5
    7b90:	8fd9                	or	a5,a5,a4
    7b92:	00a91a33          	sll	s4,s2,a0
    7b96:	32854063          	blt	a0,s0,7eb6 <__subdf3+0x40c>
    7b9a:	8d01                	sub	a0,a0,s0
    7b9c:	00150713          	addi	a4,a0,1
    7ba0:	46fd                	li	a3,31
    7ba2:	44e6c063          	blt	a3,a4,7fe2 <__subdf3+0x538>
    7ba6:	02000693          	li	a3,32
    7baa:	8e99                	sub	a3,a3,a4
    7bac:	00ea5933          	srl	s2,s4,a4
    7bb0:	00d79633          	sll	a2,a5,a3
    7bb4:	00da16b3          	sll	a3,s4,a3
    7bb8:	01266633          	or	a2,a2,s2
    7bbc:	00d036b3          	snez	a3,a3
    7bc0:	00d66933          	or	s2,a2,a3
    7bc4:	00e7d733          	srl	a4,a5,a4
    7bc8:	00e967b3          	or	a5,s2,a4
    7bcc:	16078063          	beqz	a5,7d2c <__subdf3+0x282>
    7bd0:	00797793          	andi	a5,s2,7
    7bd4:	00191593          	slli	a1,s2,0x1
    7bd8:	00171613          	slli	a2,a4,0x1
    7bdc:	01f95693          	srli	a3,s2,0x1f
    7be0:	0075f513          	andi	a0,a1,7
    7be4:	96b2                	add	a3,a3,a2
    7be6:	4301                	li	t1,0
    7be8:	c911                	beqz	a0,7bfc <__subdf3+0x152>
    7bea:	4609                	li	a2,2
    7bec:	66c98163          	beq	s3,a2,824e <__subdf3+0x7a4>
    7bf0:	460d                	li	a2,3
    7bf2:	4305                	li	t1,1
    7bf4:	64c98563          	beq	s3,a2,823e <__subdf3+0x794>
    7bf8:	62098863          	beqz	s3,8228 <__subdf3+0x77e>
    7bfc:	01000637          	lui	a2,0x1000
    7c00:	8ef1                	and	a3,a3,a2
    7c02:	0016b513          	seqz	a0,a3
    7c06:	10078ce3          	beqz	a5,851e <__subdf3+0xa74>
    7c0a:	4401                	li	s0,0
    7c0c:	4789                	li	a5,2
    7c0e:	26f98c63          	beq	s3,a5,7e86 <__subdf3+0x3dc>
    7c12:	478d                	li	a5,3
    7c14:	28f98863          	beq	s3,a5,7ea4 <__subdf3+0x3fa>
    7c18:	24098263          	beqz	s3,7e5c <__subdf3+0x3b2>
    7c1c:	008005b7          	lui	a1,0x800
    7c20:	8df9                	and	a1,a1,a4
    7c22:	4305                	li	t1,1
    7c24:	c119                	beqz	a0,7c2a <__subdf3+0x180>
    7c26:	00236313          	ori	t1,t1,2
    7c2a:	4a058363          	beqz	a1,80d0 <__subdf3+0x626>
    7c2e:	0405                	addi	s0,s0,1
    7c30:	7ff00793          	li	a5,2047
    7c34:	20f40363          	beq	s0,a5,7e3a <__subdf3+0x390>
    7c38:	ff8007b7          	lui	a5,0xff800
    7c3c:	17fd                	addi	a5,a5,-1
    7c3e:	8ff9                	and	a5,a5,a4
    7c40:	01d79613          	slli	a2,a5,0x1d
    7c44:	00395913          	srli	s2,s2,0x3
    7c48:	07a6                	slli	a5,a5,0x9
    7c4a:	01266633          	or	a2,a2,s2
    7c4e:	83b1                	srli	a5,a5,0xc
    7c50:	7ff47413          	andi	s0,s0,2047
    7c54:	8885                	andi	s1,s1,1
    7c56:	00c79713          	slli	a4,a5,0xc
    7c5a:	0452                	slli	s0,s0,0x14
    7c5c:	8331                	srli	a4,a4,0xc
    7c5e:	04fe                	slli	s1,s1,0x1f
    7c60:	8f41                	or	a4,a4,s0
    7c62:	8f45                	or	a4,a4,s1
    7c64:	8532                	mv	a0,a2
    7c66:	85ba                	mv	a1,a4
    7c68:	2a031463          	bnez	t1,7f10 <__subdf3+0x466>
    7c6c:	40f2                	lw	ra,28(sp)
    7c6e:	4462                	lw	s0,24(sp)
    7c70:	44d2                	lw	s1,20(sp)
    7c72:	4942                	lw	s2,16(sp)
    7c74:	49b2                	lw	s3,12(sp)
    7c76:	4a22                	lw	s4,8(sp)
    7c78:	6105                	addi	sp,sp,32
    7c7a:	8082                	ret
    7c7c:	0c605d63          	blez	t1,7d56 <__subdf3+0x2ac>
    7c80:	16088c63          	beqz	a7,7df8 <__subdf3+0x34e>
    7c84:	008007b7          	lui	a5,0x800
    7c88:	00f86833          	or	a6,a6,a5
    7c8c:	51d40a63          	beq	s0,t4,81a0 <__subdf3+0x6f6>
    7c90:	03800793          	li	a5,56
    7c94:	3667cc63          	blt	a5,t1,800c <__subdf3+0x562>
    7c98:	47fd                	li	a5,31
    7c9a:	4667d063          	bge	a5,t1,80fa <__subdf3+0x650>
    7c9e:	fe030613          	addi	a2,t1,-32
    7ca2:	02000793          	li	a5,32
    7ca6:	00c85633          	srl	a2,a6,a2
    7caa:	00f30a63          	beq	t1,a5,7cbe <__subdf3+0x214>
    7cae:	04000793          	li	a5,64
    7cb2:	40678333          	sub	t1,a5,t1
    7cb6:	00681833          	sll	a6,a6,t1
    7cba:	0105e5b3          	or	a1,a1,a6
    7cbe:	00b035b3          	snez	a1,a1
    7cc2:	8e4d                	or	a2,a2,a1
    7cc4:	ae81                	j	8014 <__subdf3+0x56a>
    7cc6:	00b867b3          	or	a5,a6,a1
    7cca:	80140313          	addi	t1,s0,-2047
    7cce:	e399                	bnez	a5,7cd4 <__subdf3+0x22a>
    7cd0:	0016c693          	xori	a3,a3,1
    7cd4:	08d48163          	beq	s1,a3,7d56 <__subdf3+0x2ac>
    7cd8:	0c031563          	bnez	t1,7da2 <__subdf3+0x2f8>
    7cdc:	00140793          	addi	a5,s0,1
    7ce0:	7fe7f793          	andi	a5,a5,2046
    7ce4:	24079263          	bnez	a5,7f28 <__subdf3+0x47e>
    7ce8:	01c76eb3          	or	t4,a4,t3
    7cec:	00b867b3          	or	a5,a6,a1
    7cf0:	5a041263          	bnez	s0,8294 <__subdf3+0x7ea>
    7cf4:	480e8e63          	beqz	t4,8190 <__subdf3+0x6e6>
    7cf8:	4a078263          	beqz	a5,819c <__subdf3+0x6f2>
    7cfc:	40be0533          	sub	a0,t3,a1
    7d00:	00ae37b3          	sltu	a5,t3,a0
    7d04:	41070633          	sub	a2,a4,a6
    7d08:	8e1d                	sub	a2,a2,a5
    7d0a:	00861793          	slli	a5,a2,0x8
    7d0e:	6a07d463          	bgez	a5,83b6 <__subdf3+0x90c>
    7d12:	41c58933          	sub	s2,a1,t3
    7d16:	40e807b3          	sub	a5,a6,a4
    7d1a:	0125b5b3          	sltu	a1,a1,s2
    7d1e:	40b78733          	sub	a4,a5,a1
    7d22:	00e967b3          	or	a5,s2,a4
    7d26:	84b6                	mv	s1,a3
    7d28:	ea0794e3          	bnez	a5,7bd0 <__subdf3+0x126>
    7d2c:	4601                	li	a2,0
    7d2e:	4401                	li	s0,0
    7d30:	4301                	li	t1,0
    7d32:	07b2                	slli	a5,a5,0xc
    7d34:	83b1                	srli	a5,a5,0xc
    7d36:	7ff47413          	andi	s0,s0,2047
    7d3a:	8885                	andi	s1,s1,1
    7d3c:	bf29                	j	7c56 <__subdf3+0x1ac>
    7d3e:	00b867b3          	or	a5,a6,a1
    7d42:	1a078663          	beqz	a5,7eee <__subdf3+0x444>
    7d46:	fff30793          	addi	a5,t1,-1
    7d4a:	48078063          	beqz	a5,81ca <__subdf3+0x720>
    7d4e:	45d30963          	beq	t1,t4,81a0 <__subdf3+0x6f6>
    7d52:	833e                	mv	t1,a5
    7d54:	bbc9                	j	7b26 <__subdf3+0x7c>
    7d56:	20031063          	bnez	t1,7f56 <__subdf3+0x4ac>
    7d5a:	00140693          	addi	a3,s0,1
    7d5e:	7fe6f793          	andi	a5,a3,2046
    7d62:	4e079a63          	bnez	a5,8256 <__subdf3+0x7ac>
    7d66:	01c766b3          	or	a3,a4,t3
    7d6a:	3e041e63          	bnez	s0,8166 <__subdf3+0x6bc>
    7d6e:	00b867b3          	or	a5,a6,a1
    7d72:	5a068a63          	beqz	a3,8326 <__subdf3+0x87c>
    7d76:	42078363          	beqz	a5,819c <__subdf3+0x6f2>
    7d7a:	00be0933          	add	s2,t3,a1
    7d7e:	010707b3          	add	a5,a4,a6
    7d82:	01c93633          	sltu	a2,s2,t3
    7d86:	00c78733          	add	a4,a5,a2
    7d8a:	00871793          	slli	a5,a4,0x8
    7d8e:	e207dde3          	bgez	a5,7bc8 <__subdf3+0x11e>
    7d92:	ff8007b7          	lui	a5,0xff800
    7d96:	17fd                	addi	a5,a5,-1
    7d98:	8f7d                	and	a4,a4,a5
    7d9a:	4405                	li	s0,1
    7d9c:	00797793          	andi	a5,s2,7
    7da0:	a069                	j	7e2a <__subdf3+0x380>
    7da2:	408887b3          	sub	a5,a7,s0
    7da6:	20041363          	bnez	s0,7fac <__subdf3+0x502>
    7daa:	01c76533          	or	a0,a4,t3
    7dae:	c125                	beqz	a0,7e0e <__subdf3+0x364>
    7db0:	fff78513          	addi	a0,a5,-1 # ff7fffff <_eusrstack+0xdf7f7fff>
    7db4:	54050f63          	beqz	a0,8312 <__subdf3+0x868>
    7db8:	7ff00313          	li	t1,2047
    7dbc:	60678663          	beq	a5,t1,83c8 <__subdf3+0x91e>
    7dc0:	87aa                	mv	a5,a0
    7dc2:	03800613          	li	a2,56
    7dc6:	2af64b63          	blt	a2,a5,807c <__subdf3+0x5d2>
    7dca:	467d                	li	a2,31
    7dcc:	50f64863          	blt	a2,a5,82dc <__subdf3+0x832>
    7dd0:	02000513          	li	a0,32
    7dd4:	8d1d                	sub	a0,a0,a5
    7dd6:	00a71633          	sll	a2,a4,a0
    7dda:	00fe5333          	srl	t1,t3,a5
    7dde:	00ae1533          	sll	a0,t3,a0
    7de2:	00666633          	or	a2,a2,t1
    7de6:	00a03933          	snez	s2,a0
    7dea:	00f757b3          	srl	a5,a4,a5
    7dee:	01266633          	or	a2,a2,s2
    7df2:	40f80833          	sub	a6,a6,a5
    7df6:	a479                	j	8084 <__subdf3+0x5da>
    7df8:	00b867b3          	or	a5,a6,a1
    7dfc:	cbed                	beqz	a5,7eee <__subdf3+0x444>
    7dfe:	fff30793          	addi	a5,t1,-1
    7e02:	32078063          	beqz	a5,8122 <__subdf3+0x678>
    7e06:	4bd30b63          	beq	t1,t4,82bc <__subdf3+0x812>
    7e0a:	833e                	mv	t1,a5
    7e0c:	b551                	j	7c90 <__subdf3+0x1e6>
    7e0e:	7ff00713          	li	a4,2047
    7e12:	5ee78a63          	beq	a5,a4,8406 <__subdf3+0x95c>
    7e16:	8742                	mv	a4,a6
    7e18:	892e                	mv	s2,a1
    7e1a:	843e                	mv	s0,a5
    7e1c:	84b6                	mv	s1,a3
    7e1e:	00e967b3          	or	a5,s2,a4
    7e22:	da0405e3          	beqz	s0,7bcc <__subdf3+0x122>
    7e26:	00797793          	andi	a5,s2,7
    7e2a:	4501                	li	a0,0
    7e2c:	de0790e3          	bnez	a5,7c0c <__subdf3+0x162>
    7e30:	008005b7          	lui	a1,0x800
    7e34:	8df9                	and	a1,a1,a4
    7e36:	4301                	li	t1,0
    7e38:	bbcd                	j	7c2a <__subdf3+0x180>
    7e3a:	0c098f63          	beqz	s3,7f18 <__subdf3+0x46e>
    7e3e:	478d                	li	a5,3
    7e40:	0cf98b63          	beq	s3,a5,7f16 <__subdf3+0x46c>
    7e44:	4789                	li	a5,2
    7e46:	30f98b63          	beq	s3,a5,815c <__subdf3+0x6b2>
    7e4a:	00536313          	ori	t1,t1,5
    7e4e:	200007b7          	lui	a5,0x20000
    7e52:	567d                	li	a2,-1
    7e54:	17fd                	addi	a5,a5,-1
    7e56:	7fe00413          	li	s0,2046
    7e5a:	bde1                	j	7d32 <__subdf3+0x288>
    7e5c:	008005b7          	lui	a1,0x800
    7e60:	00f97793          	andi	a5,s2,15
    7e64:	4691                	li	a3,4
    7e66:	4305                	li	t1,1
    7e68:	8df9                	and	a1,a1,a4
    7e6a:	dad78de3          	beq	a5,a3,7c24 <__subdf3+0x17a>
    7e6e:	ffc93793          	sltiu	a5,s2,-4
    7e72:	0017c793          	xori	a5,a5,1
    7e76:	973e                	add	a4,a4,a5
    7e78:	008005b7          	lui	a1,0x800
    7e7c:	8df9                	and	a1,a1,a4
    7e7e:	0911                	addi	s2,s2,4
    7e80:	da0513e3          	bnez	a0,7c26 <__subdf3+0x17c>
    7e84:	b35d                	j	7c2a <__subdf3+0x180>
    7e86:	d8048be3          	beqz	s1,7c1c <__subdf3+0x172>
    7e8a:	00890793          	addi	a5,s2,8
    7e8e:	0127b633          	sltu	a2,a5,s2
    7e92:	9732                	add	a4,a4,a2
    7e94:	008005b7          	lui	a1,0x800
    7e98:	8df9                	and	a1,a1,a4
    7e9a:	893e                	mv	s2,a5
    7e9c:	4305                	li	t1,1
    7e9e:	d80514e3          	bnez	a0,7c26 <__subdf3+0x17c>
    7ea2:	b361                	j	7c2a <__subdf3+0x180>
    7ea4:	d0fd                	beqz	s1,7e8a <__subdf3+0x3e0>
    7ea6:	4305                	li	t1,1
    7ea8:	008005b7          	lui	a1,0x800
    7eac:	8df9                	and	a1,a1,a4
    7eae:	4485                	li	s1,1
    7eb0:	d6051be3          	bnez	a0,7c26 <__subdf3+0x17c>
    7eb4:	bb9d                	j	7c2a <__subdf3+0x180>
    7eb6:	ff800737          	lui	a4,0xff800
    7eba:	177d                	addi	a4,a4,-1
    7ebc:	8f7d                	and	a4,a4,a5
    7ebe:	8952                	mv	s2,s4
    7ec0:	8c09                	sub	s0,s0,a0
    7ec2:	00e967b3          	or	a5,s2,a4
    7ec6:	d00403e3          	beqz	s0,7bcc <__subdf3+0x122>
    7eca:	bfb1                	j	7e26 <__subdf3+0x37c>
    7ecc:	854a                	mv	a0,s2
    7ece:	2eb000ef          	jal	ra,89b8 <__clzsi2>
    7ed2:	ff850793          	addi	a5,a0,-8
    7ed6:	477d                	li	a4,31
    7ed8:	0561                	addi	a0,a0,24
    7eda:	00f917b3          	sll	a5,s2,a5
    7ede:	caa74ce3          	blt	a4,a0,7b96 <__subdf3+0xec>
    7ee2:	b145                	j	7b82 <__subdf3+0xd8>
    7ee4:	00b86833          	or	a6,a6,a1
    7ee8:	01003633          	snez	a2,a6
    7eec:	b985                	j	7b5c <__subdf3+0xb2>
    7eee:	31d30f63          	beq	t1,t4,820c <__subdf3+0x762>
    7ef2:	008005b7          	lui	a1,0x800
    7ef6:	841a                	mv	s0,t1
    7ef8:	8df9                	and	a1,a1,a4
    7efa:	8972                	mv	s2,t3
    7efc:	4301                	li	t1,0
    7efe:	b335                	j	7c2a <__subdf3+0x180>
    7f00:	48888863          	beq	a7,s0,8390 <__subdf3+0x8e6>
    7f04:	48079f63          	bnez	a5,83a2 <__subdf3+0x8f8>
    7f08:	4501                	li	a0,0
    7f0a:	7ff805b7          	lui	a1,0x7ff80
    7f0e:	4341                	li	t1,16
    7f10:	00132073          	csrs	fflags,t1
    7f14:	bba1                	j	7c6c <__subdf3+0x1c2>
    7f16:	f895                	bnez	s1,7e4a <__subdf3+0x3a0>
    7f18:	00536313          	ori	t1,t1,5
    7f1c:	8885                	andi	s1,s1,1
    7f1e:	7ff00413          	li	s0,2047
    7f22:	4781                	li	a5,0
    7f24:	4601                	li	a2,0
    7f26:	bb05                	j	7c56 <__subdf3+0x1ac>
    7f28:	40be0933          	sub	s2,t3,a1
    7f2c:	012e37b3          	sltu	a5,t3,s2
    7f30:	41070a33          	sub	s4,a4,a6
    7f34:	40fa0a33          	sub	s4,s4,a5
    7f38:	008a1793          	slli	a5,s4,0x8
    7f3c:	3407c263          	bltz	a5,8280 <__subdf3+0x7d6>
    7f40:	014967b3          	or	a5,s2,s4
    7f44:	c20799e3          	bnez	a5,7b76 <__subdf3+0xcc>
    7f48:	ffe98493          	addi	s1,s3,-2
    7f4c:	0014b493          	seqz	s1,s1
    7f50:	4601                	li	a2,0
    7f52:	4401                	li	s0,0
    7f54:	bbf9                	j	7d32 <__subdf3+0x288>
    7f56:	408887b3          	sub	a5,a7,s0
    7f5a:	12040e63          	beqz	s0,8096 <__subdf3+0x5ec>
    7f5e:	00800537          	lui	a0,0x800
    7f62:	7ff00693          	li	a3,2047
    7f66:	8f49                	or	a4,a4,a0
    7f68:	50d88763          	beq	a7,a3,8476 <__subdf3+0x9cc>
    7f6c:	03800693          	li	a3,56
    7f70:	36f6c163          	blt	a3,a5,82d2 <__subdf3+0x828>
    7f74:	46fd                	li	a3,31
    7f76:	46f6c363          	blt	a3,a5,83dc <__subdf3+0x932>
    7f7a:	02000693          	li	a3,32
    7f7e:	8e9d                	sub	a3,a3,a5
    7f80:	00d71633          	sll	a2,a4,a3
    7f84:	00fe5533          	srl	a0,t3,a5
    7f88:	00de16b3          	sll	a3,t3,a3
    7f8c:	8e49                	or	a2,a2,a0
    7f8e:	00d03933          	snez	s2,a3
    7f92:	00f757b3          	srl	a5,a4,a5
    7f96:	01266633          	or	a2,a2,s2
    7f9a:	983e                	add	a6,a6,a5
    7f9c:	00b60933          	add	s2,a2,a1
    7fa0:	00b937b3          	sltu	a5,s2,a1
    7fa4:	01078733          	add	a4,a5,a6
    7fa8:	8446                	mv	s0,a7
    7faa:	a895                	j	801e <__subdf3+0x574>
    7fac:	00800337          	lui	t1,0x800
    7fb0:	7ff00513          	li	a0,2047
    7fb4:	00676733          	or	a4,a4,t1
    7fb8:	e0a895e3          	bne	a7,a0,7dc2 <__subdf3+0x318>
    7fbc:	00b865b3          	or	a1,a6,a1
    7fc0:	20058263          	beqz	a1,81c4 <__subdf3+0x71a>
    7fc4:	060e                	slli	a2,a2,0x3
    7fc6:	820d                	srli	a2,a2,0x3
    7fc8:	01d81793          	slli	a5,a6,0x1d
    7fcc:	00981713          	slli	a4,a6,0x9
    7fd0:	8e5d                	or	a2,a2,a5
    7fd2:	84b6                	mv	s1,a3
    7fd4:	00385793          	srli	a5,a6,0x3
    7fd8:	4301                	li	t1,0
    7fda:	10074663          	bltz	a4,80e6 <__subdf3+0x63c>
    7fde:	4341                	li	t1,16
    7fe0:	a219                	j	80e6 <__subdf3+0x63c>
    7fe2:	1505                	addi	a0,a0,-31
    7fe4:	02000693          	li	a3,32
    7fe8:	00a7d533          	srl	a0,a5,a0
    7fec:	00d70a63          	beq	a4,a3,8000 <__subdf3+0x556>
    7ff0:	04000693          	li	a3,64
    7ff4:	40e68733          	sub	a4,a3,a4
    7ff8:	00e797b3          	sll	a5,a5,a4
    7ffc:	00fa6a33          	or	s4,s4,a5
    8000:	014037b3          	snez	a5,s4
    8004:	8fc9                	or	a5,a5,a0
    8006:	893e                	mv	s2,a5
    8008:	4701                	li	a4,0
    800a:	b6c9                	j	7bcc <__subdf3+0x122>
    800c:	00b86833          	or	a6,a6,a1
    8010:	01003633          	snez	a2,a6
    8014:	01c60933          	add	s2,a2,t3
    8018:	01c93633          	sltu	a2,s2,t3
    801c:	9732                	add	a4,a4,a2
    801e:	00871793          	slli	a5,a4,0x8
    8022:	de07dee3          	bgez	a5,7e1e <__subdf3+0x374>
    8026:	0405                	addi	s0,s0,1
    8028:	7ff00793          	li	a5,2047
    802c:	08f40363          	beq	s0,a5,80b2 <__subdf3+0x608>
    8030:	ff8007b7          	lui	a5,0xff800
    8034:	17fd                	addi	a5,a5,-1
    8036:	8ff9                	and	a5,a5,a4
    8038:	00197613          	andi	a2,s2,1
    803c:	00195713          	srli	a4,s2,0x1
    8040:	8e59                	or	a2,a2,a4
    8042:	01f79913          	slli	s2,a5,0x1f
    8046:	00c96933          	or	s2,s2,a2
    804a:	0017d713          	srli	a4,a5,0x1
    804e:	00797793          	andi	a5,s2,7
    8052:	bbe1                	j	7e2a <__subdf3+0x380>
    8054:	fe030613          	addi	a2,t1,-32 # 7fffe0 <_data_lma+0x7f6c64>
    8058:	02000793          	li	a5,32
    805c:	00c85633          	srl	a2,a6,a2
    8060:	00f30a63          	beq	t1,a5,8074 <__subdf3+0x5ca>
    8064:	04000793          	li	a5,64
    8068:	40678333          	sub	t1,a5,t1
    806c:	00681833          	sll	a6,a6,t1
    8070:	0105e5b3          	or	a1,a1,a6
    8074:	00b035b3          	snez	a1,a1
    8078:	8e4d                	or	a2,a2,a1
    807a:	b4cd                	j	7b5c <__subdf3+0xb2>
    807c:	01c76633          	or	a2,a4,t3
    8080:	00c03633          	snez	a2,a2
    8084:	40c58933          	sub	s2,a1,a2
    8088:	0125b7b3          	sltu	a5,a1,s2
    808c:	40f80733          	sub	a4,a6,a5
    8090:	8446                	mv	s0,a7
    8092:	84b6                	mv	s1,a3
    8094:	bcc9                	j	7b66 <__subdf3+0xbc>
    8096:	01c766b3          	or	a3,a4,t3
    809a:	28068963          	beqz	a3,832c <__subdf3+0x882>
    809e:	fff78693          	addi	a3,a5,-1 # ff7fffff <_eusrstack+0xdf7f7fff>
    80a2:	38068b63          	beqz	a3,8438 <__subdf3+0x98e>
    80a6:	7ff00513          	li	a0,2047
    80aa:	40a78e63          	beq	a5,a0,84c6 <__subdf3+0xa1c>
    80ae:	87b6                	mv	a5,a3
    80b0:	bd75                	j	7f6c <__subdf3+0x4c2>
    80b2:	20098363          	beqz	s3,82b8 <__subdf3+0x80e>
    80b6:	478d                	li	a5,3
    80b8:	3ef98b63          	beq	s3,a5,84ae <__subdf3+0xa04>
    80bc:	4789                	li	a5,2
    80be:	3cf98f63          	beq	s3,a5,849c <__subdf3+0x9f2>
    80c2:	44099063          	bnez	s3,8502 <__subdf3+0xa58>
    80c6:	7fe00413          	li	s0,2046
    80ca:	4701                	li	a4,0
    80cc:	490d                	li	s2,3
    80ce:	4315                	li	t1,5
    80d0:	01d71793          	slli	a5,a4,0x1d
    80d4:	00395613          	srli	a2,s2,0x3
    80d8:	7ff00693          	li	a3,2047
    80dc:	8e5d                	or	a2,a2,a5
    80de:	00375793          	srli	a5,a4,0x3
    80e2:	c4d418e3          	bne	s0,a3,7d32 <__subdf3+0x288>
    80e6:	8fd1                	or	a5,a5,a2
    80e8:	e2078ae3          	beqz	a5,7f1c <__subdf3+0x472>
    80ec:	4481                	li	s1,0
    80ee:	7ff00413          	li	s0,2047
    80f2:	000807b7          	lui	a5,0x80
    80f6:	4601                	li	a2,0
    80f8:	beb9                	j	7c56 <__subdf3+0x1ac>
    80fa:	02000793          	li	a5,32
    80fe:	406787b3          	sub	a5,a5,t1
    8102:	0065d933          	srl	s2,a1,t1
    8106:	00f81633          	sll	a2,a6,a5
    810a:	00f595b3          	sll	a1,a1,a5
    810e:	01266633          	or	a2,a2,s2
    8112:	00685333          	srl	t1,a6,t1
    8116:	00b03933          	snez	s2,a1
    811a:	01266633          	or	a2,a2,s2
    811e:	971a                	add	a4,a4,t1
    8120:	bdd5                	j	8014 <__subdf3+0x56a>
    8122:	00be0933          	add	s2,t3,a1
    8126:	010707b3          	add	a5,a4,a6
    812a:	01c93633          	sltu	a2,s2,t3
    812e:	00c78733          	add	a4,a5,a2
    8132:	00871793          	slli	a5,a4,0x8
    8136:	4405                	li	s0,1
    8138:	ce07d7e3          	bgez	a5,7e26 <__subdf3+0x37c>
    813c:	ff8007b7          	lui	a5,0xff800
    8140:	17fd                	addi	a5,a5,-1
    8142:	8ff9                	and	a5,a5,a4
    8144:	00195613          	srli	a2,s2,0x1
    8148:	01f79913          	slli	s2,a5,0x1f
    814c:	00c96933          	or	s2,s2,a2
    8150:	0017d713          	srli	a4,a5,0x1
    8154:	4409                	li	s0,2
    8156:	00797793          	andi	a5,s2,7
    815a:	b9c1                	j	7e2a <__subdf3+0x380>
    815c:	00536313          	ori	t1,t1,5
    8160:	ce0487e3          	beqz	s1,7e4e <__subdf3+0x3a4>
    8164:	bb65                	j	7f1c <__subdf3+0x472>
    8166:	7ff00793          	li	a5,2047
    816a:	2ef40063          	beq	s0,a5,844a <__subdf3+0x9a0>
    816e:	1ef88863          	beq	a7,a5,835e <__subdf3+0x8b4>
    8172:	1e068c63          	beqz	a3,836a <__subdf3+0x8c0>
    8176:	00b86833          	or	a6,a6,a1
    817a:	f60819e3          	bnez	a6,80ec <__subdf3+0x642>
    817e:	00351613          	slli	a2,a0,0x3
    8182:	01d71793          	slli	a5,a4,0x1d
    8186:	820d                	srli	a2,a2,0x3
    8188:	8e5d                	or	a2,a2,a5
    818a:	00375793          	srli	a5,a4,0x3
    818e:	bfa1                	j	80e6 <__subdf3+0x63c>
    8190:	16078b63          	beqz	a5,8306 <__subdf3+0x85c>
    8194:	4781                	li	a5,0
    8196:	8742                	mv	a4,a6
    8198:	8e2e                	mv	t3,a1
    819a:	84b6                	mv	s1,a3
    819c:	8972                	mv	s2,t3
    819e:	bc1d                	j	7bd4 <__subdf3+0x12a>
    81a0:	01c76633          	or	a2,a4,t3
    81a4:	c20d                	beqz	a2,81c6 <__subdf3+0x71c>
    81a6:	00400337          	lui	t1,0x400
    81aa:	050e                	slli	a0,a0,0x3
    81ac:	00677333          	and	t1,a4,t1
    81b0:	01d71613          	slli	a2,a4,0x1d
    81b4:	810d                	srli	a0,a0,0x3
    81b6:	00133313          	seqz	t1,t1
    81ba:	8e49                	or	a2,a2,a0
    81bc:	00375793          	srli	a5,a4,0x3
    81c0:	0312                	slli	t1,t1,0x4
    81c2:	b715                	j	80e6 <__subdf3+0x63c>
    81c4:	84b6                	mv	s1,a3
    81c6:	4301                	li	t1,0
    81c8:	bb91                	j	7f1c <__subdf3+0x472>
    81ca:	40be0933          	sub	s2,t3,a1
    81ce:	410707b3          	sub	a5,a4,a6
    81d2:	012e3633          	sltu	a2,t3,s2
    81d6:	40c78733          	sub	a4,a5,a2
    81da:	00871793          	slli	a5,a4,0x8
    81de:	4405                	li	s0,1
    81e0:	9807c7e3          	bltz	a5,7b6e <__subdf3+0xc4>
    81e4:	b189                	j	7e26 <__subdf3+0x37c>
    81e6:	01c76633          	or	a2,a4,t3
    81ea:	de71                	beqz	a2,81c6 <__subdf3+0x71c>
    81ec:	00400337          	lui	t1,0x400
    81f0:	00351613          	slli	a2,a0,0x3
    81f4:	00677333          	and	t1,a4,t1
    81f8:	01d71793          	slli	a5,a4,0x1d
    81fc:	820d                	srli	a2,a2,0x3
    81fe:	00133313          	seqz	t1,t1
    8202:	8e5d                	or	a2,a2,a5
    8204:	0312                	slli	t1,t1,0x4
    8206:	00375793          	srli	a5,a4,0x3
    820a:	bdf1                	j	80e6 <__subdf3+0x63c>
    820c:	01c767b3          	or	a5,a4,t3
    8210:	ebcd                	bnez	a5,82c2 <__subdf3+0x818>
    8212:	4701                	li	a4,0
    8214:	4e01                	li	t3,0
    8216:	4301                	li	t1,0
    8218:	01d71793          	slli	a5,a4,0x1d
    821c:	003e5613          	srli	a2,t3,0x3
    8220:	8e5d                	or	a2,a2,a5
    8222:	00375793          	srli	a5,a4,0x3
    8226:	b5c1                	j	80e6 <__subdf3+0x63c>
    8228:	00f5f613          	andi	a2,a1,15
    822c:	4511                	li	a0,4
    822e:	9ca607e3          	beq	a2,a0,7bfc <__subdf3+0x152>
    8232:	ffc5b593          	sltiu	a1,a1,-4
    8236:	0015c593          	xori	a1,a1,1
    823a:	96ae                	add	a3,a3,a1
    823c:	b2c1                	j	7bfc <__subdf3+0x152>
    823e:	9a049fe3          	bnez	s1,7bfc <__subdf3+0x152>
    8242:	ff85b613          	sltiu	a2,a1,-8
    8246:	00164613          	xori	a2,a2,1
    824a:	96b2                	add	a3,a3,a2
    824c:	ba45                	j	7bfc <__subdf3+0x152>
    824e:	4305                	li	t1,1
    8250:	9a0486e3          	beqz	s1,7bfc <__subdf3+0x152>
    8254:	b7fd                	j	8242 <__subdf3+0x798>
    8256:	7ff00793          	li	a5,2047
    825a:	0ef68163          	beq	a3,a5,833c <__subdf3+0x892>
    825e:	95f2                	add	a1,a1,t3
    8260:	010707b3          	add	a5,a4,a6
    8264:	01c5b733          	sltu	a4,a1,t3
    8268:	97ba                	add	a5,a5,a4
    826a:	01f79613          	slli	a2,a5,0x1f
    826e:	8185                	srli	a1,a1,0x1
    8270:	00b66933          	or	s2,a2,a1
    8274:	0017d713          	srli	a4,a5,0x1
    8278:	8436                	mv	s0,a3
    827a:	00797793          	andi	a5,s2,7
    827e:	b675                	j	7e2a <__subdf3+0x380>
    8280:	41c58933          	sub	s2,a1,t3
    8284:	40e80833          	sub	a6,a6,a4
    8288:	0125b5b3          	sltu	a1,a1,s2
    828c:	40b80a33          	sub	s4,a6,a1
    8290:	84b6                	mv	s1,a3
    8292:	b0d5                	j	7b76 <__subdf3+0xcc>
    8294:	7ff00593          	li	a1,2047
    8298:	0eb40163          	beq	s0,a1,837a <__subdf3+0x8d0>
    829c:	0eb88a63          	beq	a7,a1,8390 <__subdf3+0x8e6>
    82a0:	c60e82e3          	beqz	t4,7f04 <__subdf3+0x45a>
    82a4:	e40794e3          	bnez	a5,80ec <__subdf3+0x642>
    82a8:	050e                	slli	a0,a0,0x3
    82aa:	01d71613          	slli	a2,a4,0x1d
    82ae:	810d                	srli	a0,a0,0x3
    82b0:	8e49                	or	a2,a2,a0
    82b2:	00375793          	srli	a5,a4,0x3
    82b6:	bd05                	j	80e6 <__subdf3+0x63c>
    82b8:	4315                	li	t1,5
    82ba:	b18d                	j	7f1c <__subdf3+0x472>
    82bc:	01c767b3          	or	a5,a4,t3
    82c0:	d399                	beqz	a5,81c6 <__subdf3+0x71c>
    82c2:	00400337          	lui	t1,0x400
    82c6:	00677333          	and	t1,a4,t1
    82ca:	00133313          	seqz	t1,t1
    82ce:	0312                	slli	t1,t1,0x4
    82d0:	b7a1                	j	8218 <__subdf3+0x76e>
    82d2:	01c76633          	or	a2,a4,t3
    82d6:	00c03633          	snez	a2,a2
    82da:	b1c9                	j	7f9c <__subdf3+0x4f2>
    82dc:	fe078613          	addi	a2,a5,-32 # ff7fffe0 <_eusrstack+0xdf7f7fe0>
    82e0:	02000513          	li	a0,32
    82e4:	00c75933          	srl	s2,a4,a2
    82e8:	00a78a63          	beq	a5,a0,82fc <__subdf3+0x852>
    82ec:	04000613          	li	a2,64
    82f0:	40f607b3          	sub	a5,a2,a5
    82f4:	00f717b3          	sll	a5,a4,a5
    82f8:	00fe6e33          	or	t3,t3,a5
    82fc:	01c03633          	snez	a2,t3
    8300:	01266633          	or	a2,a2,s2
    8304:	b341                	j	8084 <__subdf3+0x5da>
    8306:	ffe98493          	addi	s1,s3,-2
    830a:	0014b493          	seqz	s1,s1
    830e:	4601                	li	a2,0
    8310:	b40d                	j	7d32 <__subdf3+0x288>
    8312:	41c58933          	sub	s2,a1,t3
    8316:	40e807b3          	sub	a5,a6,a4
    831a:	0125b5b3          	sltu	a1,a1,s2
    831e:	40b78733          	sub	a4,a5,a1
    8322:	84b6                	mv	s1,a3
    8324:	bd5d                	j	81da <__subdf3+0x730>
    8326:	8742                	mv	a4,a6
    8328:	892e                	mv	s2,a1
    832a:	b04d                	j	7bcc <__subdf3+0x122>
    832c:	7ff00713          	li	a4,2047
    8330:	0ee78863          	beq	a5,a4,8420 <__subdf3+0x976>
    8334:	8742                	mv	a4,a6
    8336:	892e                	mv	s2,a1
    8338:	843e                	mv	s0,a5
    833a:	b4d5                	j	7e1e <__subdf3+0x374>
    833c:	f6098ee3          	beqz	s3,82b8 <__subdf3+0x80e>
    8340:	478d                	li	a5,3
    8342:	1cf98563          	beq	s3,a5,850c <__subdf3+0xa62>
    8346:	4789                	li	a5,2
    8348:	14f98a63          	beq	s3,a5,849c <__subdf3+0x9f2>
    834c:	1a099b63          	bnez	s3,8502 <__subdf3+0xa58>
    8350:	4501                	li	a0,0
    8352:	4315                	li	t1,5
    8354:	7fe00413          	li	s0,2046
    8358:	577d                	li	a4,-1
    835a:	597d                	li	s2,-1
    835c:	be09                	j	7e6e <__subdf3+0x3c4>
    835e:	00b865b3          	or	a1,a6,a1
    8362:	10059263          	bnez	a1,8466 <__subdf3+0x9bc>
    8366:	e0069ce3          	bnez	a3,817e <__subdf3+0x6d4>
    836a:	060e                	slli	a2,a2,0x3
    836c:	01d81793          	slli	a5,a6,0x1d
    8370:	820d                	srli	a2,a2,0x3
    8372:	8e5d                	or	a2,a2,a5
    8374:	00385793          	srli	a5,a6,0x3
    8378:	b3bd                	j	80e6 <__subdf3+0x63c>
    837a:	b80e83e3          	beqz	t4,7f00 <__subdf3+0x456>
    837e:	00971593          	slli	a1,a4,0x9
    8382:	0005c363          	bltz	a1,8388 <__subdf3+0x8de>
    8386:	4341                	li	t1,16
    8388:	7ff00593          	li	a1,2047
    838c:	f0b89ce3          	bne	a7,a1,82a4 <__subdf3+0x7fa>
    8390:	12078863          	beqz	a5,84c0 <__subdf3+0xa16>
    8394:	00981793          	slli	a5,a6,0x9
    8398:	0007c363          	bltz	a5,839e <__subdf3+0x8f4>
    839c:	4341                	li	t1,16
    839e:	d40e97e3          	bnez	t4,80ec <__subdf3+0x642>
    83a2:	00361793          	slli	a5,a2,0x3
    83a6:	838d                	srli	a5,a5,0x3
    83a8:	01d81613          	slli	a2,a6,0x1d
    83ac:	8e5d                	or	a2,a2,a5
    83ae:	84b6                	mv	s1,a3
    83b0:	00385793          	srli	a5,a6,0x3
    83b4:	bb0d                	j	80e6 <__subdf3+0x63c>
    83b6:	00c567b3          	or	a5,a0,a2
    83ba:	d7b1                	beqz	a5,8306 <__subdf3+0x85c>
    83bc:	8e2a                	mv	t3,a0
    83be:	00757793          	andi	a5,a0,7
    83c2:	8732                	mv	a4,a2
    83c4:	8972                	mv	s2,t3
    83c6:	b039                	j	7bd4 <__subdf3+0x12a>
    83c8:	00b865b3          	or	a1,a6,a1
    83cc:	de058ce3          	beqz	a1,81c4 <__subdf3+0x71a>
    83d0:	00361793          	slli	a5,a2,0x3
    83d4:	838d                	srli	a5,a5,0x3
    83d6:	01d81613          	slli	a2,a6,0x1d
    83da:	becd                	j	7fcc <__subdf3+0x522>
    83dc:	fe078613          	addi	a2,a5,-32
    83e0:	02000693          	li	a3,32
    83e4:	00c75933          	srl	s2,a4,a2
    83e8:	00d78a63          	beq	a5,a3,83fc <__subdf3+0x952>
    83ec:	04000693          	li	a3,64
    83f0:	40f687b3          	sub	a5,a3,a5
    83f4:	00f717b3          	sll	a5,a4,a5
    83f8:	00fe6e33          	or	t3,t3,a5
    83fc:	01c03633          	snez	a2,t3
    8400:	01266633          	or	a2,a2,s2
    8404:	be61                	j	7f9c <__subdf3+0x4f2>
    8406:	00b86e33          	or	t3,a6,a1
    840a:	0e0e0263          	beqz	t3,84ee <__subdf3+0xa44>
    840e:	00981793          	slli	a5,a6,0x9
    8412:	8742                	mv	a4,a6
    8414:	8e2e                	mv	t3,a1
    8416:	84b6                	mv	s1,a3
    8418:	0007ce63          	bltz	a5,8434 <__subdf3+0x98a>
    841c:	4341                	li	t1,16
    841e:	bbed                	j	8218 <__subdf3+0x76e>
    8420:	00b86e33          	or	t3,a6,a1
    8424:	0e0e0163          	beqz	t3,8506 <__subdf3+0xa5c>
    8428:	00981793          	slli	a5,a6,0x9
    842c:	8742                	mv	a4,a6
    842e:	8e2e                	mv	t3,a1
    8430:	fe07d6e3          	bgez	a5,841c <__subdf3+0x972>
    8434:	4301                	li	t1,0
    8436:	b3cd                	j	8218 <__subdf3+0x76e>
    8438:	00be0933          	add	s2,t3,a1
    843c:	010707b3          	add	a5,a4,a6
    8440:	00b935b3          	sltu	a1,s2,a1
    8444:	00b78733          	add	a4,a5,a1
    8448:	b1ed                	j	8132 <__subdf3+0x688>
    844a:	c6d5                	beqz	a3,84f6 <__subdf3+0xa4c>
    844c:	00971793          	slli	a5,a4,0x9
    8450:	0007c363          	bltz	a5,8456 <__subdf3+0x9ac>
    8454:	4341                	li	t1,16
    8456:	7ff00793          	li	a5,2047
    845a:	d0f89ee3          	bne	a7,a5,8176 <__subdf3+0x6cc>
    845e:	00b865b3          	or	a1,a6,a1
    8462:	d0058ee3          	beqz	a1,817e <__subdf3+0x6d4>
    8466:	00981793          	slli	a5,a6,0x9
    846a:	0007c363          	bltz	a5,8470 <__subdf3+0x9c6>
    846e:	4341                	li	t1,16
    8470:	ee068de3          	beqz	a3,836a <__subdf3+0x8c0>
    8474:	b9a5                	j	80ec <__subdf3+0x642>
    8476:	00b865b3          	or	a1,a6,a1
    847a:	d40586e3          	beqz	a1,81c6 <__subdf3+0x71c>
    847e:	00400337          	lui	t1,0x400
    8482:	060e                	slli	a2,a2,0x3
    8484:	00687333          	and	t1,a6,t1
    8488:	01d81793          	slli	a5,a6,0x1d
    848c:	820d                	srli	a2,a2,0x3
    848e:	00133313          	seqz	t1,t1
    8492:	8e5d                	or	a2,a2,a5
    8494:	0312                	slli	t1,t1,0x4
    8496:	00385793          	srli	a5,a6,0x3
    849a:	b1b1                	j	80e6 <__subdf3+0x63c>
    849c:	e0049ee3          	bnez	s1,82b8 <__subdf3+0x80e>
    84a0:	7fe00413          	li	s0,2046
    84a4:	577d                	li	a4,-1
    84a6:	597d                	li	s2,-1
    84a8:	4315                	li	t1,5
    84aa:	f84ff06f          	j	7c2e <__subdf3+0x184>
    84ae:	e00485e3          	beqz	s1,82b8 <__subdf3+0x80e>
    84b2:	7fe00413          	li	s0,2046
    84b6:	4501                	li	a0,0
    84b8:	597d                	li	s2,-1
    84ba:	577d                	li	a4,-1
    84bc:	4315                	li	t1,5
    84be:	b2ed                	j	7ea8 <__subdf3+0x3fe>
    84c0:	a40e84e3          	beqz	t4,7f08 <__subdf3+0x45e>
    84c4:	b3d5                	j	82a8 <__subdf3+0x7fe>
    84c6:	00b865b3          	or	a1,a6,a1
    84ca:	ce058ee3          	beqz	a1,81c6 <__subdf3+0x71c>
    84ce:	00400337          	lui	t1,0x400
    84d2:	00361793          	slli	a5,a2,0x3
    84d6:	00687333          	and	t1,a6,t1
    84da:	838d                	srli	a5,a5,0x3
    84dc:	01d81613          	slli	a2,a6,0x1d
    84e0:	00133313          	seqz	t1,t1
    84e4:	8e5d                	or	a2,a2,a5
    84e6:	0312                	slli	t1,t1,0x4
    84e8:	00385793          	srli	a5,a6,0x3
    84ec:	beed                	j	80e6 <__subdf3+0x63c>
    84ee:	4701                	li	a4,0
    84f0:	84b6                	mv	s1,a3
    84f2:	4301                	li	t1,0
    84f4:	b315                	j	8218 <__subdf3+0x76e>
    84f6:	e6889ae3          	bne	a7,s0,836a <__subdf3+0x8c0>
    84fa:	00b865b3          	or	a1,a6,a1
    84fe:	f5a5                	bnez	a1,8466 <__subdf3+0x9bc>
    8500:	b5ad                	j	836a <__subdf3+0x8c0>
    8502:	4315                	li	t1,5
    8504:	ba2d                	j	7e3e <__subdf3+0x394>
    8506:	4701                	li	a4,0
    8508:	4301                	li	t1,0
    850a:	b339                	j	8218 <__subdf3+0x76e>
    850c:	da0486e3          	beqz	s1,82b8 <__subdf3+0x80e>
    8510:	4501                	li	a0,0
    8512:	7fe00413          	li	s0,2046
    8516:	597d                	li	s2,-1
    8518:	577d                	li	a4,-1
    851a:	4315                	li	t1,5
    851c:	b271                	j	7ea8 <__subdf3+0x3fe>
    851e:	008005b7          	lui	a1,0x800
    8522:	8df9                	and	a1,a1,a4
    8524:	4401                	li	s0,0
    8526:	f0069263          	bnez	a3,7c2a <__subdf3+0x180>
    852a:	f0030063          	beqz	t1,7c2a <__subdf3+0x180>
    852e:	00236313          	ori	t1,t1,2
    8532:	ef8ff06f          	j	7c2a <__subdf3+0x180>

00008536 <__unorddf2>:
    8536:	832a                	mv	t1,a0
    8538:	002027f3          	frrm	a5
    853c:	001007b7          	lui	a5,0x100
    8540:	0145d713          	srli	a4,a1,0x14
    8544:	17fd                	addi	a5,a5,-1
    8546:	0146d813          	srli	a6,a3,0x14
    854a:	7ff77713          	andi	a4,a4,2047
    854e:	7ff00893          	li	a7,2047
    8552:	8dfd                	and	a1,a1,a5
    8554:	8ff5                	and	a5,a5,a3
    8556:	7ff87693          	andi	a3,a6,2047
    855a:	03170563          	beq	a4,a7,8584 <__unorddf2+0x4e>
    855e:	7ff00813          	li	a6,2047
    8562:	4501                	li	a0,0
    8564:	01068363          	beq	a3,a6,856a <__unorddf2+0x34>
    8568:	8082                	ret
    856a:	8e5d                	or	a2,a2,a5
    856c:	c61d                	beqz	a2,859a <__unorddf2+0x64>
    856e:	02d70763          	beq	a4,a3,859c <__unorddf2+0x66>
    8572:	00c79713          	slli	a4,a5,0xc
    8576:	4505                	li	a0,1
    8578:	fe0748e3          	bltz	a4,8568 <__unorddf2+0x32>
    857c:	00186073          	csrsi	fflags,16
    8580:	4505                	li	a0,1
    8582:	8082                	ret
    8584:	8d4d                	or	a0,a0,a1
    8586:	dd61                	beqz	a0,855e <__unorddf2+0x28>
    8588:	00c59513          	slli	a0,a1,0xc
    858c:	fe0558e3          	bgez	a0,857c <__unorddf2+0x46>
    8590:	4505                	li	a0,1
    8592:	fce69be3          	bne	a3,a4,8568 <__unorddf2+0x32>
    8596:	8e5d                	or	a2,a2,a5
    8598:	a811                	j	85ac <__unorddf2+0x76>
    859a:	8082                	ret
    859c:	0065e333          	or	t1,a1,t1
    85a0:	fc0309e3          	beqz	t1,8572 <__unorddf2+0x3c>
    85a4:	00c59713          	slli	a4,a1,0xc
    85a8:	fc075ae3          	bgez	a4,857c <__unorddf2+0x46>
    85ac:	4505                	li	a0,1
    85ae:	f271                	bnez	a2,8572 <__unorddf2+0x3c>
    85b0:	8082                	ret

000085b2 <__extendsfdf2>:
    85b2:	1141                	addi	sp,sp,-16
    85b4:	c606                	sw	ra,12(sp)
    85b6:	c422                	sw	s0,8(sp)
    85b8:	c226                	sw	s1,4(sp)
    85ba:	e00507d3          	fmv.x.w	a5,fa0
    85be:	00202773          	frrm	a4
    85c2:	0177d513          	srli	a0,a5,0x17
    85c6:	0ff57513          	andi	a0,a0,255
    85ca:	00150713          	addi	a4,a0,1 # 800001 <_data_lma+0x7f6c85>
    85ce:	00979413          	slli	s0,a5,0x9
    85d2:	0fe77713          	andi	a4,a4,254
    85d6:	8025                	srli	s0,s0,0x9
    85d8:	01f7d493          	srli	s1,a5,0x1f
    85dc:	c31d                	beqz	a4,8602 <__extendsfdf2+0x50>
    85de:	00345793          	srli	a5,s0,0x3
    85e2:	38050513          	addi	a0,a0,896
    85e6:	0476                	slli	s0,s0,0x1d
    85e8:	07b2                	slli	a5,a5,0xc
    85ea:	0552                	slli	a0,a0,0x14
    85ec:	83b1                	srli	a5,a5,0xc
    85ee:	8fc9                	or	a5,a5,a0
    85f0:	04fe                	slli	s1,s1,0x1f
    85f2:	8fc5                	or	a5,a5,s1
    85f4:	8522                	mv	a0,s0
    85f6:	85be                	mv	a1,a5
    85f8:	40b2                	lw	ra,12(sp)
    85fa:	4422                	lw	s0,8(sp)
    85fc:	4492                	lw	s1,4(sp)
    85fe:	0141                	addi	sp,sp,16
    8600:	8082                	ret
    8602:	e90d                	bnez	a0,8634 <__extendsfdf2+0x82>
    8604:	c435                	beqz	s0,8670 <__extendsfdf2+0xbe>
    8606:	8522                	mv	a0,s0
    8608:	2e45                	jal	89b8 <__clzsi2>
    860a:	47a9                	li	a5,10
    860c:	08a7c163          	blt	a5,a0,868e <__extendsfdf2+0xdc>
    8610:	472d                	li	a4,11
    8612:	8f09                	sub	a4,a4,a0
    8614:	01550793          	addi	a5,a0,21
    8618:	00e45733          	srl	a4,s0,a4
    861c:	00f41433          	sll	s0,s0,a5
    8620:	00c71793          	slli	a5,a4,0xc
    8624:	38900713          	li	a4,905
    8628:	40a70533          	sub	a0,a4,a0
    862c:	83b1                	srli	a5,a5,0xc
    862e:	7ff57513          	andi	a0,a0,2047
    8632:	bf5d                	j	85e8 <__extendsfdf2+0x36>
    8634:	c815                	beqz	s0,8668 <__extendsfdf2+0xb6>
    8636:	00080737          	lui	a4,0x80
    863a:	00345793          	srli	a5,s0,0x3
    863e:	8fd9                	or	a5,a5,a4
    8640:	00100737          	lui	a4,0x100
    8644:	177d                	addi	a4,a4,-1
    8646:	00941613          	slli	a2,s0,0x9
    864a:	01d41693          	slli	a3,s0,0x1d
    864e:	8ff9                	and	a5,a5,a4
    8650:	02065363          	bgez	a2,8676 <__extendsfdf2+0xc4>
    8654:	8f7d                	and	a4,a4,a5
    8656:	01f49793          	slli	a5,s1,0x1f
    865a:	7ff004b7          	lui	s1,0x7ff00
    865e:	8cd9                	or	s1,s1,a4
    8660:	8fc5                	or	a5,a5,s1
    8662:	8536                	mv	a0,a3
    8664:	85be                	mv	a1,a5
    8666:	bf49                	j	85f8 <__extendsfdf2+0x46>
    8668:	7ff00513          	li	a0,2047
    866c:	4781                	li	a5,0
    866e:	bfad                	j	85e8 <__extendsfdf2+0x36>
    8670:	4501                	li	a0,0
    8672:	4781                	li	a5,0
    8674:	bf95                	j	85e8 <__extendsfdf2+0x36>
    8676:	8f7d                	and	a4,a4,a5
    8678:	01f49793          	slli	a5,s1,0x1f
    867c:	7ff004b7          	lui	s1,0x7ff00
    8680:	8f45                	or	a4,a4,s1
    8682:	8fd9                	or	a5,a5,a4
    8684:	8536                	mv	a0,a3
    8686:	85be                	mv	a1,a5
    8688:	00186073          	csrsi	fflags,16
    868c:	b7b5                	j	85f8 <__extendsfdf2+0x46>
    868e:	ff550713          	addi	a4,a0,-11
    8692:	00e41733          	sll	a4,s0,a4
    8696:	4401                	li	s0,0
    8698:	b761                	j	8620 <__extendsfdf2+0x6e>

0000869a <__truncdfsf2>:
    869a:	002028f3          	frrm	a7
    869e:	0145d693          	srli	a3,a1,0x14
    86a2:	00c59713          	slli	a4,a1,0xc
    86a6:	7ff6f693          	andi	a3,a3,2047
    86aa:	8331                	srli	a4,a4,0xc
    86ac:	00168813          	addi	a6,a3,1 # 10001 <_data_lma+0x6c85>
    86b0:	070e                	slli	a4,a4,0x3
    86b2:	01d55613          	srli	a2,a0,0x1d
    86b6:	7fe87813          	andi	a6,a6,2046
    86ba:	81fd                	srli	a1,a1,0x1f
    86bc:	8f51                	or	a4,a4,a2
    86be:	00351793          	slli	a5,a0,0x3
    86c2:	0a080b63          	beqz	a6,8778 <__truncdfsf2+0xde>
    86c6:	c8068613          	addi	a2,a3,-896
    86ca:	0fe00813          	li	a6,254
    86ce:	02c85f63          	bge	a6,a2,870c <__truncdfsf2+0x72>
    86d2:	12088f63          	beqz	a7,8810 <__truncdfsf2+0x176>
    86d6:	478d                	li	a5,3
    86d8:	26f88063          	beq	a7,a5,8938 <__truncdfsf2+0x29e>
    86dc:	4789                	li	a5,2
    86de:	26f88763          	beq	a7,a5,894c <__truncdfsf2+0x2b2>
    86e2:	26089663          	bnez	a7,894e <__truncdfsf2+0x2b4>
    86e6:	0fe00613          	li	a2,254
    86ea:	470d                	li	a4,3
    86ec:	4515                	li	a0,5
    86ee:	071a                	slli	a4,a4,0x6
    86f0:	8325                	srli	a4,a4,0x9
    86f2:	0ff67613          	andi	a2,a2,255
    86f6:	00971793          	slli	a5,a4,0x9
    86fa:	065e                	slli	a2,a2,0x17
    86fc:	83a5                	srli	a5,a5,0x9
    86fe:	05fe                	slli	a1,a1,0x1f
    8700:	8fd1                	or	a5,a5,a2
    8702:	8fcd                	or	a5,a5,a1
    8704:	e53d                	bnez	a0,8772 <__truncdfsf2+0xd8>
    8706:	f0078553          	fmv.w.x	fa0,a5
    870a:	8082                	ret
    870c:	10c05a63          	blez	a2,8820 <__truncdfsf2+0x186>
    8710:	051a                	slli	a0,a0,0x6
    8712:	00a03533          	snez	a0,a0
    8716:	070e                	slli	a4,a4,0x3
    8718:	83f5                	srli	a5,a5,0x1d
    871a:	8f49                	or	a4,a4,a0
    871c:	8f5d                	or	a4,a4,a5
    871e:	00777793          	andi	a5,a4,7
    8722:	4501                	li	a0,0
    8724:	d7e9                	beqz	a5,86ee <__truncdfsf2+0x54>
    8726:	4789                	li	a5,2
    8728:	1ef88e63          	beq	a7,a5,8924 <__truncdfsf2+0x28a>
    872c:	478d                	li	a5,3
    872e:	16f88863          	beq	a7,a5,889e <__truncdfsf2+0x204>
    8732:	4781                	li	a5,0
    8734:	4505                	li	a0,1
    8736:	fa089ce3          	bnez	a7,86ee <__truncdfsf2+0x54>
    873a:	00f77693          	andi	a3,a4,15
    873e:	4811                	li	a6,4
    8740:	4505                	li	a0,1
    8742:	01068463          	beq	a3,a6,874a <__truncdfsf2+0xb0>
    8746:	0711                	addi	a4,a4,4
    8748:	4505                	li	a0,1
    874a:	c399                	beqz	a5,8750 <__truncdfsf2+0xb6>
    874c:	00256513          	ori	a0,a0,2
    8750:	00571793          	slli	a5,a4,0x5
    8754:	f807dde3          	bgez	a5,86ee <__truncdfsf2+0x54>
    8758:	0605                	addi	a2,a2,1
    875a:	0ff00793          	li	a5,255
    875e:	f8f618e3          	bne	a2,a5,86ee <__truncdfsf2+0x54>
    8762:	00556513          	ori	a0,a0,5
    8766:	10089c63          	bnez	a7,887e <__truncdfsf2+0x1e4>
    876a:	05fe                	slli	a1,a1,0x1f
    876c:	7f8007b7          	lui	a5,0x7f800
    8770:	8fcd                	or	a5,a5,a1
    8772:	00152073          	csrs	fflags,a0
    8776:	bf41                	j	8706 <__truncdfsf2+0x6c>
    8778:	00f76633          	or	a2,a4,a5
    877c:	eaa9                	bnez	a3,87ce <__truncdfsf2+0x134>
    877e:	01f59793          	slli	a5,a1,0x1f
    8782:	d251                	beqz	a2,8706 <__truncdfsf2+0x6c>
    8784:	4789                	li	a5,2
    8786:	16f88d63          	beq	a7,a5,8900 <__truncdfsf2+0x266>
    878a:	478d                	li	a5,3
    878c:	14f88563          	beq	a7,a5,88d6 <__truncdfsf2+0x23c>
    8790:	4705                	li	a4,1
    8792:	4789                	li	a5,2
    8794:	4685                	li	a3,1
    8796:	1e088963          	beqz	a7,8988 <__truncdfsf2+0x2ee>
    879a:	83ed                	srli	a5,a5,0x1b
    879c:	0017c793          	xori	a5,a5,1
    87a0:	8b85                	andi	a5,a5,1
    87a2:	4505                	li	a0,1
    87a4:	20068163          	beqz	a3,89a6 <__truncdfsf2+0x30c>
    87a8:	4689                	li	a3,2
    87aa:	18d88563          	beq	a7,a3,8934 <__truncdfsf2+0x29a>
    87ae:	468d                	li	a3,3
    87b0:	16d88863          	beq	a7,a3,8920 <__truncdfsf2+0x286>
    87b4:	4601                	li	a2,0
    87b6:	f80882e3          	beqz	a7,873a <__truncdfsf2+0xa0>
    87ba:	4505                	li	a0,1
    87bc:	10079a63          	bnez	a5,88d0 <__truncdfsf2+0x236>
    87c0:	00571793          	slli	a5,a4,0x5
    87c4:	4605                	li	a2,1
    87c6:	f207c4e3          	bltz	a5,86ee <__truncdfsf2+0x54>
    87ca:	4601                	li	a2,0
    87cc:	b70d                	j	86ee <__truncdfsf2+0x54>
    87ce:	ca15                	beqz	a2,8802 <__truncdfsf2+0x168>
    87d0:	7ff00793          	li	a5,2047
    87d4:	4501                	li	a0,0
    87d6:	00f69863          	bne	a3,a5,87e6 <__truncdfsf2+0x14c>
    87da:	00400637          	lui	a2,0x400
    87de:	8f71                	and	a4,a4,a2
    87e0:	00173513          	seqz	a0,a4
    87e4:	0512                	slli	a0,a0,0x4
    87e6:	00400737          	lui	a4,0x400
    87ea:	0ff00613          	li	a2,255
    87ee:	00971793          	slli	a5,a4,0x9
    87f2:	4581                	li	a1,0
    87f4:	065e                	slli	a2,a2,0x17
    87f6:	83a5                	srli	a5,a5,0x9
    87f8:	05fe                	slli	a1,a1,0x1f
    87fa:	8fd1                	or	a5,a5,a2
    87fc:	8fcd                	or	a5,a5,a1
    87fe:	d501                	beqz	a0,8706 <__truncdfsf2+0x6c>
    8800:	bf8d                	j	8772 <__truncdfsf2+0xd8>
    8802:	05fe                	slli	a1,a1,0x1f
    8804:	7f8007b7          	lui	a5,0x7f800
    8808:	8fcd                	or	a5,a5,a1
    880a:	f0078553          	fmv.w.x	fa0,a5
    880e:	8082                	ret
    8810:	05fe                	slli	a1,a1,0x1f
    8812:	7f8007b7          	lui	a5,0x7f800
    8816:	8fcd                	or	a5,a5,a1
    8818:	4515                	li	a0,5
    881a:	00152073          	csrs	fflags,a0
    881e:	b5e5                	j	8706 <__truncdfsf2+0x6c>
    8820:	5525                	li	a0,-23
    8822:	08a64763          	blt	a2,a0,88b0 <__truncdfsf2+0x216>
    8826:	4579                	li	a0,30
    8828:	00800337          	lui	t1,0x800
    882c:	8d11                	sub	a0,a0,a2
    882e:	487d                	li	a6,31
    8830:	00676733          	or	a4,a4,t1
    8834:	0aa85863          	bge	a6,a0,88e4 <__truncdfsf2+0x24a>
    8838:	5879                	li	a6,-2
    883a:	40c80633          	sub	a2,a6,a2
    883e:	02000813          	li	a6,32
    8842:	00c75633          	srl	a2,a4,a2
    8846:	01050763          	beq	a0,a6,8854 <__truncdfsf2+0x1ba>
    884a:	ca268693          	addi	a3,a3,-862
    884e:	00d716b3          	sll	a3,a4,a3
    8852:	8fd5                	or	a5,a5,a3
    8854:	00f03733          	snez	a4,a5
    8858:	8f51                	or	a4,a4,a2
    885a:	01f59793          	slli	a5,a1,0x1f
    885e:	ea0704e3          	beqz	a4,8706 <__truncdfsf2+0x6c>
    8862:	00171793          	slli	a5,a4,0x1
    8866:	0077f613          	andi	a2,a5,7
    886a:	00777693          	andi	a3,a4,7
    886e:	10061063          	bnez	a2,896e <__truncdfsf2+0x2d4>
    8872:	83ed                	srli	a5,a5,0x1b
    8874:	0017c793          	xori	a5,a5,1
    8878:	8b85                	andi	a5,a5,1
    887a:	4501                	li	a0,0
    887c:	b725                	j	87a4 <__truncdfsf2+0x10a>
    887e:	478d                	li	a5,3
    8880:	0cf88363          	beq	a7,a5,8946 <__truncdfsf2+0x2ac>
    8884:	4789                	li	a5,2
    8886:	08f88463          	beq	a7,a5,890e <__truncdfsf2+0x274>
    888a:	ff000737          	lui	a4,0xff000
    888e:	1779                	addi	a4,a4,-2
    8890:	05fe                	slli	a1,a1,0x1f
    8892:	8305                	srli	a4,a4,0x1
    8894:	00b767b3          	or	a5,a4,a1
    8898:	00152073          	csrs	fflags,a0
    889c:	b5ad                	j	8706 <__truncdfsf2+0x6c>
    889e:	4781                	li	a5,0
    88a0:	852e                	mv	a0,a1
    88a2:	ea0594e3          	bnez	a1,874a <__truncdfsf2+0xb0>
    88a6:	0721                	addi	a4,a4,8
    88a8:	4505                	li	a0,1
    88aa:	ea0791e3          	bnez	a5,874c <__truncdfsf2+0xb2>
    88ae:	b54d                	j	8750 <__truncdfsf2+0xb6>
    88b0:	4709                	li	a4,2
    88b2:	04e88763          	beq	a7,a4,8900 <__truncdfsf2+0x266>
    88b6:	478d                	li	a5,3
    88b8:	00f88f63          	beq	a7,a5,88d6 <__truncdfsf2+0x23c>
    88bc:	04088c63          	beqz	a7,8914 <__truncdfsf2+0x27a>
    88c0:	0ce88f63          	beq	a7,a4,899e <__truncdfsf2+0x304>
    88c4:	0cf88963          	beq	a7,a5,8996 <__truncdfsf2+0x2fc>
    88c8:	4785                	li	a5,1
    88ca:	4705                	li	a4,1
    88cc:	04088863          	beqz	a7,891c <__truncdfsf2+0x282>
    88d0:	853e                	mv	a0,a5
    88d2:	4601                	li	a2,0
    88d4:	bda5                	j	874c <__truncdfsf2+0xb2>
    88d6:	4685                	li	a3,1
    88d8:	4705                	li	a4,1
    88da:	4789                	li	a5,2
    88dc:	ea059fe3          	bnez	a1,879a <__truncdfsf2+0x100>
    88e0:	07a1                	addi	a5,a5,8
    88e2:	bd65                	j	879a <__truncdfsf2+0x100>
    88e4:	c8268693          	addi	a3,a3,-894
    88e8:	00d79633          	sll	a2,a5,a3
    88ec:	00c03633          	snez	a2,a2
    88f0:	00d716b3          	sll	a3,a4,a3
    88f4:	00a7d7b3          	srl	a5,a5,a0
    88f8:	00d66733          	or	a4,a2,a3
    88fc:	8f5d                	or	a4,a4,a5
    88fe:	bfb1                	j	885a <__truncdfsf2+0x1c0>
    8900:	4685                	li	a3,1
    8902:	4705                	li	a4,1
    8904:	4789                	li	a5,2
    8906:	e8058ae3          	beqz	a1,879a <__truncdfsf2+0x100>
    890a:	07a1                	addi	a5,a5,8
    890c:	b579                	j	879a <__truncdfsf2+0x100>
    890e:	ddb5                	beqz	a1,888a <__truncdfsf2+0x1f0>
    8910:	4585                	li	a1,1
    8912:	bda1                	j	876a <__truncdfsf2+0xd0>
    8914:	4705                	li	a4,1
    8916:	4601                	li	a2,0
    8918:	4785                	li	a5,1
    891a:	b505                	j	873a <__truncdfsf2+0xa0>
    891c:	4601                	li	a2,0
    891e:	b525                	j	8746 <__truncdfsf2+0xac>
    8920:	4601                	li	a2,0
    8922:	bfbd                	j	88a0 <__truncdfsf2+0x206>
    8924:	4781                	li	a5,0
    8926:	4505                	li	a0,1
    8928:	e20581e3          	beqz	a1,874a <__truncdfsf2+0xb0>
    892c:	0721                	addi	a4,a4,8
    892e:	e0079fe3          	bnez	a5,874c <__truncdfsf2+0xb2>
    8932:	bd39                	j	8750 <__truncdfsf2+0xb6>
    8934:	4601                	li	a2,0
    8936:	bfc5                	j	8926 <__truncdfsf2+0x28c>
    8938:	e185                	bnez	a1,8958 <__truncdfsf2+0x2be>
    893a:	7f8007b7          	lui	a5,0x7f800
    893e:	4515                	li	a0,5
    8940:	00152073          	csrs	fflags,a0
    8944:	b3c9                	j	8706 <__truncdfsf2+0x6c>
    8946:	e20582e3          	beqz	a1,876a <__truncdfsf2+0xd0>
    894a:	b781                	j	888a <__truncdfsf2+0x1f0>
    894c:	e999                	bnez	a1,8962 <__truncdfsf2+0x2c8>
    894e:	577d                	li	a4,-1
    8950:	0fe00613          	li	a2,254
    8954:	4515                	li	a0,5
    8956:	b509                	j	8758 <__truncdfsf2+0xbe>
    8958:	0fe00613          	li	a2,254
    895c:	577d                	li	a4,-1
    895e:	4515                	li	a0,5
    8960:	bbc5                	j	8750 <__truncdfsf2+0xb6>
    8962:	ff8007b7          	lui	a5,0xff800
    8966:	4515                	li	a0,5
    8968:	00152073          	csrs	fflags,a0
    896c:	bb69                	j	8706 <__truncdfsf2+0x6c>
    896e:	4609                	li	a2,2
    8970:	f8c88be3          	beq	a7,a2,8906 <__truncdfsf2+0x26c>
    8974:	460d                	li	a2,3
    8976:	f6c883e3          	beq	a7,a2,88dc <__truncdfsf2+0x242>
    897a:	e20890e3          	bnez	a7,879a <__truncdfsf2+0x100>
    897e:	00f7f613          	andi	a2,a5,15
    8982:	4511                	li	a0,4
    8984:	e0a60be3          	beq	a2,a0,879a <__truncdfsf2+0x100>
    8988:	0791                	addi	a5,a5,4
    898a:	83ed                	srli	a5,a5,0x1b
    898c:	0017c793          	xori	a5,a5,1
    8990:	8b85                	andi	a5,a5,1
    8992:	4505                	li	a0,1
    8994:	bd01                	j	87a4 <__truncdfsf2+0x10a>
    8996:	4705                	li	a4,1
    8998:	4601                	li	a2,0
    899a:	4785                	li	a5,1
    899c:	b711                	j	88a0 <__truncdfsf2+0x206>
    899e:	4705                	li	a4,1
    89a0:	4601                	li	a2,0
    89a2:	4785                	li	a5,1
    89a4:	b749                	j	8926 <__truncdfsf2+0x28c>
    89a6:	e0078de3          	beqz	a5,87c0 <__truncdfsf2+0x126>
    89aa:	f505                	bnez	a0,88d2 <__truncdfsf2+0x238>
    89ac:	00571793          	slli	a5,a4,0x5
    89b0:	4605                	li	a2,1
    89b2:	d207cee3          	bltz	a5,86ee <__truncdfsf2+0x54>
    89b6:	bd11                	j	87ca <__truncdfsf2+0x130>

000089b8 <__clzsi2>:
    89b8:	67c1                	lui	a5,0x10
    89ba:	02f57c63          	bgeu	a0,a5,89f2 <__clzsi2+0x3a>
    89be:	0ff00793          	li	a5,255
    89c2:	02000713          	li	a4,32
    89c6:	00a7eb63          	bltu	a5,a0,89dc <__clzsi2+0x24>
    89ca:	00001797          	auipc	a5,0x1
    89ce:	8ae78793          	addi	a5,a5,-1874 # 9278 <__clz_tab>
    89d2:	97aa                	add	a5,a5,a0
    89d4:	2388                	fld	fa0,0(a5)
    89d6:	40a70533          	sub	a0,a4,a0
    89da:	8082                	ret
    89dc:	8121                	srli	a0,a0,0x8
    89de:	00001797          	auipc	a5,0x1
    89e2:	89a78793          	addi	a5,a5,-1894 # 9278 <__clz_tab>
    89e6:	97aa                	add	a5,a5,a0
    89e8:	2388                	fld	fa0,0(a5)
    89ea:	4761                	li	a4,24
    89ec:	40a70533          	sub	a0,a4,a0
    89f0:	8082                	ret
    89f2:	010007b7          	lui	a5,0x1000
    89f6:	00f56d63          	bltu	a0,a5,8a10 <__clzsi2+0x58>
    89fa:	8161                	srli	a0,a0,0x18
    89fc:	00001797          	auipc	a5,0x1
    8a00:	87c78793          	addi	a5,a5,-1924 # 9278 <__clz_tab>
    8a04:	97aa                	add	a5,a5,a0
    8a06:	2388                	fld	fa0,0(a5)
    8a08:	4721                	li	a4,8
    8a0a:	40a70533          	sub	a0,a4,a0
    8a0e:	8082                	ret
    8a10:	8141                	srli	a0,a0,0x10
    8a12:	00001797          	auipc	a5,0x1
    8a16:	86678793          	addi	a5,a5,-1946 # 9278 <__clz_tab>
    8a1a:	97aa                	add	a5,a5,a0
    8a1c:	2388                	fld	fa0,0(a5)
    8a1e:	4741                	li	a4,16
    8a20:	40a70533          	sub	a0,a4,a0
    8a24:	8082                	ret

00008a26 <__errno>:
    8a26:	80c18793          	addi	a5,gp,-2036 # 2000007c <_impure_ptr>
    8a2a:	4388                	lw	a0,0(a5)
    8a2c:	8082                	ret

00008a2e <memcpy>:
    8a2e:	00a5c7b3          	xor	a5,a1,a0
    8a32:	8b8d                	andi	a5,a5,3
    8a34:	00c50733          	add	a4,a0,a2
    8a38:	e781                	bnez	a5,8a40 <memcpy+0x12>
    8a3a:	478d                	li	a5,3
    8a3c:	00c7ed63          	bltu	a5,a2,8a56 <memcpy+0x28>
    8a40:	87aa                	mv	a5,a0
    8a42:	08e57e63          	bgeu	a0,a4,8ade <memcpy+0xb0>
    8a46:	2194                	fld	fa3,0(a1)
    8a48:	0785                	addi	a5,a5,1
    8a4a:	0585                	addi	a1,a1,1
    8a4c:	fed78fa3          	sb	a3,-1(a5)
    8a50:	fee7ebe3          	bltu	a5,a4,8a46 <memcpy+0x18>
    8a54:	8082                	ret
    8a56:	00357693          	andi	a3,a0,3
    8a5a:	87aa                	mv	a5,a0
    8a5c:	ca89                	beqz	a3,8a6e <memcpy+0x40>
    8a5e:	2194                	fld	fa3,0(a1)
    8a60:	0785                	addi	a5,a5,1
    8a62:	0585                	addi	a1,a1,1
    8a64:	fed78fa3          	sb	a3,-1(a5)
    8a68:	0037f693          	andi	a3,a5,3
    8a6c:	bfc5                	j	8a5c <memcpy+0x2e>
    8a6e:	ffc77693          	andi	a3,a4,-4
    8a72:	fe068613          	addi	a2,a3,-32
    8a76:	06c7f063          	bgeu	a5,a2,8ad6 <memcpy+0xa8>
    8a7a:	0005a383          	lw	t2,0(a1) # 800000 <_data_lma+0x7f6c84>
    8a7e:	0045a283          	lw	t0,4(a1)
    8a82:	0085af83          	lw	t6,8(a1)
    8a86:	00c5af03          	lw	t5,12(a1)
    8a8a:	0105ae83          	lw	t4,16(a1)
    8a8e:	0145ae03          	lw	t3,20(a1)
    8a92:	0185a303          	lw	t1,24(a1)
    8a96:	01c5a883          	lw	a7,28(a1)
    8a9a:	02458593          	addi	a1,a1,36
    8a9e:	0077a023          	sw	t2,0(a5)
    8aa2:	ffc5a803          	lw	a6,-4(a1)
    8aa6:	0057a223          	sw	t0,4(a5)
    8aaa:	01f7a423          	sw	t6,8(a5)
    8aae:	01e7a623          	sw	t5,12(a5)
    8ab2:	01d7a823          	sw	t4,16(a5)
    8ab6:	01c7aa23          	sw	t3,20(a5)
    8aba:	0067ac23          	sw	t1,24(a5)
    8abe:	0117ae23          	sw	a7,28(a5)
    8ac2:	02478793          	addi	a5,a5,36
    8ac6:	ff07ae23          	sw	a6,-4(a5)
    8aca:	b775                	j	8a76 <memcpy+0x48>
    8acc:	4190                	lw	a2,0(a1)
    8ace:	0791                	addi	a5,a5,4
    8ad0:	0591                	addi	a1,a1,4
    8ad2:	fec7ae23          	sw	a2,-4(a5)
    8ad6:	fed7ebe3          	bltu	a5,a3,8acc <memcpy+0x9e>
    8ada:	f6e7e6e3          	bltu	a5,a4,8a46 <memcpy+0x18>
    8ade:	8082                	ret

00008ae0 <MyCfgDescr>:
    8ae0:	0209 0043 0102 8000 0932 0004 0100 0202     ..C.....2.......
    8af0:	0001 2405 1000 0501 0124 0100 2404 0202     ...$....$....$..
    8b00:	2405 0006 0701 8105 4003 0100 0409 0001     .$.......@......
    8b10:	0a02 0000 0700 0205 4002 0000 0507 0283     .........@......
    8b20:	0040 0000                                   @...

00008b24 <MyDevDescr>:
    8b24:	0112 0110 0002 4000 1a86 fe0c 0001 0201     .......@........
    8b34:	0100 0000                                   ....

00008b38 <MyManuInfo>:
    8b38:	030e 0077 0063 0068 002e 0063 006e 0000     ..w.c.h...c.n...

00008b48 <MyProdInfo>:
    8b48:	0316 0055 0053 0042 0020 0053 0065 0072     ..U.S.B. .S.e.r.
    8b58:	0069 0061 006c 0000                         i.a.l...

00008b60 <MySerNumInfo>:
    8b60:	0316 0030 0031 0032 0033 0034 0035 0036     ..0.1.2.3.4.5.6.
    8b70:	0037 0038 0039 0000 9a36 ffff 98e0 ffff     7.8.9...6.......
    8b80:	9916 ffff 9974 ffff 9916 ffff 98a0 ffff     ....t...........
    8b90:	9790 ffff 9916 ffff 98ac ffff 98ce ffff     ................
    8ba0:	9a1a ffff 9720 ffff 9f5c ffff 9f6a ffff     .... ...\...j...
    8bb0:	9f78 ffff 9f86 ffff 9f9a ffff 9fae ffff     x...............
    8bc0:	a10e ffff a0ba ffff a13c ffff a18a ffff     ........<.......
    8bd0:	a1e4 ffff a23a ffff a28c ffff 0000 3f00     ....:..........?
    8be0:	aaab 3f2a b3d7 3f5d cd3a 3f13 cd3a bf13     ..*?..]?:..?:...
    8bf0:	cd3a 3f93 0000 3f80 cd3a bf93 e000 4533     :..?...?:.....3E
    8c00:	0000 3980 3333 4053 0000 4130 6666 3f26     ...933S@..0Aff&?
    8c10:	47ae 3de1 7ae1 40a4 eb85 c0a9 a834 ffff     .G.=.z.@....4...
    8c20:	a838 ffff a862 ffff a8ae ffff a8dc ffff     8...b...........
    8c30:	a99e ffff 0000 4120 0000 4000 d70a 3d23     ...... A...@..#=
    8c40:	0000 4100 0000 40a0 0000 447a 0000 42c8     ...A...@..zD...B
    8c50:	0000 42f0 0000 ff80 0000 7f80 cccd 3dcc     ...B...........=
    8c60:	cccd 3e4c d70a 3ca3 0fdb 4249 0fdb 4149     ..L>...<..IB..IA
    8c70:	0000 41c0 0fdb 4049 0000 44fa 2400 4974     ...A..I@...D.$tI
    8c80:	0000 42a0 0000 7fc0 0000 428c 0000 4180     ...B.......B...A
    8c90:	0000 3d80 0000 4248 3333 3ef3 0000 4018     ...=..HB33.>...@
    8ca0:	4000 461c 0000 41c8 0000 4040 0000 3d00     .@.F...A..@@...=
    8cb0:	cccd 3d4c 0000 4020 0000 4158 0000 4170     ..L=.. @..XA..pA
    8cc0:	6666 413e 54de 3c24 ae8a ffff ae5a ffff     ff>A.T$<....Z...
    8cd0:	aea0 ffff aede ffff af14 ffff af4a ffff     ............J...
    8ce0:	af80 ffff b0d8 ffff b0a8 ffff b0ee ffff     ................
    8cf0:	b12c ffff b162 ffff b198 ffff b1ce ffff     ,...b...........
    8d00:	b71e ffff b6d2 ffff b742 ffff b788 ffff     ........B.......
    8d10:	b7da ffff b828 ffff b872 ffff be52 ffff     ....(...r...R...
    8d20:	be36 ffff be68 ffff be86 ffff bea4 ffff     6...h...........
    8d30:	bec2 ffff bee0 ffff 0b61 3b36 c5ac 38a7     ........a.6;...8
    8d40:	53d2 417b 7ae1 4054 126f 3a83 aab0 3f2a     .S{A.zT@o..:..*?
    8d50:	be73 3f20 5440 4d09 5000 46c3 0000 bf80     s. ?@T.M.P.F....
    8d60:	c5ac 3827 0fdb 40c9 0ea1 3bea 5cac 3f31     ..'8...@...;.\1?
    8d70:	70a4 3f7d 0000 3fc0 0000 4396 aaab 3daa     .p}?...?...C...=
    8d80:	5556 3ed5 6666 3f86 6666 4186 6666 3f06     VU.>ff.?ff.Aff.?
    8d90:	6666 3ee6 3332 3ef3 ffff 3eff 6665 3ee6     ff.>23.>...>ef.>
    8da0:	f2ca 7149 7173 7472 0000 0000 7173 7472     ..Iqsqrt....sqrt
    8db0:	0066 0000 0f80 3fc9 4443 3735 4400 3735     f......?CD57.D57
    8dc0:	a308 2e85 f984 3f22 a300 2e85 3132 248d     ......"?....21.$
    8dd0:	0000 4380                                   ...C

00008dd4 <npio2_hw>:
    8dd4:	0f00 3fc9 0f00 4049 cb00 4096 0f00 40c9     ...?..I@...@...@
    8de4:	5300 40fb cb00 4116 ed00 412f 0f00 4149     .S.@...A../A..IA
    8df4:	3100 4162 5300 417b 3a00 418a cb00 4196     .1bA.S{A.:.A...A
    8e04:	5c00 41a3 ed00 41af 7e00 41bc 0f00 41c9     .\.A...A.~.A...A
    8e14:	a000 41d5 3100 41e2 c200 41ee 5300 41fb     ...A.1.A...A.S.A
    8e24:	f200 4203 3a00 420a 8300 4210 cb00 4216     ...B.:.B...B...B
    8e34:	1400 421d 5c00 4223 a500 4229 ed00 422f     ...B.\#B..)B../B
    8e44:	3600 4236 7e00 423c c700 4242 0f00 4249     .66B.~<B..BB..IB

00008e54 <two_over_pi>:
    8e54:	00a2 0000 00f9 0000 0083 0000 006e 0000     ............n...
    8e64:	004e 0000 0044 0000 0015 0000 0029 0000     N...D.......)...
    8e74:	00fc 0000 0027 0000 0057 0000 00d1 0000     ....'...W.......
    8e84:	00f5 0000 0034 0000 00dd 0000 00c0 0000     ....4...........
    8e94:	00db 0000 0062 0000 0095 0000 0099 0000     ....b...........
    8ea4:	003c 0000 0043 0000 0090 0000 0041 0000     <...C.......A...
    8eb4:	00fe 0000 0051 0000 0063 0000 00ab 0000     ....Q...c.......
    8ec4:	00de 0000 00bb 0000 00c5 0000 0061 0000     ............a...
    8ed4:	00b7 0000 0024 0000 006e 0000 003a 0000     ....$...n...:...
    8ee4:	0042 0000 004d 0000 00d2 0000 00e0 0000     B...M...........
    8ef4:	0006 0000 0049 0000 002e 0000 00ea 0000     ....I...........
    8f04:	0009 0000 00d1 0000 0092 0000 001c 0000     ................
    8f14:	00fe 0000 001d 0000 00eb 0000 001c 0000     ................
    8f24:	00b1 0000 0029 0000 00a7 0000 003e 0000     ....).......>...
    8f34:	00e8 0000 0082 0000 0035 0000 00f5 0000     ........5.......
    8f44:	002e 0000 00bb 0000 0044 0000 0084 0000     ........D.......
    8f54:	00e9 0000 009c 0000 0070 0000 0026 0000     ........p...&...
    8f64:	00b4 0000 005f 0000 007e 0000 0041 0000     ...._...~...A...
    8f74:	0039 0000 0091 0000 00d6 0000 0039 0000     9...........9...
    8f84:	0083 0000 0053 0000 0039 0000 00f4 0000     ....S...9.......
    8f94:	009c 0000 0084 0000 005f 0000 008b 0000     ........_.......
    8fa4:	00bd 0000 00f9 0000 0028 0000 003b 0000     ........(...;...
    8fb4:	001f 0000 00f8 0000 0097 0000 00ff 0000     ................
    8fc4:	00de 0000 0005 0000 0098 0000 000f 0000     ................
    8fd4:	00ef 0000 002f 0000 0011 0000 008b 0000     ..../...........
    8fe4:	005a 0000 000a 0000 006d 0000 001f 0000     Z.......m.......
    8ff4:	006d 0000 0036 0000 007e 0000 00cf 0000     m...6...~.......
    9004:	0027 0000 00cb 0000 0009 0000 00b7 0000     '...............
    9014:	004f 0000 0046 0000 003f 0000 0066 0000     O...F...?...f...
    9024:	009e 0000 005f 0000 00ea 0000 002d 0000     ...._.......-...
    9034:	0075 0000 0027 0000 00ba 0000 00c7 0000     u...'...........
    9044:	00eb 0000 00e5 0000 00f1 0000 007b 0000     ............{...
    9054:	003d 0000 0007 0000 0039 0000 00f7 0000     =.......9.......
    9064:	008a 0000 0052 0000 0092 0000 00ea 0000     ....R...........
    9074:	006b 0000 00fb 0000 005f 0000 00b1 0000     k......._.......
    9084:	001f 0000 008d 0000 005d 0000 0008 0000     ........].......
    9094:	0056 0000 0003 0000 0030 0000 0046 0000     V.......0...F...
    90a4:	00fc 0000 007b 0000 006b 0000 00ab 0000     ....{...k.......
    90b4:	00f0 0000 00cf 0000 00bc 0000 0020 0000     ............ ...
    90c4:	009a 0000 00f4 0000 0036 0000 001d 0000     ........6.......
    90d4:	00a9 0000 00e3 0000 0091 0000 0061 0000     ............a...
    90e4:	005e 0000 00e6 0000 001b 0000 0008 0000     ^...............
    90f4:	0065 0000 0099 0000 0085 0000 005f 0000     e..........._...
    9104:	0014 0000 00a0 0000 0068 0000 0040 0000     ........h...@...
    9114:	008d 0000 00ff 0000 00d8 0000 0080 0000     ................
    9124:	004d 0000 0073 0000 0027 0000 0031 0000     M...s...'...1...
    9134:	0006 0000 0006 0000 0015 0000 0056 0000     ............V...
    9144:	00ca 0000 0073 0000 00a8 0000 00c9 0000     ....s...........
    9154:	0060 0000 00e2 0000 007b 0000 00c0 0000     `.......{.......
    9164:	008c 0000 006b 0000 0000 3f38 0000 3e90     ....k.....8?...>
    9174:	d74e ad47 74f6 310f f27c b493 0d01 37d0     N.G..t.1|......7
    9184:	0b61 bab6 aaab 3d2a                         a.....*=

0000918c <PIo2>:
    918c:	0000 3fc9 0000 39f0 0000 37da 0000 33a2     ...?...9...7...3
    919c:	0000 2e84 0000 2b50 0000 27c2 0000 22d0     ......P+...'..."
    91ac:	0000 1fc4 0000 1bc6 0000 1744 0000 3fc9     ..........D....?
    91bc:	0000 3b80 0000 3e00                         ...;...>

000091c4 <init_jk>:
    91c4:	0004 0000 0007 0000 0009 0000 c9d3 2f2e     .............../
    91d4:	2f34 b2d7 ef1b 3638 0d01 b950 8889 3c08     4/....86..P....<
    91e4:	aaab be2a aaab 3e2a 0000 4c00 4260 0da2     ..*...*>...L`B..
    91f4:	0000 3300 dc26 ffff dc0e ffff db9a ffff     ...3&...........
    9204:	dc0a ffff db9a ffff df1a ffff db9a ffff     ................
    9214:	dc0a ffff dc00 ffff dc00 ffff df1a ffff     ................
    9224:	dc0a ffff dba2 ffff dba2 ffff dba2 ffff     ................
    9234:	db60 ffff e444 ffff e2fe ffff e2fe ffff     `...D...........
    9244:	e2fc ffff e304 ffff e304 ffff e730 ffff     ............0...
    9254:	e2fc ffff e304 ffff e730 ffff e304 ffff     ........0.......
    9264:	e2fc ffff e430 ffff e430 ffff e430 ffff     ....0...0...0...
    9274:	e422 ffff                                   "...

00009278 <__clz_tab>:
    9278:	0100 0202 0303 0303 0404 0404 0404 0404     ................
    9288:	0505 0505 0505 0505 0505 0505 0505 0505     ................
    9298:	0606 0606 0606 0606 0606 0606 0606 0606     ................
    92a8:	0606 0606 0606 0606 0606 0606 0606 0606     ................
    92b8:	0707 0707 0707 0707 0707 0707 0707 0707     ................
    92c8:	0707 0707 0707 0707 0707 0707 0707 0707     ................
    92d8:	0707 0707 0707 0707 0707 0707 0707 0707     ................
    92e8:	0707 0707 0707 0707 0707 0707 0707 0707     ................
    92f8:	0808 0808 0808 0808 0808 0808 0808 0808     ................
    9308:	0808 0808 0808 0808 0808 0808 0808 0808     ................
    9318:	0808 0808 0808 0808 0808 0808 0808 0808     ................
    9328:	0808 0808 0808 0808 0808 0808 0808 0808     ................
    9338:	0808 0808 0808 0808 0808 0808 0808 0808     ................
    9348:	0808 0808 0808 0808 0808 0808 0808 0808     ................
    9358:	0808 0808 0808 0808 0808 0808 0808 0808     ................
    9368:	0808 0808 0808 0808 0808 0808 0808 0808     ................
