Archive member included to satisfy reference by file (symbol)

D:/SoftWare/WW/MounRiver_Studio/MounRiver_Studio/MounRiver/MounRiver_Studio/toolchain/RISC-V Embedded GCC/riscv-none-embed/lib/rv32imafcxw/ilp32f/libm.a(lib_a-sf_cos.o)
                              CMakeFiles/CH32V307WCU6.elf.dir/User/MotorPack/Src/motor.cpp.obj (cosf)
D:/SoftWare/WW/MounRiver_Studio/MounRiver_Studio/MounRiver/MounRiver_Studio/toolchain/RISC-V Embedded GCC/riscv-none-embed/lib/rv32imafcxw/ilp32f/libm.a(lib_a-sf_floor.o)
                              CMakeFiles/CH32V307WCU6.elf.dir/User/MotorPack/Src/motor.cpp.obj (floorf)
D:/SoftWare/WW/MounRiver_Studio/MounRiver_Studio/MounRiver/MounRiver_Studio/toolchain/RISC-V Embedded GCC/riscv-none-embed/lib/rv32imafcxw/ilp32f/libm.a(lib_a-sf_nearbyint.o)
                              CMakeFiles/CH32V307WCU6.elf.dir/User/MotorPack/Src/motor.cpp.obj (nearbyintf)
D:/SoftWare/WW/MounRiver_Studio/MounRiver_Studio/MounRiver/MounRiver_Studio/toolchain/RISC-V Embedded GCC/riscv-none-embed/lib/rv32imafcxw/ilp32f/libm.a(lib_a-sf_rint.o)
                              D:/SoftWare/WW/MounRiver_Studio/MounRiver_Studio/MounRiver/MounRiver_Studio/toolchain/RISC-V Embedded GCC/riscv-none-embed/lib/rv32imafcxw/ilp32f/libm.a(lib_a-sf_nearbyint.o) (rintf)
D:/SoftWare/WW/MounRiver_Studio/MounRiver_Studio/MounRiver/MounRiver_Studio/toolchain/RISC-V Embedded GCC/riscv-none-embed/lib/rv32imafcxw/ilp32f/libm.a(lib_a-sf_sin.o)
                              CMakeFiles/CH32V307WCU6.elf.dir/User/MotorPack/Src/motor.cpp.obj (sinf)
D:/SoftWare/WW/MounRiver_Studio/MounRiver_Studio/MounRiver/MounRiver_Studio/toolchain/RISC-V Embedded GCC/riscv-none-embed/lib/rv32imafcxw/ilp32f/libm.a(lib_a-w_sqrt.o)
                              CMakeFiles/CH32V307WCU6.elf.dir/User/MotorPack/Src/motor.cpp.obj (sqrt)
D:/SoftWare/WW/MounRiver_Studio/MounRiver_Studio/MounRiver/MounRiver_Studio/toolchain/RISC-V Embedded GCC/riscv-none-embed/lib/rv32imafcxw/ilp32f/libm.a(lib_a-wf_sqrt.o)
                              CMakeFiles/CH32V307WCU6.elf.dir/User/MotorPack/Src/motor.cpp.obj (sqrtf)
D:/SoftWare/WW/MounRiver_Studio/MounRiver_Studio/MounRiver/MounRiver_Studio/toolchain/RISC-V Embedded GCC/riscv-none-embed/lib/rv32imafcxw/ilp32f/libm.a(lib_a-e_sqrt.o)
                              D:/SoftWare/WW/MounRiver_Studio/MounRiver_Studio/MounRiver/MounRiver_Studio/toolchain/RISC-V Embedded GCC/riscv-none-embed/lib/rv32imafcxw/ilp32f/libm.a(lib_a-w_sqrt.o) (__ieee754_sqrt)
D:/SoftWare/WW/MounRiver_Studio/MounRiver_Studio/MounRiver/MounRiver_Studio/toolchain/RISC-V Embedded GCC/riscv-none-embed/lib/rv32imafcxw/ilp32f/libm.a(lib_a-ef_rem_pio2.o)
                              D:/SoftWare/WW/MounRiver_Studio/MounRiver_Studio/MounRiver/MounRiver_Studio/toolchain/RISC-V Embedded GCC/riscv-none-embed/lib/rv32imafcxw/ilp32f/libm.a(lib_a-sf_cos.o) (__ieee754_rem_pio2f)
D:/SoftWare/WW/MounRiver_Studio/MounRiver_Studio/MounRiver/MounRiver_Studio/toolchain/RISC-V Embedded GCC/riscv-none-embed/lib/rv32imafcxw/ilp32f/libm.a(lib_a-ef_sqrt.o)
                              D:/SoftWare/WW/MounRiver_Studio/MounRiver_Studio/MounRiver/MounRiver_Studio/toolchain/RISC-V Embedded GCC/riscv-none-embed/lib/rv32imafcxw/ilp32f/libm.a(lib_a-wf_sqrt.o) (__ieee754_sqrtf)
D:/SoftWare/WW/MounRiver_Studio/MounRiver_Studio/MounRiver/MounRiver_Studio/toolchain/RISC-V Embedded GCC/riscv-none-embed/lib/rv32imafcxw/ilp32f/libm.a(lib_a-kf_cos.o)
                              D:/SoftWare/WW/MounRiver_Studio/MounRiver_Studio/MounRiver/MounRiver_Studio/toolchain/RISC-V Embedded GCC/riscv-none-embed/lib/rv32imafcxw/ilp32f/libm.a(lib_a-sf_cos.o) (__kernel_cosf)
D:/SoftWare/WW/MounRiver_Studio/MounRiver_Studio/MounRiver/MounRiver_Studio/toolchain/RISC-V Embedded GCC/riscv-none-embed/lib/rv32imafcxw/ilp32f/libm.a(lib_a-kf_rem_pio2.o)
                              D:/SoftWare/WW/MounRiver_Studio/MounRiver_Studio/MounRiver/MounRiver_Studio/toolchain/RISC-V Embedded GCC/riscv-none-embed/lib/rv32imafcxw/ilp32f/libm.a(lib_a-ef_rem_pio2.o) (__kernel_rem_pio2f)
D:/SoftWare/WW/MounRiver_Studio/MounRiver_Studio/MounRiver/MounRiver_Studio/toolchain/RISC-V Embedded GCC/riscv-none-embed/lib/rv32imafcxw/ilp32f/libm.a(lib_a-kf_sin.o)
                              D:/SoftWare/WW/MounRiver_Studio/MounRiver_Studio/MounRiver/MounRiver_Studio/toolchain/RISC-V Embedded GCC/riscv-none-embed/lib/rv32imafcxw/ilp32f/libm.a(lib_a-sf_cos.o) (__kernel_sinf)
D:/SoftWare/WW/MounRiver_Studio/MounRiver_Studio/MounRiver/MounRiver_Studio/toolchain/RISC-V Embedded GCC/riscv-none-embed/lib/rv32imafcxw/ilp32f/libm.a(lib_a-s_lib_ver.o)
                              D:/SoftWare/WW/MounRiver_Studio/MounRiver_Studio/MounRiver/MounRiver_Studio/toolchain/RISC-V Embedded GCC/riscv-none-embed/lib/rv32imafcxw/ilp32f/libm.a(lib_a-w_sqrt.o) (__fdlib_version)
D:/SoftWare/WW/MounRiver_Studio/MounRiver_Studio/MounRiver/MounRiver_Studio/toolchain/RISC-V Embedded GCC/riscv-none-embed/lib/rv32imafcxw/ilp32f/libm.a(lib_a-s_matherr.o)
                              D:/SoftWare/WW/MounRiver_Studio/MounRiver_Studio/MounRiver/MounRiver_Studio/toolchain/RISC-V Embedded GCC/riscv-none-embed/lib/rv32imafcxw/ilp32f/libm.a(lib_a-w_sqrt.o) (matherr)
D:/SoftWare/WW/MounRiver_Studio/MounRiver_Studio/MounRiver/MounRiver_Studio/toolchain/RISC-V Embedded GCC/riscv-none-embed/lib/rv32imafcxw/ilp32f/libm.a(lib_a-sf_fabs.o)
                              D:/SoftWare/WW/MounRiver_Studio/MounRiver_Studio/MounRiver/MounRiver_Studio/toolchain/RISC-V Embedded GCC/riscv-none-embed/lib/rv32imafcxw/ilp32f/libm.a(lib_a-ef_rem_pio2.o) (fabsf)
D:/SoftWare/WW/MounRiver_Studio/MounRiver_Studio/MounRiver/MounRiver_Studio/toolchain/RISC-V Embedded GCC/riscv-none-embed/lib/rv32imafcxw/ilp32f/libm.a(lib_a-sf_scalbn.o)
                              D:/SoftWare/WW/MounRiver_Studio/MounRiver_Studio/MounRiver/MounRiver_Studio/toolchain/RISC-V Embedded GCC/riscv-none-embed/lib/rv32imafcxw/ilp32f/libm.a(lib_a-kf_rem_pio2.o) (scalbnf)
D:/SoftWare/WW/MounRiver_Studio/MounRiver_Studio/MounRiver/MounRiver_Studio/toolchain/RISC-V Embedded GCC/riscv-none-embed/lib/rv32imafcxw/ilp32f/libm.a(lib_a-sf_copysign.o)
                              D:/SoftWare/WW/MounRiver_Studio/MounRiver_Studio/MounRiver/MounRiver_Studio/toolchain/RISC-V Embedded GCC/riscv-none-embed/lib/rv32imafcxw/ilp32f/libm.a(lib_a-sf_scalbn.o) (copysignf)
d:/software/ww/mounriver_studio/mounriver_studio/mounriver/mounriver_studio/toolchain/risc-v embedded gcc/bin/../lib/gcc/riscv-none-embed/8.2.0/rv32imafcxw/ilp32f\libgcc.a(adddf3.o)
                              D:/SoftWare/WW/MounRiver_Studio/MounRiver_Studio/MounRiver/MounRiver_Studio/toolchain/RISC-V Embedded GCC/riscv-none-embed/lib/rv32imafcxw/ilp32f/libm.a(lib_a-e_sqrt.o) (__adddf3)
d:/software/ww/mounriver_studio/mounriver_studio/mounriver/mounriver_studio/toolchain/risc-v embedded gcc/bin/../lib/gcc/riscv-none-embed/8.2.0/rv32imafcxw/ilp32f\libgcc.a(divdf3.o)
                              D:/SoftWare/WW/MounRiver_Studio/MounRiver_Studio/MounRiver/MounRiver_Studio/toolchain/RISC-V Embedded GCC/riscv-none-embed/lib/rv32imafcxw/ilp32f/libm.a(lib_a-w_sqrt.o) (__divdf3)
d:/software/ww/mounriver_studio/mounriver_studio/mounriver/mounriver_studio/toolchain/risc-v embedded gcc/bin/../lib/gcc/riscv-none-embed/8.2.0/rv32imafcxw/ilp32f\libgcc.a(ledf2.o)
                              D:/SoftWare/WW/MounRiver_Studio/MounRiver_Studio/MounRiver/MounRiver_Studio/toolchain/RISC-V Embedded GCC/riscv-none-embed/lib/rv32imafcxw/ilp32f/libm.a(lib_a-w_sqrt.o) (__ltdf2)
d:/software/ww/mounriver_studio/mounriver_studio/mounriver/mounriver_studio/toolchain/risc-v embedded gcc/bin/../lib/gcc/riscv-none-embed/8.2.0/rv32imafcxw/ilp32f\libgcc.a(muldf3.o)
                              D:/SoftWare/WW/MounRiver_Studio/MounRiver_Studio/MounRiver/MounRiver_Studio/toolchain/RISC-V Embedded GCC/riscv-none-embed/lib/rv32imafcxw/ilp32f/libm.a(lib_a-e_sqrt.o) (__muldf3)
d:/software/ww/mounriver_studio/mounriver_studio/mounriver/mounriver_studio/toolchain/risc-v embedded gcc/bin/../lib/gcc/riscv-none-embed/8.2.0/rv32imafcxw/ilp32f\libgcc.a(subdf3.o)
                              D:/SoftWare/WW/MounRiver_Studio/MounRiver_Studio/MounRiver/MounRiver_Studio/toolchain/RISC-V Embedded GCC/riscv-none-embed/lib/rv32imafcxw/ilp32f/libm.a(lib_a-e_sqrt.o) (__subdf3)
d:/software/ww/mounriver_studio/mounriver_studio/mounriver/mounriver_studio/toolchain/risc-v embedded gcc/bin/../lib/gcc/riscv-none-embed/8.2.0/rv32imafcxw/ilp32f\libgcc.a(unorddf2.o)
                              D:/SoftWare/WW/MounRiver_Studio/MounRiver_Studio/MounRiver/MounRiver_Studio/toolchain/RISC-V Embedded GCC/riscv-none-embed/lib/rv32imafcxw/ilp32f/libm.a(lib_a-w_sqrt.o) (__unorddf2)
d:/software/ww/mounriver_studio/mounriver_studio/mounriver/mounriver_studio/toolchain/risc-v embedded gcc/bin/../lib/gcc/riscv-none-embed/8.2.0/rv32imafcxw/ilp32f\libgcc.a(extendsfdf2.o)
                              CMakeFiles/CH32V307WCU6.elf.dir/User/MotorPack/Src/motor.cpp.obj (__extendsfdf2)
d:/software/ww/mounriver_studio/mounriver_studio/mounriver/mounriver_studio/toolchain/risc-v embedded gcc/bin/../lib/gcc/riscv-none-embed/8.2.0/rv32imafcxw/ilp32f\libgcc.a(truncdfsf2.o)
                              CMakeFiles/CH32V307WCU6.elf.dir/User/MotorPack/Src/motor.cpp.obj (__truncdfsf2)
d:/software/ww/mounriver_studio/mounriver_studio/mounriver/mounriver_studio/toolchain/risc-v embedded gcc/bin/../lib/gcc/riscv-none-embed/8.2.0/rv32imafcxw/ilp32f\libgcc.a(save-restore.o)
                              CMakeFiles/CH32V307WCU6.elf.dir/Peripheral/src/ch32v30x_flash.c.obj (__riscv_save_6)
d:/software/ww/mounriver_studio/mounriver_studio/mounriver/mounriver_studio/toolchain/risc-v embedded gcc/bin/../lib/gcc/riscv-none-embed/8.2.0/rv32imafcxw/ilp32f\libgcc.a(_clzsi2.o)
                              d:/software/ww/mounriver_studio/mounriver_studio/mounriver/mounriver_studio/toolchain/risc-v embedded gcc/bin/../lib/gcc/riscv-none-embed/8.2.0/rv32imafcxw/ilp32f\libgcc.a(adddf3.o) (__clzsi2)
d:/software/ww/mounriver_studio/mounriver_studio/mounriver/mounriver_studio/toolchain/risc-v embedded gcc/bin/../lib/gcc/riscv-none-embed/8.2.0/rv32imafcxw/ilp32f\libgcc.a(_clz.o)
                              d:/software/ww/mounriver_studio/mounriver_studio/mounriver/mounriver_studio/toolchain/risc-v embedded gcc/bin/../lib/gcc/riscv-none-embed/8.2.0/rv32imafcxw/ilp32f\libgcc.a(_clzsi2.o) (__clz_tab)
d:/software/ww/mounriver_studio/mounriver_studio/mounriver/mounriver_studio/toolchain/risc-v embedded gcc/bin/../lib/gcc/riscv-none-embed/8.2.0/../../../../riscv-none-embed/lib/rv32imafcxw/ilp32f\libg_nano.a(lib_a-errno.o)
                              D:/SoftWare/WW/MounRiver_Studio/MounRiver_Studio/MounRiver/MounRiver_Studio/toolchain/RISC-V Embedded GCC/riscv-none-embed/lib/rv32imafcxw/ilp32f/libm.a(lib_a-w_sqrt.o) (__errno)
d:/software/ww/mounriver_studio/mounriver_studio/mounriver/mounriver_studio/toolchain/risc-v embedded gcc/bin/../lib/gcc/riscv-none-embed/8.2.0/../../../../riscv-none-embed/lib/rv32imafcxw/ilp32f\libg_nano.a(lib_a-impure.o)
                              d:/software/ww/mounriver_studio/mounriver_studio/mounriver/mounriver_studio/toolchain/risc-v embedded gcc/bin/../lib/gcc/riscv-none-embed/8.2.0/../../../../riscv-none-embed/lib/rv32imafcxw/ilp32f\libg_nano.a(lib_a-errno.o) (_impure_ptr)
d:/software/ww/mounriver_studio/mounriver_studio/mounriver/mounriver_studio/toolchain/risc-v embedded gcc/bin/../lib/gcc/riscv-none-embed/8.2.0/../../../../riscv-none-embed/lib/rv32imafcxw/ilp32f\libg_nano.a(lib_a-memcpy.o)
                              CMakeFiles/CH32V307WCU6.elf.dir/Peripheral/src/ch32v30x_usbfs_device.c.obj (memcpy)

Discarded input sections

 .text          0x0000000000000000        0x0 CMakeFiles/CH32V307WCU6.elf.dir/Core/core_riscv.c.obj
 .data          0x0000000000000000        0x0 CMakeFiles/CH32V307WCU6.elf.dir/Core/core_riscv.c.obj
 .bss           0x0000000000000000        0x0 CMakeFiles/CH32V307WCU6.elf.dir/Core/core_riscv.c.obj
 .text.__get_FFLAGS
                0x0000000000000000        0x6 CMakeFiles/CH32V307WCU6.elf.dir/Core/core_riscv.c.obj
 .text.__set_FFLAGS
                0x0000000000000000        0x6 CMakeFiles/CH32V307WCU6.elf.dir/Core/core_riscv.c.obj
 .text.__get_FRM
                0x0000000000000000        0x6 CMakeFiles/CH32V307WCU6.elf.dir/Core/core_riscv.c.obj
 .text.__set_FRM
                0x0000000000000000        0x6 CMakeFiles/CH32V307WCU6.elf.dir/Core/core_riscv.c.obj
 .text.__get_FCSR
                0x0000000000000000        0x6 CMakeFiles/CH32V307WCU6.elf.dir/Core/core_riscv.c.obj
 .text.__set_FCSR
                0x0000000000000000        0x6 CMakeFiles/CH32V307WCU6.elf.dir/Core/core_riscv.c.obj
 .text.__get_MSTATUS
                0x0000000000000000        0x6 CMakeFiles/CH32V307WCU6.elf.dir/Core/core_riscv.c.obj
 .text.__set_MSTATUS
                0x0000000000000000        0x6 CMakeFiles/CH32V307WCU6.elf.dir/Core/core_riscv.c.obj
 .text.__get_MISA
                0x0000000000000000        0x6 CMakeFiles/CH32V307WCU6.elf.dir/Core/core_riscv.c.obj
 .text.__set_MISA
                0x0000000000000000        0x6 CMakeFiles/CH32V307WCU6.elf.dir/Core/core_riscv.c.obj
 .text.__get_MTVEC
                0x0000000000000000        0x6 CMakeFiles/CH32V307WCU6.elf.dir/Core/core_riscv.c.obj
 .text.__set_MTVEC
                0x0000000000000000        0x6 CMakeFiles/CH32V307WCU6.elf.dir/Core/core_riscv.c.obj
 .text.__get_MSCRATCH
                0x0000000000000000        0x6 CMakeFiles/CH32V307WCU6.elf.dir/Core/core_riscv.c.obj
 .text.__set_MSCRATCH
                0x0000000000000000        0x6 CMakeFiles/CH32V307WCU6.elf.dir/Core/core_riscv.c.obj
 .text.__get_MEPC
                0x0000000000000000        0x6 CMakeFiles/CH32V307WCU6.elf.dir/Core/core_riscv.c.obj
 .text.__set_MEPC
                0x0000000000000000        0x6 CMakeFiles/CH32V307WCU6.elf.dir/Core/core_riscv.c.obj
 .text.__get_MCAUSE
                0x0000000000000000        0x6 CMakeFiles/CH32V307WCU6.elf.dir/Core/core_riscv.c.obj
 .text.__set_MCAUSE
                0x0000000000000000        0x6 CMakeFiles/CH32V307WCU6.elf.dir/Core/core_riscv.c.obj
 .text.__get_MTVAL
                0x0000000000000000        0x6 CMakeFiles/CH32V307WCU6.elf.dir/Core/core_riscv.c.obj
 .text.__set_MTVAL
                0x0000000000000000        0x6 CMakeFiles/CH32V307WCU6.elf.dir/Core/core_riscv.c.obj
 .text.__get_MVENDORID
                0x0000000000000000        0x6 CMakeFiles/CH32V307WCU6.elf.dir/Core/core_riscv.c.obj
 .text.__get_MARCHID
                0x0000000000000000        0x6 CMakeFiles/CH32V307WCU6.elf.dir/Core/core_riscv.c.obj
 .text.__get_MIMPID
                0x0000000000000000        0x6 CMakeFiles/CH32V307WCU6.elf.dir/Core/core_riscv.c.obj
 .text.__get_MHARTID
                0x0000000000000000        0x6 CMakeFiles/CH32V307WCU6.elf.dir/Core/core_riscv.c.obj
 .text.__get_SP
                0x0000000000000000        0x4 CMakeFiles/CH32V307WCU6.elf.dir/Core/core_riscv.c.obj
 .debug_info    0x0000000000000000      0x46d CMakeFiles/CH32V307WCU6.elf.dir/Core/core_riscv.c.obj
 .debug_abbrev  0x0000000000000000      0x10d CMakeFiles/CH32V307WCU6.elf.dir/Core/core_riscv.c.obj
 .debug_aranges
                0x0000000000000000       0xe0 CMakeFiles/CH32V307WCU6.elf.dir/Core/core_riscv.c.obj
 .debug_ranges  0x0000000000000000       0xd0 CMakeFiles/CH32V307WCU6.elf.dir/Core/core_riscv.c.obj
 .debug_line    0x0000000000000000      0x5c6 CMakeFiles/CH32V307WCU6.elf.dir/Core/core_riscv.c.obj
 .debug_str     0x0000000000000000      0x33e CMakeFiles/CH32V307WCU6.elf.dir/Core/core_riscv.c.obj
 .comment       0x0000000000000000       0x34 CMakeFiles/CH32V307WCU6.elf.dir/Core/core_riscv.c.obj
 .debug_frame   0x0000000000000000      0x1a0 CMakeFiles/CH32V307WCU6.elf.dir/Core/core_riscv.c.obj
 .text          0x0000000000000000        0x0 CMakeFiles/CH32V307WCU6.elf.dir/Debug/debug.c.obj
 .data          0x0000000000000000        0x0 CMakeFiles/CH32V307WCU6.elf.dir/Debug/debug.c.obj
 .bss           0x0000000000000000        0x0 CMakeFiles/CH32V307WCU6.elf.dir/Debug/debug.c.obj
 .text          0x0000000000000000        0x0 CMakeFiles/CH32V307WCU6.elf.dir/Peripheral/src/ch32v30x_adc.c.obj
 .data          0x0000000000000000        0x0 CMakeFiles/CH32V307WCU6.elf.dir/Peripheral/src/ch32v30x_adc.c.obj
 .bss           0x0000000000000000        0x0 CMakeFiles/CH32V307WCU6.elf.dir/Peripheral/src/ch32v30x_adc.c.obj
 .text.ADC_StructInit
                0x0000000000000000       0x1a CMakeFiles/CH32V307WCU6.elf.dir/Peripheral/src/ch32v30x_adc.c.obj
 .text.ADC_ResetCalibration
                0x0000000000000000        0xa CMakeFiles/CH32V307WCU6.elf.dir/Peripheral/src/ch32v30x_adc.c.obj
 .text.ADC_GetResetCalibrationStatus
                0x0000000000000000        0xe CMakeFiles/CH32V307WCU6.elf.dir/Peripheral/src/ch32v30x_adc.c.obj
 .text.ADC_StartCalibration
                0x0000000000000000        0xa CMakeFiles/CH32V307WCU6.elf.dir/Peripheral/src/ch32v30x_adc.c.obj
 .text.ADC_GetCalibrationStatus
                0x0000000000000000        0xe CMakeFiles/CH32V307WCU6.elf.dir/Peripheral/src/ch32v30x_adc.c.obj
 .text.ADC_SoftwareStartConvCmd
                0x0000000000000000       0x1c CMakeFiles/CH32V307WCU6.elf.dir/Peripheral/src/ch32v30x_adc.c.obj
 .text.ADC_GetSoftwareStartConvStatus
                0x0000000000000000       0x12 CMakeFiles/CH32V307WCU6.elf.dir/Peripheral/src/ch32v30x_adc.c.obj
 .text.ADC_DiscModeChannelCountConfig
                0x0000000000000000       0x12 CMakeFiles/CH32V307WCU6.elf.dir/Peripheral/src/ch32v30x_adc.c.obj
 .text.ADC_DiscModeCmd
                0x0000000000000000       0x1e CMakeFiles/CH32V307WCU6.elf.dir/Peripheral/src/ch32v30x_adc.c.obj
 .text.ADC_RegularChannelConfig
                0x0000000000000000       0xb6 CMakeFiles/CH32V307WCU6.elf.dir/Peripheral/src/ch32v30x_adc.c.obj
 .text.ADC_ExternalTrigConvCmd
                0x0000000000000000       0x1c CMakeFiles/CH32V307WCU6.elf.dir/Peripheral/src/ch32v30x_adc.c.obj
 .text.ADC_GetConversionValue
                0x0000000000000000        0x8 CMakeFiles/CH32V307WCU6.elf.dir/Peripheral/src/ch32v30x_adc.c.obj
 .text.ADC_GetDualModeConversionValue
                0x0000000000000000        0xa CMakeFiles/CH32V307WCU6.elf.dir/Peripheral/src/ch32v30x_adc.c.obj
 .text.ADC_AutoInjectedConvCmd
                0x0000000000000000       0x16 CMakeFiles/CH32V307WCU6.elf.dir/Peripheral/src/ch32v30x_adc.c.obj
 .text.ADC_InjectedDiscModeCmd
                0x0000000000000000       0x18 CMakeFiles/CH32V307WCU6.elf.dir/Peripheral/src/ch32v30x_adc.c.obj
 .text.ADC_ExternalTrigInjectedConvConfig
                0x0000000000000000        0xe CMakeFiles/CH32V307WCU6.elf.dir/Peripheral/src/ch32v30x_adc.c.obj
 .text.ADC_SoftwareStartInjectedConvCmd
                0x0000000000000000       0x1c CMakeFiles/CH32V307WCU6.elf.dir/Peripheral/src/ch32v30x_adc.c.obj
 .text.ADC_GetSoftwareStartInjectedConvCmdStatus
                0x0000000000000000       0x12 CMakeFiles/CH32V307WCU6.elf.dir/Peripheral/src/ch32v30x_adc.c.obj
 .text.ADC_SetInjectedOffset
                0x0000000000000000       0x14 CMakeFiles/CH32V307WCU6.elf.dir/Peripheral/src/ch32v30x_adc.c.obj
 .text.ADC_GetInjectedConversionValue
                0x0000000000000000       0x1c CMakeFiles/CH32V307WCU6.elf.dir/Peripheral/src/ch32v30x_adc.c.obj
 .text.ADC_AnalogWatchdogCmd
                0x0000000000000000       0x12 CMakeFiles/CH32V307WCU6.elf.dir/Peripheral/src/ch32v30x_adc.c.obj
 .text.ADC_AnalogWatchdogThresholdsConfig
                0x0000000000000000        0x6 CMakeFiles/CH32V307WCU6.elf.dir/Peripheral/src/ch32v30x_adc.c.obj
 .text.ADC_AnalogWatchdogSingleChannelConfig
                0x0000000000000000        0xa CMakeFiles/CH32V307WCU6.elf.dir/Peripheral/src/ch32v30x_adc.c.obj
 .text.ADC_GetITStatus
                0x0000000000000000       0x20 CMakeFiles/CH32V307WCU6.elf.dir/Peripheral/src/ch32v30x_adc.c.obj
 .text.ADC_ClearITPendingBit
                0x0000000000000000        0xa CMakeFiles/CH32V307WCU6.elf.dir/Peripheral/src/ch32v30x_adc.c.obj
 .text.TempSensor_Volt_To_Temper
                0x0000000000000000       0x2e CMakeFiles/CH32V307WCU6.elf.dir/Peripheral/src/ch32v30x_adc.c.obj
 .text.Get_CalibrationValue
                0x0000000000000000      0x18c CMakeFiles/CH32V307WCU6.elf.dir/Peripheral/src/ch32v30x_adc.c.obj
 .text          0x0000000000000000        0x0 CMakeFiles/CH32V307WCU6.elf.dir/Peripheral/src/ch32v30x_bkp.c.obj
 .data          0x0000000000000000        0x0 CMakeFiles/CH32V307WCU6.elf.dir/Peripheral/src/ch32v30x_bkp.c.obj
 .bss           0x0000000000000000        0x0 CMakeFiles/CH32V307WCU6.elf.dir/Peripheral/src/ch32v30x_bkp.c.obj
 .text.BKP_DeInit
                0x0000000000000000       0x24 CMakeFiles/CH32V307WCU6.elf.dir/Peripheral/src/ch32v30x_bkp.c.obj
 .text.BKP_TamperPinLevelConfig
                0x0000000000000000       0x2c CMakeFiles/CH32V307WCU6.elf.dir/Peripheral/src/ch32v30x_bkp.c.obj
 .text.BKP_TamperPinCmd
                0x0000000000000000       0x2c CMakeFiles/CH32V307WCU6.elf.dir/Peripheral/src/ch32v30x_bkp.c.obj
 .text.BKP_ITConfig
                0x0000000000000000       0x2c CMakeFiles/CH32V307WCU6.elf.dir/Peripheral/src/ch32v30x_bkp.c.obj
 .text.BKP_RTCOutputConfig
                0x0000000000000000       0x18 CMakeFiles/CH32V307WCU6.elf.dir/Peripheral/src/ch32v30x_bkp.c.obj
 .text.BKP_SetRTCCalibrationValue
                0x0000000000000000       0x18 CMakeFiles/CH32V307WCU6.elf.dir/Peripheral/src/ch32v30x_bkp.c.obj
 .text.BKP_WriteBackupRegister
                0x0000000000000000       0x1c CMakeFiles/CH32V307WCU6.elf.dir/Peripheral/src/ch32v30x_bkp.c.obj
 .text.BKP_ReadBackupRegister
                0x0000000000000000       0x1c CMakeFiles/CH32V307WCU6.elf.dir/Peripheral/src/ch32v30x_bkp.c.obj
 .text.BKP_GetFlagStatus
                0x0000000000000000       0x18 CMakeFiles/CH32V307WCU6.elf.dir/Peripheral/src/ch32v30x_bkp.c.obj
 .text.BKP_ClearFlag
                0x0000000000000000       0x12 CMakeFiles/CH32V307WCU6.elf.dir/Peripheral/src/ch32v30x_bkp.c.obj
 .text.BKP_GetITStatus
                0x0000000000000000       0x18 CMakeFiles/CH32V307WCU6.elf.dir/Peripheral/src/ch32v30x_bkp.c.obj
 .text.BKP_ClearITPendingBit
                0x0000000000000000       0x12 CMakeFiles/CH32V307WCU6.elf.dir/Peripheral/src/ch32v30x_bkp.c.obj
 .debug_info    0x0000000000000000      0x81b CMakeFiles/CH32V307WCU6.elf.dir/Peripheral/src/ch32v30x_bkp.c.obj
 .debug_abbrev  0x0000000000000000      0x1b5 CMakeFiles/CH32V307WCU6.elf.dir/Peripheral/src/ch32v30x_bkp.c.obj
 .debug_loc     0x0000000000000000       0xd8 CMakeFiles/CH32V307WCU6.elf.dir/Peripheral/src/ch32v30x_bkp.c.obj
 .debug_aranges
                0x0000000000000000       0x78 CMakeFiles/CH32V307WCU6.elf.dir/Peripheral/src/ch32v30x_bkp.c.obj
 .debug_ranges  0x0000000000000000       0x68 CMakeFiles/CH32V307WCU6.elf.dir/Peripheral/src/ch32v30x_bkp.c.obj
 .debug_line    0x0000000000000000      0x621 CMakeFiles/CH32V307WCU6.elf.dir/Peripheral/src/ch32v30x_bkp.c.obj
 .debug_str     0x0000000000000000      0x719 CMakeFiles/CH32V307WCU6.elf.dir/Peripheral/src/ch32v30x_bkp.c.obj
 .comment       0x0000000000000000       0x34 CMakeFiles/CH32V307WCU6.elf.dir/Peripheral/src/ch32v30x_bkp.c.obj
 .debug_frame   0x0000000000000000       0xec CMakeFiles/CH32V307WCU6.elf.dir/Peripheral/src/ch32v30x_bkp.c.obj
 .text          0x0000000000000000        0x0 CMakeFiles/CH32V307WCU6.elf.dir/Peripheral/src/ch32v30x_can.c.obj
 .data          0x0000000000000000        0x0 CMakeFiles/CH32V307WCU6.elf.dir/Peripheral/src/ch32v30x_can.c.obj
 .bss           0x0000000000000000        0x0 CMakeFiles/CH32V307WCU6.elf.dir/Peripheral/src/ch32v30x_can.c.obj
 .text.CAN_DeInit
                0x0000000000000000       0x56 CMakeFiles/CH32V307WCU6.elf.dir/Peripheral/src/ch32v30x_can.c.obj
 .text.CAN_StructInit
                0x0000000000000000       0x2e CMakeFiles/CH32V307WCU6.elf.dir/Peripheral/src/ch32v30x_can.c.obj
 .text.CAN_SlaveStartBank
                0x0000000000000000       0x38 CMakeFiles/CH32V307WCU6.elf.dir/Peripheral/src/ch32v30x_can.c.obj
 .text.CAN_DBGFreeze
                0x0000000000000000       0x18 CMakeFiles/CH32V307WCU6.elf.dir/Peripheral/src/ch32v30x_can.c.obj
 .text.CAN_TTComModeCmd
                0x0000000000000000       0x5e CMakeFiles/CH32V307WCU6.elf.dir/Peripheral/src/ch32v30x_can.c.obj
 .text.CAN_TransmitStatus
                0x0000000000000000       0xa8 CMakeFiles/CH32V307WCU6.elf.dir/Peripheral/src/ch32v30x_can.c.obj
 .text.CAN_CancelTransmit
                0x0000000000000000       0x36 CMakeFiles/CH32V307WCU6.elf.dir/Peripheral/src/ch32v30x_can.c.obj
 .text.CAN_FIFORelease
                0x0000000000000000       0x16 CMakeFiles/CH32V307WCU6.elf.dir/Peripheral/src/ch32v30x_can.c.obj
 .text.CAN_MessagePending
                0x0000000000000000       0x18 CMakeFiles/CH32V307WCU6.elf.dir/Peripheral/src/ch32v30x_can.c.obj
 .text.CAN_OperatingModeRequest
                0x0000000000000000       0x96 CMakeFiles/CH32V307WCU6.elf.dir/Peripheral/src/ch32v30x_can.c.obj
 .text.CAN_Sleep
                0x0000000000000000       0x1c CMakeFiles/CH32V307WCU6.elf.dir/Peripheral/src/ch32v30x_can.c.obj
 .text.CAN_WakeUp
                0x0000000000000000       0x24 CMakeFiles/CH32V307WCU6.elf.dir/Peripheral/src/ch32v30x_can.c.obj
 .text.CAN_GetReceiveErrorCounter
                0x0000000000000000        0x6 CMakeFiles/CH32V307WCU6.elf.dir/Peripheral/src/ch32v30x_can.c.obj
 .text.CAN_GetLSBTransmitErrorCounter
                0x0000000000000000        0xa CMakeFiles/CH32V307WCU6.elf.dir/Peripheral/src/ch32v30x_can.c.obj
 .text.CAN_GetFlagStatus
                0x0000000000000000       0x8e CMakeFiles/CH32V307WCU6.elf.dir/Peripheral/src/ch32v30x_can.c.obj
 .text.CAN_ClearFlag
                0x0000000000000000       0x42 CMakeFiles/CH32V307WCU6.elf.dir/Peripheral/src/ch32v30x_can.c.obj
 .text          0x0000000000000000        0x0 CMakeFiles/CH32V307WCU6.elf.dir/Peripheral/src/ch32v30x_crc.c.obj
 .data          0x0000000000000000        0x0 CMakeFiles/CH32V307WCU6.elf.dir/Peripheral/src/ch32v30x_crc.c.obj
 .bss           0x0000000000000000        0x0 CMakeFiles/CH32V307WCU6.elf.dir/Peripheral/src/ch32v30x_crc.c.obj
 .text.CRC_ResetDR
                0x0000000000000000        0xa CMakeFiles/CH32V307WCU6.elf.dir/Peripheral/src/ch32v30x_crc.c.obj
 .text.CRC_CalcCRC
                0x0000000000000000        0xa CMakeFiles/CH32V307WCU6.elf.dir/Peripheral/src/ch32v30x_crc.c.obj
 .text.CRC_CalcBlockCRC
                0x0000000000000000       0x20 CMakeFiles/CH32V307WCU6.elf.dir/Peripheral/src/ch32v30x_crc.c.obj
 .text.CRC_GetCRC
                0x0000000000000000        0x8 CMakeFiles/CH32V307WCU6.elf.dir/Peripheral/src/ch32v30x_crc.c.obj
 .text.CRC_SetIDRegister
                0x0000000000000000        0x8 CMakeFiles/CH32V307WCU6.elf.dir/Peripheral/src/ch32v30x_crc.c.obj
 .text.CRC_GetIDRegister
                0x0000000000000000        0x8 CMakeFiles/CH32V307WCU6.elf.dir/Peripheral/src/ch32v30x_crc.c.obj
 .debug_info    0x0000000000000000      0x205 CMakeFiles/CH32V307WCU6.elf.dir/Peripheral/src/ch32v30x_crc.c.obj
 .debug_abbrev  0x0000000000000000      0x12e CMakeFiles/CH32V307WCU6.elf.dir/Peripheral/src/ch32v30x_crc.c.obj
 .debug_loc     0x0000000000000000       0x5f CMakeFiles/CH32V307WCU6.elf.dir/Peripheral/src/ch32v30x_crc.c.obj
 .debug_aranges
                0x0000000000000000       0x48 CMakeFiles/CH32V307WCU6.elf.dir/Peripheral/src/ch32v30x_crc.c.obj
 .debug_ranges  0x0000000000000000       0x38 CMakeFiles/CH32V307WCU6.elf.dir/Peripheral/src/ch32v30x_crc.c.obj
 .debug_line    0x0000000000000000      0x3a4 CMakeFiles/CH32V307WCU6.elf.dir/Peripheral/src/ch32v30x_crc.c.obj
 .debug_str     0x0000000000000000      0x2ef CMakeFiles/CH32V307WCU6.elf.dir/Peripheral/src/ch32v30x_crc.c.obj
 .comment       0x0000000000000000       0x34 CMakeFiles/CH32V307WCU6.elf.dir/Peripheral/src/ch32v30x_crc.c.obj
 .debug_frame   0x0000000000000000       0x70 CMakeFiles/CH32V307WCU6.elf.dir/Peripheral/src/ch32v30x_crc.c.obj
 .text          0x0000000000000000        0x0 CMakeFiles/CH32V307WCU6.elf.dir/Peripheral/src/ch32v30x_dac.c.obj
 .data          0x0000000000000000        0x0 CMakeFiles/CH32V307WCU6.elf.dir/Peripheral/src/ch32v30x_dac.c.obj
 .bss           0x0000000000000000        0x0 CMakeFiles/CH32V307WCU6.elf.dir/Peripheral/src/ch32v30x_dac.c.obj
 .text.DAC_DeInit
                0x0000000000000000       0x2c CMakeFiles/CH32V307WCU6.elf.dir/Peripheral/src/ch32v30x_dac.c.obj
 .text.DAC_Init
                0x0000000000000000       0x30 CMakeFiles/CH32V307WCU6.elf.dir/Peripheral/src/ch32v30x_dac.c.obj
 .text.DAC_StructInit
                0x0000000000000000       0x12 CMakeFiles/CH32V307WCU6.elf.dir/Peripheral/src/ch32v30x_dac.c.obj
 .text.DAC_Cmd  0x0000000000000000       0x32 CMakeFiles/CH32V307WCU6.elf.dir/Peripheral/src/ch32v30x_dac.c.obj
 .text.DAC_DMACmd
                0x0000000000000000       0x32 CMakeFiles/CH32V307WCU6.elf.dir/Peripheral/src/ch32v30x_dac.c.obj
 .text.DAC_SoftwareTriggerCmd
                0x0000000000000000       0x36 CMakeFiles/CH32V307WCU6.elf.dir/Peripheral/src/ch32v30x_dac.c.obj
 .text.DAC_DualSoftwareTriggerCmd
                0x0000000000000000       0x24 CMakeFiles/CH32V307WCU6.elf.dir/Peripheral/src/ch32v30x_dac.c.obj
 .text.DAC_WaveGenerationCmd
                0x0000000000000000       0x2e CMakeFiles/CH32V307WCU6.elf.dir/Peripheral/src/ch32v30x_dac.c.obj
 .text.DAC_SetChannel1Data
                0x0000000000000000       0x1e CMakeFiles/CH32V307WCU6.elf.dir/Peripheral/src/ch32v30x_dac.c.obj
 .text.DAC_SetChannel2Data
                0x0000000000000000       0x1e CMakeFiles/CH32V307WCU6.elf.dir/Peripheral/src/ch32v30x_dac.c.obj
 .text.DAC_SetDualChannelData
                0x0000000000000000       0x1e CMakeFiles/CH32V307WCU6.elf.dir/Peripheral/src/ch32v30x_dac.c.obj
 .text.DAC_GetDataOutputValue
                0x0000000000000000       0x26 CMakeFiles/CH32V307WCU6.elf.dir/Peripheral/src/ch32v30x_dac.c.obj
 .debug_info    0x0000000000000000      0x50b CMakeFiles/CH32V307WCU6.elf.dir/Peripheral/src/ch32v30x_dac.c.obj
 .debug_abbrev  0x0000000000000000      0x1dc CMakeFiles/CH32V307WCU6.elf.dir/Peripheral/src/ch32v30x_dac.c.obj
 .debug_loc     0x0000000000000000      0x258 CMakeFiles/CH32V307WCU6.elf.dir/Peripheral/src/ch32v30x_dac.c.obj
 .debug_aranges
                0x0000000000000000       0x78 CMakeFiles/CH32V307WCU6.elf.dir/Peripheral/src/ch32v30x_dac.c.obj
 .debug_ranges  0x0000000000000000       0x68 CMakeFiles/CH32V307WCU6.elf.dir/Peripheral/src/ch32v30x_dac.c.obj
 .debug_line    0x0000000000000000      0x7fb CMakeFiles/CH32V307WCU6.elf.dir/Peripheral/src/ch32v30x_dac.c.obj
 .debug_str     0x0000000000000000      0x473 CMakeFiles/CH32V307WCU6.elf.dir/Peripheral/src/ch32v30x_dac.c.obj
 .comment       0x0000000000000000       0x34 CMakeFiles/CH32V307WCU6.elf.dir/Peripheral/src/ch32v30x_dac.c.obj
 .debug_frame   0x0000000000000000       0xf4 CMakeFiles/CH32V307WCU6.elf.dir/Peripheral/src/ch32v30x_dac.c.obj
 .text          0x0000000000000000        0x0 CMakeFiles/CH32V307WCU6.elf.dir/Peripheral/src/ch32v30x_dbgmcu.c.obj
 .data          0x0000000000000000        0x0 CMakeFiles/CH32V307WCU6.elf.dir/Peripheral/src/ch32v30x_dbgmcu.c.obj
 .bss           0x0000000000000000        0x0 CMakeFiles/CH32V307WCU6.elf.dir/Peripheral/src/ch32v30x_dbgmcu.c.obj
 .text.DBGMCU_GetREVID
                0x0000000000000000        0xa CMakeFiles/CH32V307WCU6.elf.dir/Peripheral/src/ch32v30x_dbgmcu.c.obj
 .text.DBGMCU_GetDEVID
                0x0000000000000000        0xa CMakeFiles/CH32V307WCU6.elf.dir/Peripheral/src/ch32v30x_dbgmcu.c.obj
 .text.__get_DEBUG_CR
                0x0000000000000000        0x6 CMakeFiles/CH32V307WCU6.elf.dir/Peripheral/src/ch32v30x_dbgmcu.c.obj
 .text.__set_DEBUG_CR
                0x0000000000000000        0x6 CMakeFiles/CH32V307WCU6.elf.dir/Peripheral/src/ch32v30x_dbgmcu.c.obj
 .text.DBGMCU_Config
                0x0000000000000000       0x34 CMakeFiles/CH32V307WCU6.elf.dir/Peripheral/src/ch32v30x_dbgmcu.c.obj
 .text.DBGMCU_GetCHIPID
                0x0000000000000000        0xa CMakeFiles/CH32V307WCU6.elf.dir/Peripheral/src/ch32v30x_dbgmcu.c.obj
 .debug_info    0x0000000000000000      0x1b4 CMakeFiles/CH32V307WCU6.elf.dir/Peripheral/src/ch32v30x_dbgmcu.c.obj
 .debug_abbrev  0x0000000000000000      0x126 CMakeFiles/CH32V307WCU6.elf.dir/Peripheral/src/ch32v30x_dbgmcu.c.obj
 .debug_loc     0x0000000000000000       0xad CMakeFiles/CH32V307WCU6.elf.dir/Peripheral/src/ch32v30x_dbgmcu.c.obj
 .debug_aranges
                0x0000000000000000       0x48 CMakeFiles/CH32V307WCU6.elf.dir/Peripheral/src/ch32v30x_dbgmcu.c.obj
 .debug_ranges  0x0000000000000000       0x38 CMakeFiles/CH32V307WCU6.elf.dir/Peripheral/src/ch32v30x_dbgmcu.c.obj
 .debug_line    0x0000000000000000      0x361 CMakeFiles/CH32V307WCU6.elf.dir/Peripheral/src/ch32v30x_dbgmcu.c.obj
 .debug_str     0x0000000000000000      0x2ba CMakeFiles/CH32V307WCU6.elf.dir/Peripheral/src/ch32v30x_dbgmcu.c.obj
 .comment       0x0000000000000000       0x34 CMakeFiles/CH32V307WCU6.elf.dir/Peripheral/src/ch32v30x_dbgmcu.c.obj
 .debug_frame   0x0000000000000000       0x80 CMakeFiles/CH32V307WCU6.elf.dir/Peripheral/src/ch32v30x_dbgmcu.c.obj
 .text          0x0000000000000000        0x0 CMakeFiles/CH32V307WCU6.elf.dir/Peripheral/src/ch32v30x_dma.c.obj
 .data          0x0000000000000000        0x0 CMakeFiles/CH32V307WCU6.elf.dir/Peripheral/src/ch32v30x_dma.c.obj
 .bss           0x0000000000000000        0x0 CMakeFiles/CH32V307WCU6.elf.dir/Peripheral/src/ch32v30x_dma.c.obj
 .text.DMA_DeInit
                0x0000000000000000      0x230 CMakeFiles/CH32V307WCU6.elf.dir/Peripheral/src/ch32v30x_dma.c.obj
 .text.DMA_Init
                0x0000000000000000       0x38 CMakeFiles/CH32V307WCU6.elf.dir/Peripheral/src/ch32v30x_dma.c.obj
 .text.DMA_StructInit
                0x0000000000000000       0x2e CMakeFiles/CH32V307WCU6.elf.dir/Peripheral/src/ch32v30x_dma.c.obj
 .text.DMA_Cmd  0x0000000000000000       0x18 CMakeFiles/CH32V307WCU6.elf.dir/Peripheral/src/ch32v30x_dma.c.obj
 .text.DMA_ITConfig
                0x0000000000000000       0x16 CMakeFiles/CH32V307WCU6.elf.dir/Peripheral/src/ch32v30x_dma.c.obj
 .text.DMA_SetCurrDataCounter
                0x0000000000000000        0x4 CMakeFiles/CH32V307WCU6.elf.dir/Peripheral/src/ch32v30x_dma.c.obj
 .text.DMA_GetCurrDataCounter
                0x0000000000000000        0x8 CMakeFiles/CH32V307WCU6.elf.dir/Peripheral/src/ch32v30x_dma.c.obj
 .text.DMA_GetFlagStatus
                0x0000000000000000       0x36 CMakeFiles/CH32V307WCU6.elf.dir/Peripheral/src/ch32v30x_dma.c.obj
 .text.DMA_ClearFlag
                0x0000000000000000       0x2c CMakeFiles/CH32V307WCU6.elf.dir/Peripheral/src/ch32v30x_dma.c.obj
 .text.DMA_GetITStatus
                0x0000000000000000       0x36 CMakeFiles/CH32V307WCU6.elf.dir/Peripheral/src/ch32v30x_dma.c.obj
 .text.DMA_ClearITPendingBit
                0x0000000000000000       0x2c CMakeFiles/CH32V307WCU6.elf.dir/Peripheral/src/ch32v30x_dma.c.obj
 .debug_info    0x0000000000000000      0x484 CMakeFiles/CH32V307WCU6.elf.dir/Peripheral/src/ch32v30x_dma.c.obj
 .debug_abbrev  0x0000000000000000      0x1b7 CMakeFiles/CH32V307WCU6.elf.dir/Peripheral/src/ch32v30x_dma.c.obj
 .debug_loc     0x0000000000000000      0x1b8 CMakeFiles/CH32V307WCU6.elf.dir/Peripheral/src/ch32v30x_dma.c.obj
 .debug_aranges
                0x0000000000000000       0x70 CMakeFiles/CH32V307WCU6.elf.dir/Peripheral/src/ch32v30x_dma.c.obj
 .debug_ranges  0x0000000000000000       0x60 CMakeFiles/CH32V307WCU6.elf.dir/Peripheral/src/ch32v30x_dma.c.obj
 .debug_line    0x0000000000000000      0xaf3 CMakeFiles/CH32V307WCU6.elf.dir/Peripheral/src/ch32v30x_dma.c.obj
 .debug_str     0x0000000000000000      0x467 CMakeFiles/CH32V307WCU6.elf.dir/Peripheral/src/ch32v30x_dma.c.obj
 .comment       0x0000000000000000       0x34 CMakeFiles/CH32V307WCU6.elf.dir/Peripheral/src/ch32v30x_dma.c.obj
 .debug_frame   0x0000000000000000       0xc0 CMakeFiles/CH32V307WCU6.elf.dir/Peripheral/src/ch32v30x_dma.c.obj
 .text          0x0000000000000000        0x0 CMakeFiles/CH32V307WCU6.elf.dir/Peripheral/src/ch32v30x_dvp.c.obj
 .data          0x0000000000000000        0x0 CMakeFiles/CH32V307WCU6.elf.dir/Peripheral/src/ch32v30x_dvp.c.obj
 .bss           0x0000000000000000        0x0 CMakeFiles/CH32V307WCU6.elf.dir/Peripheral/src/ch32v30x_dvp.c.obj
 .text.DVP_INTCfg
                0x0000000000000000       0x1e CMakeFiles/CH32V307WCU6.elf.dir/Peripheral/src/ch32v30x_dvp.c.obj
 .text.DVP_Mode
                0x0000000000000000       0x44 CMakeFiles/CH32V307WCU6.elf.dir/Peripheral/src/ch32v30x_dvp.c.obj
 .text.DVP_Cfg  0x0000000000000000       0x68 CMakeFiles/CH32V307WCU6.elf.dir/Peripheral/src/ch32v30x_dvp.c.obj
 .debug_info    0x0000000000000000      0x317 CMakeFiles/CH32V307WCU6.elf.dir/Peripheral/src/ch32v30x_dvp.c.obj
 .debug_abbrev  0x0000000000000000      0x107 CMakeFiles/CH32V307WCU6.elf.dir/Peripheral/src/ch32v30x_dvp.c.obj
 .debug_loc     0x0000000000000000       0x74 CMakeFiles/CH32V307WCU6.elf.dir/Peripheral/src/ch32v30x_dvp.c.obj
 .debug_aranges
                0x0000000000000000       0x30 CMakeFiles/CH32V307WCU6.elf.dir/Peripheral/src/ch32v30x_dvp.c.obj
 .debug_ranges  0x0000000000000000       0x20 CMakeFiles/CH32V307WCU6.elf.dir/Peripheral/src/ch32v30x_dvp.c.obj
 .debug_line    0x0000000000000000      0x3f9 CMakeFiles/CH32V307WCU6.elf.dir/Peripheral/src/ch32v30x_dvp.c.obj
 .debug_str     0x0000000000000000      0x3b0 CMakeFiles/CH32V307WCU6.elf.dir/Peripheral/src/ch32v30x_dvp.c.obj
 .comment       0x0000000000000000       0x34 CMakeFiles/CH32V307WCU6.elf.dir/Peripheral/src/ch32v30x_dvp.c.obj
 .debug_frame   0x0000000000000000       0x40 CMakeFiles/CH32V307WCU6.elf.dir/Peripheral/src/ch32v30x_dvp.c.obj
 .text          0x0000000000000000        0x0 CMakeFiles/CH32V307WCU6.elf.dir/Peripheral/src/ch32v30x_eth.c.obj
 .data          0x0000000000000000        0x0 CMakeFiles/CH32V307WCU6.elf.dir/Peripheral/src/ch32v30x_eth.c.obj
 .bss           0x0000000000000000        0x0 CMakeFiles/CH32V307WCU6.elf.dir/Peripheral/src/ch32v30x_eth.c.obj
 .text.ETH_DeInit
                0x0000000000000000       0x28 CMakeFiles/CH32V307WCU6.elf.dir/Peripheral/src/ch32v30x_eth.c.obj
 .text.ETH_StructInit
                0x0000000000000000       0xd8 CMakeFiles/CH32V307WCU6.elf.dir/Peripheral/src/ch32v30x_eth.c.obj
 .text.ETH_HandleTxPkt
                0x0000000000000000       0xca CMakeFiles/CH32V307WCU6.elf.dir/Peripheral/src/ch32v30x_eth.c.obj
 .text.ETH_HandleRxPkt
                0x0000000000000000       0xd8 CMakeFiles/CH32V307WCU6.elf.dir/Peripheral/src/ch32v30x_eth.c.obj
 .text.ETH_DropRxPkt
                0x0000000000000000       0x58 CMakeFiles/CH32V307WCU6.elf.dir/Peripheral/src/ch32v30x_eth.c.obj
 .text.ETH_ReadPHYRegister
                0x0000000000000000       0x62 CMakeFiles/CH32V307WCU6.elf.dir/Peripheral/src/ch32v30x_eth.c.obj
 .text.ETH_WritePHYRegister
                0x0000000000000000       0x5c CMakeFiles/CH32V307WCU6.elf.dir/Peripheral/src/ch32v30x_eth.c.obj
 .text.ETH_PHYLoopBackCmd
                0x0000000000000000       0x44 CMakeFiles/CH32V307WCU6.elf.dir/Peripheral/src/ch32v30x_eth.c.obj
 .text.ETH_MACTransmissionCmd
                0x0000000000000000       0x1c CMakeFiles/CH32V307WCU6.elf.dir/Peripheral/src/ch32v30x_eth.c.obj
 .text.ETH_MACReceptionCmd
                0x0000000000000000       0x1c CMakeFiles/CH32V307WCU6.elf.dir/Peripheral/src/ch32v30x_eth.c.obj
 .text.ETH_GetFlowControlBusyStatus
                0x0000000000000000       0x12 CMakeFiles/CH32V307WCU6.elf.dir/Peripheral/src/ch32v30x_eth.c.obj
 .text.ETH_InitiatePauseControlFrame
                0x0000000000000000        0xe CMakeFiles/CH32V307WCU6.elf.dir/Peripheral/src/ch32v30x_eth.c.obj
 .text.ETH_BackPressureActivationCmd
                0x0000000000000000       0x1c CMakeFiles/CH32V307WCU6.elf.dir/Peripheral/src/ch32v30x_eth.c.obj
 .text.ETH_GetMACFlagStatus
                0x0000000000000000       0x12 CMakeFiles/CH32V307WCU6.elf.dir/Peripheral/src/ch32v30x_eth.c.obj
 .text.ETH_GetMACITStatus
                0x0000000000000000       0x12 CMakeFiles/CH32V307WCU6.elf.dir/Peripheral/src/ch32v30x_eth.c.obj
 .text.ETH_MACITConfig
                0x0000000000000000       0x1e CMakeFiles/CH32V307WCU6.elf.dir/Peripheral/src/ch32v30x_eth.c.obj
 .text.ETH_MACAddressConfig
                0x0000000000000000       0x32 CMakeFiles/CH32V307WCU6.elf.dir/Peripheral/src/ch32v30x_eth.c.obj
 .text.ETH_GetMACAddress
                0x0000000000000000       0x32 CMakeFiles/CH32V307WCU6.elf.dir/Peripheral/src/ch32v30x_eth.c.obj
 .text.ETH_MACAddressPerfectFilterCmd
                0x0000000000000000       0x32 CMakeFiles/CH32V307WCU6.elf.dir/Peripheral/src/ch32v30x_eth.c.obj
 .text.ETH_MACAddressFilterConfig
                0x0000000000000000       0x34 CMakeFiles/CH32V307WCU6.elf.dir/Peripheral/src/ch32v30x_eth.c.obj
 .text.ETH_MACAddressMaskBytesFilterConfig
                0x0000000000000000       0x1e CMakeFiles/CH32V307WCU6.elf.dir/Peripheral/src/ch32v30x_eth.c.obj
 .text.ETH_DMATxDescChainInit
                0x0000000000000000       0x4a CMakeFiles/CH32V307WCU6.elf.dir/Peripheral/src/ch32v30x_eth.c.obj
 .text.ETH_DMATxDescRingInit
                0x0000000000000000       0x4a CMakeFiles/CH32V307WCU6.elf.dir/Peripheral/src/ch32v30x_eth.c.obj
 .text.ETH_GetDMATxDescFlagStatus
                0x0000000000000000        0xe CMakeFiles/CH32V307WCU6.elf.dir/Peripheral/src/ch32v30x_eth.c.obj
 .text.ETH_GetDMATxDescCollisionCount
                0x0000000000000000        0x8 CMakeFiles/CH32V307WCU6.elf.dir/Peripheral/src/ch32v30x_eth.c.obj
 .text.ETH_SetDMATxDescOwnBit
                0x0000000000000000        0xc CMakeFiles/CH32V307WCU6.elf.dir/Peripheral/src/ch32v30x_eth.c.obj
 .text.ETH_DMATxDescTransmitITConfig
                0x0000000000000000       0x1c CMakeFiles/CH32V307WCU6.elf.dir/Peripheral/src/ch32v30x_eth.c.obj
 .text.ETH_DMATxDescFrameSegmentConfig
                0x0000000000000000        0x8 CMakeFiles/CH32V307WCU6.elf.dir/Peripheral/src/ch32v30x_eth.c.obj
 .text.ETH_DMATxDescChecksumInsertionConfig
                0x0000000000000000        0x8 CMakeFiles/CH32V307WCU6.elf.dir/Peripheral/src/ch32v30x_eth.c.obj
 .text.ETH_DMATxDescCRCCmd
                0x0000000000000000       0x1c CMakeFiles/CH32V307WCU6.elf.dir/Peripheral/src/ch32v30x_eth.c.obj
 .text.ETH_DMATxDescEndOfRingCmd
                0x0000000000000000       0x1c CMakeFiles/CH32V307WCU6.elf.dir/Peripheral/src/ch32v30x_eth.c.obj
 .text.ETH_DMATxDescSecondAddressChainedCmd
                0x0000000000000000       0x1c CMakeFiles/CH32V307WCU6.elf.dir/Peripheral/src/ch32v30x_eth.c.obj
 .text.ETH_DMATxDescShortFramePaddingCmd
                0x0000000000000000       0x1c CMakeFiles/CH32V307WCU6.elf.dir/Peripheral/src/ch32v30x_eth.c.obj
 .text.ETH_DMATxDescTimeStampCmd
                0x0000000000000000       0x1c CMakeFiles/CH32V307WCU6.elf.dir/Peripheral/src/ch32v30x_eth.c.obj
 .text.ETH_DMATxDescBufferSizeConfig
                0x0000000000000000        0xc CMakeFiles/CH32V307WCU6.elf.dir/Peripheral/src/ch32v30x_eth.c.obj
 .text.ETH_DMARxDescChainInit
                0x0000000000000000       0x52 CMakeFiles/CH32V307WCU6.elf.dir/Peripheral/src/ch32v30x_eth.c.obj
 .text.ETH_DMARxDescRingInit
                0x0000000000000000       0x5c CMakeFiles/CH32V307WCU6.elf.dir/Peripheral/src/ch32v30x_eth.c.obj
 .text.ETH_GetDMARxDescFlagStatus
                0x0000000000000000        0xe CMakeFiles/CH32V307WCU6.elf.dir/Peripheral/src/ch32v30x_eth.c.obj
 .text.ETH_SetDMARxDescOwnBit
                0x0000000000000000        0xc CMakeFiles/CH32V307WCU6.elf.dir/Peripheral/src/ch32v30x_eth.c.obj
 .text.ETH_GetDMARxDescFrameLength
                0x0000000000000000        0xc CMakeFiles/CH32V307WCU6.elf.dir/Peripheral/src/ch32v30x_eth.c.obj
 .text.ETH_GetRxPktSize
                0x0000000000000000       0x52 CMakeFiles/CH32V307WCU6.elf.dir/Peripheral/src/ch32v30x_eth.c.obj
 .text.ETH_DMARxDescReceiveITConfig
                0x0000000000000000       0x1e CMakeFiles/CH32V307WCU6.elf.dir/Peripheral/src/ch32v30x_eth.c.obj
 .text.ETH_DMARxDescEndOfRingCmd
                0x0000000000000000       0x18 CMakeFiles/CH32V307WCU6.elf.dir/Peripheral/src/ch32v30x_eth.c.obj
 .text.ETH_DMARxDescSecondAddressChainedCmd
                0x0000000000000000       0x18 CMakeFiles/CH32V307WCU6.elf.dir/Peripheral/src/ch32v30x_eth.c.obj
 .text.ETH_GetDMARxDescBufferSize
                0x0000000000000000       0x16 CMakeFiles/CH32V307WCU6.elf.dir/Peripheral/src/ch32v30x_eth.c.obj
 .text.ETH_SoftwareReset
                0x0000000000000000        0xe CMakeFiles/CH32V307WCU6.elf.dir/Peripheral/src/ch32v30x_eth.c.obj
 .text.ETH_GetSoftwareResetStatus
                0x0000000000000000       0x12 CMakeFiles/CH32V307WCU6.elf.dir/Peripheral/src/ch32v30x_eth.c.obj
 .text.ETH_GetlinkStaus
                0x0000000000000000       0x12 CMakeFiles/CH32V307WCU6.elf.dir/Peripheral/src/ch32v30x_eth.c.obj
 .text.ETH_GetDMAFlagStatus
                0x0000000000000000       0x12 CMakeFiles/CH32V307WCU6.elf.dir/Peripheral/src/ch32v30x_eth.c.obj
 .text.ETH_DMAClearFlag
                0x0000000000000000        0x8 CMakeFiles/CH32V307WCU6.elf.dir/Peripheral/src/ch32v30x_eth.c.obj
 .text.ETH_GetDMAITStatus
                0x0000000000000000       0x12 CMakeFiles/CH32V307WCU6.elf.dir/Peripheral/src/ch32v30x_eth.c.obj
 .text.ETH_DMAClearITPendingBit
                0x0000000000000000        0x8 CMakeFiles/CH32V307WCU6.elf.dir/Peripheral/src/ch32v30x_eth.c.obj
 .text.ETH_GetTransmitProcessState
                0x0000000000000000        0xa CMakeFiles/CH32V307WCU6.elf.dir/Peripheral/src/ch32v30x_eth.c.obj
 .text.ETH_GetReceiveProcessState
                0x0000000000000000        0xc CMakeFiles/CH32V307WCU6.elf.dir/Peripheral/src/ch32v30x_eth.c.obj
 .text.ETH_FlushTransmitFIFO
                0x0000000000000000       0x10 CMakeFiles/CH32V307WCU6.elf.dir/Peripheral/src/ch32v30x_eth.c.obj
 .text.ETH_GetFlushTransmitFIFOStatus
                0x0000000000000000       0x16 CMakeFiles/CH32V307WCU6.elf.dir/Peripheral/src/ch32v30x_eth.c.obj
 .text.ETH_DMATransmissionCmd
                0x0000000000000000       0x20 CMakeFiles/CH32V307WCU6.elf.dir/Peripheral/src/ch32v30x_eth.c.obj
 .text.ETH_DMAReceptionCmd
                0x0000000000000000       0x1c CMakeFiles/CH32V307WCU6.elf.dir/Peripheral/src/ch32v30x_eth.c.obj
 .text.ETH_Start
                0x0000000000000000       0x40 CMakeFiles/CH32V307WCU6.elf.dir/Peripheral/src/ch32v30x_eth.c.obj
 .text.ETH_DMAITConfig
                0x0000000000000000       0x1e CMakeFiles/CH32V307WCU6.elf.dir/Peripheral/src/ch32v30x_eth.c.obj
 .text.ETH_GetDMAOverflowStatus
                0x0000000000000000       0x12 CMakeFiles/CH32V307WCU6.elf.dir/Peripheral/src/ch32v30x_eth.c.obj
 .text.ETH_GetRxOverflowMissedFrameCounter
                0x0000000000000000        0xe CMakeFiles/CH32V307WCU6.elf.dir/Peripheral/src/ch32v30x_eth.c.obj
 .text.ETH_GetBufferUnavailableMissedFrameCounter
                0x0000000000000000        0xc CMakeFiles/CH32V307WCU6.elf.dir/Peripheral/src/ch32v30x_eth.c.obj
 .text.ETH_GetCurrentTxDescStartAddress
                0x0000000000000000        0x8 CMakeFiles/CH32V307WCU6.elf.dir/Peripheral/src/ch32v30x_eth.c.obj
 .text.ETH_GetCurrentRxDescStartAddress
                0x0000000000000000        0x8 CMakeFiles/CH32V307WCU6.elf.dir/Peripheral/src/ch32v30x_eth.c.obj
 .text.ETH_GetCurrentTxBufferAddress
                0x0000000000000000        0xe CMakeFiles/CH32V307WCU6.elf.dir/Peripheral/src/ch32v30x_eth.c.obj
 .text.ETH_GetCurrentRxBufferAddress
                0x0000000000000000        0x8 CMakeFiles/CH32V307WCU6.elf.dir/Peripheral/src/ch32v30x_eth.c.obj
 .text.ETH_ResumeDMATransmission
                0x0000000000000000        0xa CMakeFiles/CH32V307WCU6.elf.dir/Peripheral/src/ch32v30x_eth.c.obj
 .text.ETH_ResumeDMAReception
                0x0000000000000000        0xa CMakeFiles/CH32V307WCU6.elf.dir/Peripheral/src/ch32v30x_eth.c.obj
 .text.ETH_ResetWakeUpFrameFilterRegisterPointer
                0x0000000000000000       0x10 CMakeFiles/CH32V307WCU6.elf.dir/Peripheral/src/ch32v30x_eth.c.obj
 .text.ETH_SetWakeUpFrameFilterRegister
                0x0000000000000000       0x1c CMakeFiles/CH32V307WCU6.elf.dir/Peripheral/src/ch32v30x_eth.c.obj
 .text.ETH_GlobalUnicastWakeUpCmd
                0x0000000000000000       0x1e CMakeFiles/CH32V307WCU6.elf.dir/Peripheral/src/ch32v30x_eth.c.obj
 .text.ETH_GetPMTFlagStatus
                0x0000000000000000       0x12 CMakeFiles/CH32V307WCU6.elf.dir/Peripheral/src/ch32v30x_eth.c.obj
 .text.ETH_WakeUpFrameDetectionCmd
                0x0000000000000000       0x1c CMakeFiles/CH32V307WCU6.elf.dir/Peripheral/src/ch32v30x_eth.c.obj
 .text.ETH_MagicPacketDetectionCmd
                0x0000000000000000       0x1c CMakeFiles/CH32V307WCU6.elf.dir/Peripheral/src/ch32v30x_eth.c.obj
 .text.ETH_PowerDownCmd
                0x0000000000000000       0x1c CMakeFiles/CH32V307WCU6.elf.dir/Peripheral/src/ch32v30x_eth.c.obj
 .text.ETH_MMCCounterFreezeCmd
                0x0000000000000000       0x24 CMakeFiles/CH32V307WCU6.elf.dir/Peripheral/src/ch32v30x_eth.c.obj
 .text.ETH_MMCResetOnReadCmd
                0x0000000000000000       0x24 CMakeFiles/CH32V307WCU6.elf.dir/Peripheral/src/ch32v30x_eth.c.obj
 .text.ETH_MMCCounterRolloverCmd
                0x0000000000000000       0x24 CMakeFiles/CH32V307WCU6.elf.dir/Peripheral/src/ch32v30x_eth.c.obj
 .text.ETH_MMCCountersReset
                0x0000000000000000       0x12 CMakeFiles/CH32V307WCU6.elf.dir/Peripheral/src/ch32v30x_eth.c.obj
 .text.ETH_MMCITConfig
                0x0000000000000000       0x5c CMakeFiles/CH32V307WCU6.elf.dir/Peripheral/src/ch32v30x_eth.c.obj
 .text.ETH_GetMMCITStatus
                0x0000000000000000       0x4c CMakeFiles/CH32V307WCU6.elf.dir/Peripheral/src/ch32v30x_eth.c.obj
 .text.ETH_GetMMCRegister
                0x0000000000000000        0xa CMakeFiles/CH32V307WCU6.elf.dir/Peripheral/src/ch32v30x_eth.c.obj
 .text.ETH_EnablePTPTimeStampAddend
                0x0000000000000000       0x12 CMakeFiles/CH32V307WCU6.elf.dir/Peripheral/src/ch32v30x_eth.c.obj
 .text.ETH_EnablePTPTimeStampInterruptTrigger
                0x0000000000000000       0x12 CMakeFiles/CH32V307WCU6.elf.dir/Peripheral/src/ch32v30x_eth.c.obj
 .text.ETH_EnablePTPTimeStampUpdate
                0x0000000000000000       0x12 CMakeFiles/CH32V307WCU6.elf.dir/Peripheral/src/ch32v30x_eth.c.obj
 .text.ETH_InitializePTPTimeStamp
                0x0000000000000000       0x12 CMakeFiles/CH32V307WCU6.elf.dir/Peripheral/src/ch32v30x_eth.c.obj
 .text.ETH_PTPUpdateMethodConfig
                0x0000000000000000       0x24 CMakeFiles/CH32V307WCU6.elf.dir/Peripheral/src/ch32v30x_eth.c.obj
 .text.ETH_PTPTimeStampCmd
                0x0000000000000000       0x24 CMakeFiles/CH32V307WCU6.elf.dir/Peripheral/src/ch32v30x_eth.c.obj
 .text.ETH_GetPTPFlagStatus
                0x0000000000000000       0x14 CMakeFiles/CH32V307WCU6.elf.dir/Peripheral/src/ch32v30x_eth.c.obj
 .text.ETH_SetPTPSubSecondIncrement
                0x0000000000000000        0xa CMakeFiles/CH32V307WCU6.elf.dir/Peripheral/src/ch32v30x_eth.c.obj
 .text.ETH_SetPTPTimeStampUpdate
                0x0000000000000000       0x10 CMakeFiles/CH32V307WCU6.elf.dir/Peripheral/src/ch32v30x_eth.c.obj
 .text.ETH_SetPTPTimeStampAddend
                0x0000000000000000        0xa CMakeFiles/CH32V307WCU6.elf.dir/Peripheral/src/ch32v30x_eth.c.obj
 .text.ETH_SetPTPTargetTime
                0x0000000000000000        0xe CMakeFiles/CH32V307WCU6.elf.dir/Peripheral/src/ch32v30x_eth.c.obj
 .text.ETH_GetPTPRegister
                0x0000000000000000        0xa CMakeFiles/CH32V307WCU6.elf.dir/Peripheral/src/ch32v30x_eth.c.obj
 .text.ETH_DMAPTPTxDescChainInit
                0x0000000000000000       0x78 CMakeFiles/CH32V307WCU6.elf.dir/Peripheral/src/ch32v30x_eth.c.obj
 .text.ETH_DMAPTPRxDescChainInit
                0x0000000000000000       0x82 CMakeFiles/CH32V307WCU6.elf.dir/Peripheral/src/ch32v30x_eth.c.obj
 .text.ETH_HandlePTPTxPkt
                0x0000000000000000      0x152 CMakeFiles/CH32V307WCU6.elf.dir/Peripheral/src/ch32v30x_eth.c.obj
 .text.ETH_HandlePTPRxPkt
                0x0000000000000000      0x102 CMakeFiles/CH32V307WCU6.elf.dir/Peripheral/src/ch32v30x_eth.c.obj
 .text.RGMII_TXC_Delay
                0x0000000000000000       0x2e CMakeFiles/CH32V307WCU6.elf.dir/Peripheral/src/ch32v30x_eth.c.obj
 .sbss.DMAPTPRxDescToGet
                0x0000000000000000        0x4 CMakeFiles/CH32V307WCU6.elf.dir/Peripheral/src/ch32v30x_eth.c.obj
 .sbss.DMAPTPTxDescToSet
                0x0000000000000000        0x4 CMakeFiles/CH32V307WCU6.elf.dir/Peripheral/src/ch32v30x_eth.c.obj
 .sbss.DMARxDescToGet
                0x0000000000000000        0x4 CMakeFiles/CH32V307WCU6.elf.dir/Peripheral/src/ch32v30x_eth.c.obj
 .sbss.DMATxDescToSet
                0x0000000000000000        0x4 CMakeFiles/CH32V307WCU6.elf.dir/Peripheral/src/ch32v30x_eth.c.obj
 .debug_info    0x0000000000000000     0x1cf4 CMakeFiles/CH32V307WCU6.elf.dir/Peripheral/src/ch32v30x_eth.c.obj
 .debug_abbrev  0x0000000000000000      0x294 CMakeFiles/CH32V307WCU6.elf.dir/Peripheral/src/ch32v30x_eth.c.obj
 .debug_loc     0x0000000000000000      0xd69 CMakeFiles/CH32V307WCU6.elf.dir/Peripheral/src/ch32v30x_eth.c.obj
 .debug_aranges
                0x0000000000000000      0x338 CMakeFiles/CH32V307WCU6.elf.dir/Peripheral/src/ch32v30x_eth.c.obj
 .debug_ranges  0x0000000000000000      0x328 CMakeFiles/CH32V307WCU6.elf.dir/Peripheral/src/ch32v30x_eth.c.obj
 .debug_line    0x0000000000000000     0x34cb CMakeFiles/CH32V307WCU6.elf.dir/Peripheral/src/ch32v30x_eth.c.obj
 .debug_str     0x0000000000000000     0x1571 CMakeFiles/CH32V307WCU6.elf.dir/Peripheral/src/ch32v30x_eth.c.obj
 .comment       0x0000000000000000       0x34 CMakeFiles/CH32V307WCU6.elf.dir/Peripheral/src/ch32v30x_eth.c.obj
 .debug_frame   0x0000000000000000      0x6a0 CMakeFiles/CH32V307WCU6.elf.dir/Peripheral/src/ch32v30x_eth.c.obj
 .text          0x0000000000000000        0x0 CMakeFiles/CH32V307WCU6.elf.dir/Peripheral/src/ch32v30x_exti.c.obj
 .data          0x0000000000000000        0x0 CMakeFiles/CH32V307WCU6.elf.dir/Peripheral/src/ch32v30x_exti.c.obj
 .bss           0x0000000000000000        0x0 CMakeFiles/CH32V307WCU6.elf.dir/Peripheral/src/ch32v30x_exti.c.obj
 .text.EXTI_DeInit
                0x0000000000000000       0x22 CMakeFiles/CH32V307WCU6.elf.dir/Peripheral/src/ch32v30x_exti.c.obj
 .text.EXTI_Init
                0x0000000000000000       0xa2 CMakeFiles/CH32V307WCU6.elf.dir/Peripheral/src/ch32v30x_exti.c.obj
 .text.EXTI_StructInit
                0x0000000000000000       0x12 CMakeFiles/CH32V307WCU6.elf.dir/Peripheral/src/ch32v30x_exti.c.obj
 .text.EXTI_GenerateSWInterrupt
                0x0000000000000000       0x10 CMakeFiles/CH32V307WCU6.elf.dir/Peripheral/src/ch32v30x_exti.c.obj
 .text.EXTI_GetFlagStatus
                0x0000000000000000       0x16 CMakeFiles/CH32V307WCU6.elf.dir/Peripheral/src/ch32v30x_exti.c.obj
 .text.EXTI_ClearFlag
                0x0000000000000000        0xa CMakeFiles/CH32V307WCU6.elf.dir/Peripheral/src/ch32v30x_exti.c.obj
 .text.EXTI_GetITStatus
                0x0000000000000000       0x20 CMakeFiles/CH32V307WCU6.elf.dir/Peripheral/src/ch32v30x_exti.c.obj
 .text.EXTI_ClearITPendingBit
                0x0000000000000000        0xa CMakeFiles/CH32V307WCU6.elf.dir/Peripheral/src/ch32v30x_exti.c.obj
 .debug_info    0x0000000000000000      0x35f CMakeFiles/CH32V307WCU6.elf.dir/Peripheral/src/ch32v30x_exti.c.obj
 .debug_abbrev  0x0000000000000000      0x179 CMakeFiles/CH32V307WCU6.elf.dir/Peripheral/src/ch32v30x_exti.c.obj
 .debug_loc     0x0000000000000000      0x12d CMakeFiles/CH32V307WCU6.elf.dir/Peripheral/src/ch32v30x_exti.c.obj
 .debug_aranges
                0x0000000000000000       0x58 CMakeFiles/CH32V307WCU6.elf.dir/Peripheral/src/ch32v30x_exti.c.obj
 .debug_ranges  0x0000000000000000       0x48 CMakeFiles/CH32V307WCU6.elf.dir/Peripheral/src/ch32v30x_exti.c.obj
 .debug_line    0x0000000000000000      0x6c3 CMakeFiles/CH32V307WCU6.elf.dir/Peripheral/src/ch32v30x_exti.c.obj
 .debug_str     0x0000000000000000      0x401 CMakeFiles/CH32V307WCU6.elf.dir/Peripheral/src/ch32v30x_exti.c.obj
 .comment       0x0000000000000000       0x34 CMakeFiles/CH32V307WCU6.elf.dir/Peripheral/src/ch32v30x_exti.c.obj
 .debug_frame   0x0000000000000000       0x90 CMakeFiles/CH32V307WCU6.elf.dir/Peripheral/src/ch32v30x_exti.c.obj
 .text          0x0000000000000000        0x0 CMakeFiles/CH32V307WCU6.elf.dir/Peripheral/src/ch32v30x_flash.c.obj
 .data          0x0000000000000000        0x0 CMakeFiles/CH32V307WCU6.elf.dir/Peripheral/src/ch32v30x_flash.c.obj
 .bss           0x0000000000000000        0x0 CMakeFiles/CH32V307WCU6.elf.dir/Peripheral/src/ch32v30x_flash.c.obj
 .text.ROM_ERASE
                0x0000000000000000       0xac CMakeFiles/CH32V307WCU6.elf.dir/Peripheral/src/ch32v30x_flash.c.obj
 .text.FLASH_Unlock
                0x0000000000000000       0x1a CMakeFiles/CH32V307WCU6.elf.dir/Peripheral/src/ch32v30x_flash.c.obj
 .text.FLASH_UnlockBank1
                0x0000000000000000       0x1a CMakeFiles/CH32V307WCU6.elf.dir/Peripheral/src/ch32v30x_flash.c.obj
 .text.FLASH_Lock
                0x0000000000000000        0xe CMakeFiles/CH32V307WCU6.elf.dir/Peripheral/src/ch32v30x_flash.c.obj
 .text.FLASH_LockBank1
                0x0000000000000000        0xe CMakeFiles/CH32V307WCU6.elf.dir/Peripheral/src/ch32v30x_flash.c.obj
 .text.FLASH_GetUserOptionByte
                0x0000000000000000        0xa CMakeFiles/CH32V307WCU6.elf.dir/Peripheral/src/ch32v30x_flash.c.obj
 .text.FLASH_GetWriteProtectionOptionByte
                0x0000000000000000        0x8 CMakeFiles/CH32V307WCU6.elf.dir/Peripheral/src/ch32v30x_flash.c.obj
 .text.FLASH_GetReadOutProtectionStatus
                0x0000000000000000       0x12 CMakeFiles/CH32V307WCU6.elf.dir/Peripheral/src/ch32v30x_flash.c.obj
 .text.FLASH_ITConfig
                0x0000000000000000       0x1e CMakeFiles/CH32V307WCU6.elf.dir/Peripheral/src/ch32v30x_flash.c.obj
 .text.FLASH_GetFlagStatus
                0x0000000000000000       0x2a CMakeFiles/CH32V307WCU6.elf.dir/Peripheral/src/ch32v30x_flash.c.obj
 .text.FLASH_ClearFlag
                0x0000000000000000        0x8 CMakeFiles/CH32V307WCU6.elf.dir/Peripheral/src/ch32v30x_flash.c.obj
 .text.FLASH_GetStatus
                0x0000000000000000       0x20 CMakeFiles/CH32V307WCU6.elf.dir/Peripheral/src/ch32v30x_flash.c.obj
 .text.FLASH_GetBank1Status
                0x0000000000000000       0x20 CMakeFiles/CH32V307WCU6.elf.dir/Peripheral/src/ch32v30x_flash.c.obj
 .text.FLASH_WaitForLastOperation
                0x0000000000000000       0x34 CMakeFiles/CH32V307WCU6.elf.dir/Peripheral/src/ch32v30x_flash.c.obj
 .text.FLASH_ErasePage
                0x0000000000000000       0x4e CMakeFiles/CH32V307WCU6.elf.dir/Peripheral/src/ch32v30x_flash.c.obj
 .text.FLASH_EraseAllPages
                0x0000000000000000       0x4a CMakeFiles/CH32V307WCU6.elf.dir/Peripheral/src/ch32v30x_flash.c.obj
 .text.FLASH_EraseOptionBytes
                0x0000000000000000      0x10e CMakeFiles/CH32V307WCU6.elf.dir/Peripheral/src/ch32v30x_flash.c.obj
 .text.FLASH_ProgramWord
                0x0000000000000000       0x7a CMakeFiles/CH32V307WCU6.elf.dir/Peripheral/src/ch32v30x_flash.c.obj
 .text.FLASH_ProgramHalfWord
                0x0000000000000000       0x4c CMakeFiles/CH32V307WCU6.elf.dir/Peripheral/src/ch32v30x_flash.c.obj
 .text.FLASH_ProgramOptionByteData
                0x0000000000000000      0x12e CMakeFiles/CH32V307WCU6.elf.dir/Peripheral/src/ch32v30x_flash.c.obj
 .text.FLASH_EnableWriteProtection
                0x0000000000000000      0x132 CMakeFiles/CH32V307WCU6.elf.dir/Peripheral/src/ch32v30x_flash.c.obj
 .text.FLASH_ReadOutProtection
                0x0000000000000000      0x124 CMakeFiles/CH32V307WCU6.elf.dir/Peripheral/src/ch32v30x_flash.c.obj
 .text.FLASH_UserOptionByteConfig
                0x0000000000000000      0x11c CMakeFiles/CH32V307WCU6.elf.dir/Peripheral/src/ch32v30x_flash.c.obj
 .text.FLASH_WaitForLastBank1Operation
                0x0000000000000000       0x34 CMakeFiles/CH32V307WCU6.elf.dir/Peripheral/src/ch32v30x_flash.c.obj
 .text.FLASH_EraseAllBank1Pages
                0x0000000000000000       0x4a CMakeFiles/CH32V307WCU6.elf.dir/Peripheral/src/ch32v30x_flash.c.obj
 .text.FLASH_Unlock_Fast
                0x0000000000000000       0x1e CMakeFiles/CH32V307WCU6.elf.dir/Peripheral/src/ch32v30x_flash.c.obj
 .text.FLASH_Lock_Fast
                0x0000000000000000        0xe CMakeFiles/CH32V307WCU6.elf.dir/Peripheral/src/ch32v30x_flash.c.obj
 .text.FLASH_ErasePage_Fast
                0x0000000000000000       0x36 CMakeFiles/CH32V307WCU6.elf.dir/Peripheral/src/ch32v30x_flash.c.obj
 .text.FLASH_EraseBlock_32K_Fast
                0x0000000000000000       0x38 CMakeFiles/CH32V307WCU6.elf.dir/Peripheral/src/ch32v30x_flash.c.obj
 .text.FLASH_EraseBlock_64K_Fast
                0x0000000000000000       0x38 CMakeFiles/CH32V307WCU6.elf.dir/Peripheral/src/ch32v30x_flash.c.obj
 .text.FLASH_ProgramPage_Fast
                0x0000000000000000       0x6c CMakeFiles/CH32V307WCU6.elf.dir/Peripheral/src/ch32v30x_flash.c.obj
 .text.FLASH_Access_Clock_Cfg
                0x0000000000000000       0x18 CMakeFiles/CH32V307WCU6.elf.dir/Peripheral/src/ch32v30x_flash.c.obj
 .text.FLASH_Enhance_Mode
                0x0000000000000000       0x2e CMakeFiles/CH32V307WCU6.elf.dir/Peripheral/src/ch32v30x_flash.c.obj
 .text.FLASH_ROM_ERASE
                0x0000000000000000      0x1d2 CMakeFiles/CH32V307WCU6.elf.dir/Peripheral/src/ch32v30x_flash.c.obj
 .text.FLASH_ROM_WRITE
                0x0000000000000000       0xe8 CMakeFiles/CH32V307WCU6.elf.dir/Peripheral/src/ch32v30x_flash.c.obj
 .debug_info    0x0000000000000000      0xd67 CMakeFiles/CH32V307WCU6.elf.dir/Peripheral/src/ch32v30x_flash.c.obj
 .debug_abbrev  0x0000000000000000      0x2a1 CMakeFiles/CH32V307WCU6.elf.dir/Peripheral/src/ch32v30x_flash.c.obj
 .debug_loc     0x0000000000000000      0xb6f CMakeFiles/CH32V307WCU6.elf.dir/Peripheral/src/ch32v30x_flash.c.obj
 .debug_aranges
                0x0000000000000000      0x130 CMakeFiles/CH32V307WCU6.elf.dir/Peripheral/src/ch32v30x_flash.c.obj
 .debug_ranges  0x0000000000000000      0x120 CMakeFiles/CH32V307WCU6.elf.dir/Peripheral/src/ch32v30x_flash.c.obj
 .debug_line    0x0000000000000000     0x252e CMakeFiles/CH32V307WCU6.elf.dir/Peripheral/src/ch32v30x_flash.c.obj
 .debug_str     0x0000000000000000      0x787 CMakeFiles/CH32V307WCU6.elf.dir/Peripheral/src/ch32v30x_flash.c.obj
 .comment       0x0000000000000000       0x34 CMakeFiles/CH32V307WCU6.elf.dir/Peripheral/src/ch32v30x_flash.c.obj
 .debug_frame   0x0000000000000000      0x368 CMakeFiles/CH32V307WCU6.elf.dir/Peripheral/src/ch32v30x_flash.c.obj
 .text          0x0000000000000000        0x0 CMakeFiles/CH32V307WCU6.elf.dir/Peripheral/src/ch32v30x_fsmc.c.obj
 .data          0x0000000000000000        0x0 CMakeFiles/CH32V307WCU6.elf.dir/Peripheral/src/ch32v30x_fsmc.c.obj
 .bss           0x0000000000000000        0x0 CMakeFiles/CH32V307WCU6.elf.dir/Peripheral/src/ch32v30x_fsmc.c.obj
 .text.FSMC_NORSRAMDeInit
                0x0000000000000000       0x48 CMakeFiles/CH32V307WCU6.elf.dir/Peripheral/src/ch32v30x_fsmc.c.obj
 .text.FSMC_NANDDeInit
                0x0000000000000000       0x28 CMakeFiles/CH32V307WCU6.elf.dir/Peripheral/src/ch32v30x_fsmc.c.obj
 .text.FSMC_NORSRAMInit
                0x0000000000000000       0xe4 CMakeFiles/CH32V307WCU6.elf.dir/Peripheral/src/ch32v30x_fsmc.c.obj
 .text.FSMC_NANDInit
                0x0000000000000000       0x60 CMakeFiles/CH32V307WCU6.elf.dir/Peripheral/src/ch32v30x_fsmc.c.obj
 .text.FSMC_NORSRAMStructInit
                0x0000000000000000       0x78 CMakeFiles/CH32V307WCU6.elf.dir/Peripheral/src/ch32v30x_fsmc.c.obj
 .text.FSMC_NANDStructInit
                0x0000000000000000       0x42 CMakeFiles/CH32V307WCU6.elf.dir/Peripheral/src/ch32v30x_fsmc.c.obj
 .text.FSMC_NORSRAMCmd
                0x0000000000000000       0x2a CMakeFiles/CH32V307WCU6.elf.dir/Peripheral/src/ch32v30x_fsmc.c.obj
 .text.FSMC_NANDCmd
                0x0000000000000000       0x30 CMakeFiles/CH32V307WCU6.elf.dir/Peripheral/src/ch32v30x_fsmc.c.obj
 .text.FSMC_NANDECCCmd
                0x0000000000000000       0x32 CMakeFiles/CH32V307WCU6.elf.dir/Peripheral/src/ch32v30x_fsmc.c.obj
 .text.FSMC_GetECC
                0x0000000000000000       0x12 CMakeFiles/CH32V307WCU6.elf.dir/Peripheral/src/ch32v30x_fsmc.c.obj
 .text.FSMC_ITConfig
                0x0000000000000000       0x2c CMakeFiles/CH32V307WCU6.elf.dir/Peripheral/src/ch32v30x_fsmc.c.obj
 .text.FSMC_GetFlagStatus
                0x0000000000000000       0x20 CMakeFiles/CH32V307WCU6.elf.dir/Peripheral/src/ch32v30x_fsmc.c.obj
 .text.FSMC_ClearFlag
                0x0000000000000000       0x18 CMakeFiles/CH32V307WCU6.elf.dir/Peripheral/src/ch32v30x_fsmc.c.obj
 .text.FSMC_GetITStatus
                0x0000000000000000       0x2c CMakeFiles/CH32V307WCU6.elf.dir/Peripheral/src/ch32v30x_fsmc.c.obj
 .text.FSMC_ClearITPendingBit
                0x0000000000000000       0x1a CMakeFiles/CH32V307WCU6.elf.dir/Peripheral/src/ch32v30x_fsmc.c.obj
 .debug_info    0x0000000000000000      0x7a2 CMakeFiles/CH32V307WCU6.elf.dir/Peripheral/src/ch32v30x_fsmc.c.obj
 .debug_abbrev  0x0000000000000000      0x1da CMakeFiles/CH32V307WCU6.elf.dir/Peripheral/src/ch32v30x_fsmc.c.obj
 .debug_loc     0x0000000000000000      0x3be CMakeFiles/CH32V307WCU6.elf.dir/Peripheral/src/ch32v30x_fsmc.c.obj
 .debug_aranges
                0x0000000000000000       0x90 CMakeFiles/CH32V307WCU6.elf.dir/Peripheral/src/ch32v30x_fsmc.c.obj
 .debug_ranges  0x0000000000000000       0x80 CMakeFiles/CH32V307WCU6.elf.dir/Peripheral/src/ch32v30x_fsmc.c.obj
 .debug_line    0x0000000000000000      0xfd7 CMakeFiles/CH32V307WCU6.elf.dir/Peripheral/src/ch32v30x_fsmc.c.obj
 .debug_str     0x0000000000000000      0x73c CMakeFiles/CH32V307WCU6.elf.dir/Peripheral/src/ch32v30x_fsmc.c.obj
 .comment       0x0000000000000000       0x34 CMakeFiles/CH32V307WCU6.elf.dir/Peripheral/src/ch32v30x_fsmc.c.obj
 .debug_frame   0x0000000000000000      0x100 CMakeFiles/CH32V307WCU6.elf.dir/Peripheral/src/ch32v30x_fsmc.c.obj
 .text          0x0000000000000000        0x0 CMakeFiles/CH32V307WCU6.elf.dir/Peripheral/src/ch32v30x_gpio.c.obj
 .data          0x0000000000000000        0x0 CMakeFiles/CH32V307WCU6.elf.dir/Peripheral/src/ch32v30x_gpio.c.obj
 .bss           0x0000000000000000        0x0 CMakeFiles/CH32V307WCU6.elf.dir/Peripheral/src/ch32v30x_gpio.c.obj
 .text.GPIO_DeInit
                0x0000000000000000       0xd2 CMakeFiles/CH32V307WCU6.elf.dir/Peripheral/src/ch32v30x_gpio.c.obj
 .text.GPIO_AFIODeInit
                0x0000000000000000       0x28 CMakeFiles/CH32V307WCU6.elf.dir/Peripheral/src/ch32v30x_gpio.c.obj
 .text.GPIO_ReadInputDataBit
                0x0000000000000000        0xe CMakeFiles/CH32V307WCU6.elf.dir/Peripheral/src/ch32v30x_gpio.c.obj
 .text.GPIO_ReadInputData
                0x0000000000000000        0x8 CMakeFiles/CH32V307WCU6.elf.dir/Peripheral/src/ch32v30x_gpio.c.obj
 .text.GPIO_ReadOutputDataBit
                0x0000000000000000        0xe CMakeFiles/CH32V307WCU6.elf.dir/Peripheral/src/ch32v30x_gpio.c.obj
 .text.GPIO_ReadOutputData
                0x0000000000000000        0x8 CMakeFiles/CH32V307WCU6.elf.dir/Peripheral/src/ch32v30x_gpio.c.obj
 .text.GPIO_WriteBit
                0x0000000000000000        0xa CMakeFiles/CH32V307WCU6.elf.dir/Peripheral/src/ch32v30x_gpio.c.obj
 .text.GPIO_Write
                0x0000000000000000        0x4 CMakeFiles/CH32V307WCU6.elf.dir/Peripheral/src/ch32v30x_gpio.c.obj
 .text.GPIO_PinLockConfig
                0x0000000000000000       0x10 CMakeFiles/CH32V307WCU6.elf.dir/Peripheral/src/ch32v30x_gpio.c.obj
 .text.GPIO_EventOutputConfig
                0x0000000000000000       0x18 CMakeFiles/CH32V307WCU6.elf.dir/Peripheral/src/ch32v30x_gpio.c.obj
 .text.GPIO_EventOutputCmd
                0x0000000000000000       0x1e CMakeFiles/CH32V307WCU6.elf.dir/Peripheral/src/ch32v30x_gpio.c.obj
 .text.GPIO_EXTILineConfig
                0x0000000000000000       0x2c CMakeFiles/CH32V307WCU6.elf.dir/Peripheral/src/ch32v30x_gpio.c.obj
 .text.GPIO_ETH_MediaInterfaceConfig
                0x0000000000000000       0x24 CMakeFiles/CH32V307WCU6.elf.dir/Peripheral/src/ch32v30x_gpio.c.obj
 .text.GPIO_IPD_Unused
                0x0000000000000000      0x18e CMakeFiles/CH32V307WCU6.elf.dir/Peripheral/src/ch32v30x_gpio.c.obj
 .text          0x0000000000000000        0x0 CMakeFiles/CH32V307WCU6.elf.dir/Peripheral/src/ch32v30x_i2c.c.obj
 .data          0x0000000000000000        0x0 CMakeFiles/CH32V307WCU6.elf.dir/Peripheral/src/ch32v30x_i2c.c.obj
 .bss           0x0000000000000000        0x0 CMakeFiles/CH32V307WCU6.elf.dir/Peripheral/src/ch32v30x_i2c.c.obj
 .text.I2C_DeInit
                0x0000000000000000       0x56 CMakeFiles/CH32V307WCU6.elf.dir/Peripheral/src/ch32v30x_i2c.c.obj
 .text.I2C_Init
                0x0000000000000000      0x112 CMakeFiles/CH32V307WCU6.elf.dir/Peripheral/src/ch32v30x_i2c.c.obj
 .text.I2C_StructInit
                0x0000000000000000       0x20 CMakeFiles/CH32V307WCU6.elf.dir/Peripheral/src/ch32v30x_i2c.c.obj
 .text.I2C_Cmd  0x0000000000000000       0x1c CMakeFiles/CH32V307WCU6.elf.dir/Peripheral/src/ch32v30x_i2c.c.obj
 .text.I2C_DMACmd
                0x0000000000000000       0x22 CMakeFiles/CH32V307WCU6.elf.dir/Peripheral/src/ch32v30x_i2c.c.obj
 .text.I2C_DMALastTransferCmd
                0x0000000000000000       0x18 CMakeFiles/CH32V307WCU6.elf.dir/Peripheral/src/ch32v30x_i2c.c.obj
 .text.I2C_GenerateSTART
                0x0000000000000000       0x1e CMakeFiles/CH32V307WCU6.elf.dir/Peripheral/src/ch32v30x_i2c.c.obj
 .text.I2C_GenerateSTOP
                0x0000000000000000       0x1e CMakeFiles/CH32V307WCU6.elf.dir/Peripheral/src/ch32v30x_i2c.c.obj
 .text.I2C_AcknowledgeConfig
                0x0000000000000000       0x1e CMakeFiles/CH32V307WCU6.elf.dir/Peripheral/src/ch32v30x_i2c.c.obj
 .text.I2C_OwnAddress2Config
                0x0000000000000000       0x14 CMakeFiles/CH32V307WCU6.elf.dir/Peripheral/src/ch32v30x_i2c.c.obj
 .text.I2C_DualAddressCmd
                0x0000000000000000       0x1c CMakeFiles/CH32V307WCU6.elf.dir/Peripheral/src/ch32v30x_i2c.c.obj
 .text.I2C_GeneralCallCmd
                0x0000000000000000       0x1e CMakeFiles/CH32V307WCU6.elf.dir/Peripheral/src/ch32v30x_i2c.c.obj
 .text.I2C_ITConfig
                0x0000000000000000       0x16 CMakeFiles/CH32V307WCU6.elf.dir/Peripheral/src/ch32v30x_i2c.c.obj
 .text.I2C_SendData
                0x0000000000000000        0x4 CMakeFiles/CH32V307WCU6.elf.dir/Peripheral/src/ch32v30x_i2c.c.obj
 .text.I2C_ReceiveData
                0x0000000000000000        0x8 CMakeFiles/CH32V307WCU6.elf.dir/Peripheral/src/ch32v30x_i2c.c.obj
 .text.I2C_Send7bitAddress
                0x0000000000000000       0x14 CMakeFiles/CH32V307WCU6.elf.dir/Peripheral/src/ch32v30x_i2c.c.obj
 .text.I2C_ReadRegister
                0x0000000000000000       0x14 CMakeFiles/CH32V307WCU6.elf.dir/Peripheral/src/ch32v30x_i2c.c.obj
 .text.I2C_SoftwareResetCmd
                0x0000000000000000       0x1c CMakeFiles/CH32V307WCU6.elf.dir/Peripheral/src/ch32v30x_i2c.c.obj
 .text.I2C_NACKPositionConfig
                0x0000000000000000       0x26 CMakeFiles/CH32V307WCU6.elf.dir/Peripheral/src/ch32v30x_i2c.c.obj
 .text.I2C_SMBusAlertConfig
                0x0000000000000000       0x1c CMakeFiles/CH32V307WCU6.elf.dir/Peripheral/src/ch32v30x_i2c.c.obj
 .text.I2C_TransmitPEC
                0x0000000000000000       0x18 CMakeFiles/CH32V307WCU6.elf.dir/Peripheral/src/ch32v30x_i2c.c.obj
 .text.I2C_PECPositionConfig
                0x0000000000000000       0x26 CMakeFiles/CH32V307WCU6.elf.dir/Peripheral/src/ch32v30x_i2c.c.obj
 .text.I2C_CalculatePEC
                0x0000000000000000       0x1e CMakeFiles/CH32V307WCU6.elf.dir/Peripheral/src/ch32v30x_i2c.c.obj
 .text.I2C_GetPEC
                0x0000000000000000        0x6 CMakeFiles/CH32V307WCU6.elf.dir/Peripheral/src/ch32v30x_i2c.c.obj
 .text.I2C_ARPCmd
                0x0000000000000000       0x1c CMakeFiles/CH32V307WCU6.elf.dir/Peripheral/src/ch32v30x_i2c.c.obj
 .text.I2C_StretchClockCmd
                0x0000000000000000       0x1e CMakeFiles/CH32V307WCU6.elf.dir/Peripheral/src/ch32v30x_i2c.c.obj
 .text.I2C_FastModeDutyCycleConfig
                0x0000000000000000       0x1c CMakeFiles/CH32V307WCU6.elf.dir/Peripheral/src/ch32v30x_i2c.c.obj
 .text.I2C_CheckEvent
                0x0000000000000000       0x1e CMakeFiles/CH32V307WCU6.elf.dir/Peripheral/src/ch32v30x_i2c.c.obj
 .text.I2C_GetLastEvent
                0x0000000000000000       0x12 CMakeFiles/CH32V307WCU6.elf.dir/Peripheral/src/ch32v30x_i2c.c.obj
 .text.I2C_GetFlagStatus
                0x0000000000000000       0x3c CMakeFiles/CH32V307WCU6.elf.dir/Peripheral/src/ch32v30x_i2c.c.obj
 .text.I2C_ClearFlag
                0x0000000000000000       0x14 CMakeFiles/CH32V307WCU6.elf.dir/Peripheral/src/ch32v30x_i2c.c.obj
 .text.I2C_GetITStatus
                0x0000000000000000       0x28 CMakeFiles/CH32V307WCU6.elf.dir/Peripheral/src/ch32v30x_i2c.c.obj
 .text.I2C_ClearITPendingBit
                0x0000000000000000       0x14 CMakeFiles/CH32V307WCU6.elf.dir/Peripheral/src/ch32v30x_i2c.c.obj
 .debug_info    0x0000000000000000      0xc0a CMakeFiles/CH32V307WCU6.elf.dir/Peripheral/src/ch32v30x_i2c.c.obj
 .debug_abbrev  0x0000000000000000      0x218 CMakeFiles/CH32V307WCU6.elf.dir/Peripheral/src/ch32v30x_i2c.c.obj
 .debug_loc     0x0000000000000000      0x669 CMakeFiles/CH32V307WCU6.elf.dir/Peripheral/src/ch32v30x_i2c.c.obj
 .debug_aranges
                0x0000000000000000      0x120 CMakeFiles/CH32V307WCU6.elf.dir/Peripheral/src/ch32v30x_i2c.c.obj
 .debug_ranges  0x0000000000000000      0x110 CMakeFiles/CH32V307WCU6.elf.dir/Peripheral/src/ch32v30x_i2c.c.obj
 .debug_line    0x0000000000000000     0x1108 CMakeFiles/CH32V307WCU6.elf.dir/Peripheral/src/ch32v30x_i2c.c.obj
 .debug_str     0x0000000000000000      0x754 CMakeFiles/CH32V307WCU6.elf.dir/Peripheral/src/ch32v30x_i2c.c.obj
 .comment       0x0000000000000000       0x34 CMakeFiles/CH32V307WCU6.elf.dir/Peripheral/src/ch32v30x_i2c.c.obj
 .debug_frame   0x0000000000000000      0x25c CMakeFiles/CH32V307WCU6.elf.dir/Peripheral/src/ch32v30x_i2c.c.obj
 .text          0x0000000000000000        0x0 CMakeFiles/CH32V307WCU6.elf.dir/Peripheral/src/ch32v30x_iwdg.c.obj
 .data          0x0000000000000000        0x0 CMakeFiles/CH32V307WCU6.elf.dir/Peripheral/src/ch32v30x_iwdg.c.obj
 .bss           0x0000000000000000        0x0 CMakeFiles/CH32V307WCU6.elf.dir/Peripheral/src/ch32v30x_iwdg.c.obj
 .text.IWDG_WriteAccessCmd
                0x0000000000000000        0x8 CMakeFiles/CH32V307WCU6.elf.dir/Peripheral/src/ch32v30x_iwdg.c.obj
 .text.IWDG_SetPrescaler
                0x0000000000000000        0x8 CMakeFiles/CH32V307WCU6.elf.dir/Peripheral/src/ch32v30x_iwdg.c.obj
 .text.IWDG_SetReload
                0x0000000000000000        0x8 CMakeFiles/CH32V307WCU6.elf.dir/Peripheral/src/ch32v30x_iwdg.c.obj
 .text.IWDG_ReloadCounter
                0x0000000000000000        0xe CMakeFiles/CH32V307WCU6.elf.dir/Peripheral/src/ch32v30x_iwdg.c.obj
 .text.IWDG_Enable
                0x0000000000000000        0xe CMakeFiles/CH32V307WCU6.elf.dir/Peripheral/src/ch32v30x_iwdg.c.obj
 .text.IWDG_GetFlagStatus
                0x0000000000000000       0x12 CMakeFiles/CH32V307WCU6.elf.dir/Peripheral/src/ch32v30x_iwdg.c.obj
 .debug_info    0x0000000000000000      0x203 CMakeFiles/CH32V307WCU6.elf.dir/Peripheral/src/ch32v30x_iwdg.c.obj
 .debug_abbrev  0x0000000000000000      0x148 CMakeFiles/CH32V307WCU6.elf.dir/Peripheral/src/ch32v30x_iwdg.c.obj
 .debug_loc     0x0000000000000000       0x21 CMakeFiles/CH32V307WCU6.elf.dir/Peripheral/src/ch32v30x_iwdg.c.obj
 .debug_aranges
                0x0000000000000000       0x48 CMakeFiles/CH32V307WCU6.elf.dir/Peripheral/src/ch32v30x_iwdg.c.obj
 .debug_ranges  0x0000000000000000       0x38 CMakeFiles/CH32V307WCU6.elf.dir/Peripheral/src/ch32v30x_iwdg.c.obj
 .debug_line    0x0000000000000000      0x3ac CMakeFiles/CH32V307WCU6.elf.dir/Peripheral/src/ch32v30x_iwdg.c.obj
 .debug_str     0x0000000000000000      0x313 CMakeFiles/CH32V307WCU6.elf.dir/Peripheral/src/ch32v30x_iwdg.c.obj
 .comment       0x0000000000000000       0x34 CMakeFiles/CH32V307WCU6.elf.dir/Peripheral/src/ch32v30x_iwdg.c.obj
 .debug_frame   0x0000000000000000       0x70 CMakeFiles/CH32V307WCU6.elf.dir/Peripheral/src/ch32v30x_iwdg.c.obj
 .text          0x0000000000000000        0x0 CMakeFiles/CH32V307WCU6.elf.dir/Peripheral/src/ch32v30x_misc.c.obj
 .data          0x0000000000000000        0x0 CMakeFiles/CH32V307WCU6.elf.dir/Peripheral/src/ch32v30x_misc.c.obj
 .bss           0x0000000000000000        0x0 CMakeFiles/CH32V307WCU6.elf.dir/Peripheral/src/ch32v30x_misc.c.obj
 .text          0x0000000000000000        0x0 CMakeFiles/CH32V307WCU6.elf.dir/Peripheral/src/ch32v30x_opa.c.obj
 .data          0x0000000000000000        0x0 CMakeFiles/CH32V307WCU6.elf.dir/Peripheral/src/ch32v30x_opa.c.obj
 .bss           0x0000000000000000        0x0 CMakeFiles/CH32V307WCU6.elf.dir/Peripheral/src/ch32v30x_opa.c.obj
 .text.OPA_DeInit
                0x0000000000000000        0xa CMakeFiles/CH32V307WCU6.elf.dir/Peripheral/src/ch32v30x_opa.c.obj
 .text.OPA_Init
                0x0000000000000000       0x36 CMakeFiles/CH32V307WCU6.elf.dir/Peripheral/src/ch32v30x_opa.c.obj
 .text.OPA_StructInit
                0x0000000000000000       0x12 CMakeFiles/CH32V307WCU6.elf.dir/Peripheral/src/ch32v30x_opa.c.obj
 .text.OPA_Cmd  0x0000000000000000       0x3a CMakeFiles/CH32V307WCU6.elf.dir/Peripheral/src/ch32v30x_opa.c.obj
 .debug_info    0x0000000000000000      0x27a CMakeFiles/CH32V307WCU6.elf.dir/Peripheral/src/ch32v30x_opa.c.obj
 .debug_abbrev  0x0000000000000000      0x130 CMakeFiles/CH32V307WCU6.elf.dir/Peripheral/src/ch32v30x_opa.c.obj
 .debug_loc     0x0000000000000000       0x6f CMakeFiles/CH32V307WCU6.elf.dir/Peripheral/src/ch32v30x_opa.c.obj
 .debug_aranges
                0x0000000000000000       0x38 CMakeFiles/CH32V307WCU6.elf.dir/Peripheral/src/ch32v30x_opa.c.obj
 .debug_ranges  0x0000000000000000       0x28 CMakeFiles/CH32V307WCU6.elf.dir/Peripheral/src/ch32v30x_opa.c.obj
 .debug_line    0x0000000000000000      0x46d CMakeFiles/CH32V307WCU6.elf.dir/Peripheral/src/ch32v30x_opa.c.obj
 .debug_str     0x0000000000000000      0x32f CMakeFiles/CH32V307WCU6.elf.dir/Peripheral/src/ch32v30x_opa.c.obj
 .comment       0x0000000000000000       0x34 CMakeFiles/CH32V307WCU6.elf.dir/Peripheral/src/ch32v30x_opa.c.obj
 .debug_frame   0x0000000000000000       0x50 CMakeFiles/CH32V307WCU6.elf.dir/Peripheral/src/ch32v30x_opa.c.obj
 .text          0x0000000000000000        0x0 CMakeFiles/CH32V307WCU6.elf.dir/Peripheral/src/ch32v30x_pwr.c.obj
 .data          0x0000000000000000        0x0 CMakeFiles/CH32V307WCU6.elf.dir/Peripheral/src/ch32v30x_pwr.c.obj
 .bss           0x0000000000000000        0x0 CMakeFiles/CH32V307WCU6.elf.dir/Peripheral/src/ch32v30x_pwr.c.obj
 .text.PWR_DeInit
                0x0000000000000000       0x2c CMakeFiles/CH32V307WCU6.elf.dir/Peripheral/src/ch32v30x_pwr.c.obj
 .text.PWR_BackupAccessCmd
                0x0000000000000000       0x1e CMakeFiles/CH32V307WCU6.elf.dir/Peripheral/src/ch32v30x_pwr.c.obj
 .text.PWR_PVDCmd
                0x0000000000000000       0x1c CMakeFiles/CH32V307WCU6.elf.dir/Peripheral/src/ch32v30x_pwr.c.obj
 .text.PWR_PVDLevelConfig
                0x0000000000000000       0x10 CMakeFiles/CH32V307WCU6.elf.dir/Peripheral/src/ch32v30x_pwr.c.obj
 .text.PWR_WakeUpPinCmd
                0x0000000000000000       0x1e CMakeFiles/CH32V307WCU6.elf.dir/Peripheral/src/ch32v30x_pwr.c.obj
 .text.PWR_EnterSTOPMode
                0x0000000000000000       0x70 CMakeFiles/CH32V307WCU6.elf.dir/Peripheral/src/ch32v30x_pwr.c.obj
 .text.PWR_EnterSTANDBYMode
                0x0000000000000000       0x34 CMakeFiles/CH32V307WCU6.elf.dir/Peripheral/src/ch32v30x_pwr.c.obj
 .text.PWR_GetFlagStatus
                0x0000000000000000       0x12 CMakeFiles/CH32V307WCU6.elf.dir/Peripheral/src/ch32v30x_pwr.c.obj
 .text.PWR_ClearFlag
                0x0000000000000000        0xe CMakeFiles/CH32V307WCU6.elf.dir/Peripheral/src/ch32v30x_pwr.c.obj
 .text.PWR_EnterSTANDBYMode_RAM
                0x0000000000000000       0x30 CMakeFiles/CH32V307WCU6.elf.dir/Peripheral/src/ch32v30x_pwr.c.obj
 .text.PWR_EnterSTANDBYMode_RAM_LV
                0x0000000000000000       0x30 CMakeFiles/CH32V307WCU6.elf.dir/Peripheral/src/ch32v30x_pwr.c.obj
 .text.PWR_EnterSTANDBYMode_RAM_VBAT_EN
                0x0000000000000000       0x30 CMakeFiles/CH32V307WCU6.elf.dir/Peripheral/src/ch32v30x_pwr.c.obj
 .text.PWR_EnterSTANDBYMode_RAM_LV_VBAT_EN
                0x0000000000000000       0x30 CMakeFiles/CH32V307WCU6.elf.dir/Peripheral/src/ch32v30x_pwr.c.obj
 .text.PWR_EnterSTOPMode_RAM_LV
                0x0000000000000000       0x76 CMakeFiles/CH32V307WCU6.elf.dir/Peripheral/src/ch32v30x_pwr.c.obj
 .debug_info    0x0000000000000000      0x6f0 CMakeFiles/CH32V307WCU6.elf.dir/Peripheral/src/ch32v30x_pwr.c.obj
 .debug_abbrev  0x0000000000000000      0x2ad CMakeFiles/CH32V307WCU6.elf.dir/Peripheral/src/ch32v30x_pwr.c.obj
 .debug_loc     0x0000000000000000      0x239 CMakeFiles/CH32V307WCU6.elf.dir/Peripheral/src/ch32v30x_pwr.c.obj
 .debug_aranges
                0x0000000000000000       0x88 CMakeFiles/CH32V307WCU6.elf.dir/Peripheral/src/ch32v30x_pwr.c.obj
 .debug_ranges  0x0000000000000000       0x78 CMakeFiles/CH32V307WCU6.elf.dir/Peripheral/src/ch32v30x_pwr.c.obj
 .debug_line    0x0000000000000000      0xa1d CMakeFiles/CH32V307WCU6.elf.dir/Peripheral/src/ch32v30x_pwr.c.obj
 .debug_str     0x0000000000000000      0x4c1 CMakeFiles/CH32V307WCU6.elf.dir/Peripheral/src/ch32v30x_pwr.c.obj
 .comment       0x0000000000000000       0x34 CMakeFiles/CH32V307WCU6.elf.dir/Peripheral/src/ch32v30x_pwr.c.obj
 .debug_frame   0x0000000000000000       0xfc CMakeFiles/CH32V307WCU6.elf.dir/Peripheral/src/ch32v30x_pwr.c.obj
 .text          0x0000000000000000        0x0 CMakeFiles/CH32V307WCU6.elf.dir/Peripheral/src/ch32v30x_rcc.c.obj
 .data          0x0000000000000000        0x0 CMakeFiles/CH32V307WCU6.elf.dir/Peripheral/src/ch32v30x_rcc.c.obj
 .bss           0x0000000000000000        0x0 CMakeFiles/CH32V307WCU6.elf.dir/Peripheral/src/ch32v30x_rcc.c.obj
 .text.RCC_DeInit
                0x0000000000000000       0x52 CMakeFiles/CH32V307WCU6.elf.dir/Peripheral/src/ch32v30x_rcc.c.obj
 .text.RCC_HSEConfig
                0x0000000000000000       0x48 CMakeFiles/CH32V307WCU6.elf.dir/Peripheral/src/ch32v30x_rcc.c.obj
 .text.RCC_AdjustHSICalibrationValue
                0x0000000000000000       0x12 CMakeFiles/CH32V307WCU6.elf.dir/Peripheral/src/ch32v30x_rcc.c.obj
 .text.RCC_HSICmd
                0x0000000000000000       0x1c CMakeFiles/CH32V307WCU6.elf.dir/Peripheral/src/ch32v30x_rcc.c.obj
 .text.RCC_PLLConfig
                0x0000000000000000       0x34 CMakeFiles/CH32V307WCU6.elf.dir/Peripheral/src/ch32v30x_rcc.c.obj
 .text.RCC_PLLCmd
                0x0000000000000000       0x24 CMakeFiles/CH32V307WCU6.elf.dir/Peripheral/src/ch32v30x_rcc.c.obj
 .text.RCC_SYSCLKConfig
                0x0000000000000000        0xe CMakeFiles/CH32V307WCU6.elf.dir/Peripheral/src/ch32v30x_rcc.c.obj
 .text.RCC_GetSYSCLKSource
                0x0000000000000000        0xa CMakeFiles/CH32V307WCU6.elf.dir/Peripheral/src/ch32v30x_rcc.c.obj
 .text.RCC_HCLKConfig
                0x0000000000000000       0x10 CMakeFiles/CH32V307WCU6.elf.dir/Peripheral/src/ch32v30x_rcc.c.obj
 .text.RCC_PCLK1Config
                0x0000000000000000       0x10 CMakeFiles/CH32V307WCU6.elf.dir/Peripheral/src/ch32v30x_rcc.c.obj
 .text.RCC_PCLK2Config
                0x0000000000000000       0x16 CMakeFiles/CH32V307WCU6.elf.dir/Peripheral/src/ch32v30x_rcc.c.obj
 .text.RCC_ITConfig
                0x0000000000000000       0x1e CMakeFiles/CH32V307WCU6.elf.dir/Peripheral/src/ch32v30x_rcc.c.obj
 .text.RCC_LSEConfig
                0x0000000000000000       0x32 CMakeFiles/CH32V307WCU6.elf.dir/Peripheral/src/ch32v30x_rcc.c.obj
 .text.RCC_LSICmd
                0x0000000000000000       0x1c CMakeFiles/CH32V307WCU6.elf.dir/Peripheral/src/ch32v30x_rcc.c.obj
 .text.RCC_RTCCLKConfig
                0x0000000000000000        0xc CMakeFiles/CH32V307WCU6.elf.dir/Peripheral/src/ch32v30x_rcc.c.obj
 .text.RCC_RTCCLKCmd
                0x0000000000000000       0x20 CMakeFiles/CH32V307WCU6.elf.dir/Peripheral/src/ch32v30x_rcc.c.obj
 .text.RCC_GetClocksFreq
                0x0000000000000000      0x1d4 CMakeFiles/CH32V307WCU6.elf.dir/Peripheral/src/ch32v30x_rcc.c.obj
 .text.RCC_APB1PeriphResetCmd
                0x0000000000000000       0x1e CMakeFiles/CH32V307WCU6.elf.dir/Peripheral/src/ch32v30x_rcc.c.obj
 .text.RCC_BackupResetCmd
                0x0000000000000000       0x20 CMakeFiles/CH32V307WCU6.elf.dir/Peripheral/src/ch32v30x_rcc.c.obj
 .text.RCC_ClockSecuritySystemCmd
                0x0000000000000000       0x24 CMakeFiles/CH32V307WCU6.elf.dir/Peripheral/src/ch32v30x_rcc.c.obj
 .text.RCC_MCOConfig
                0x0000000000000000        0x8 CMakeFiles/CH32V307WCU6.elf.dir/Peripheral/src/ch32v30x_rcc.c.obj
 .text.RCC_GetFlagStatus
                0x0000000000000000       0x36 CMakeFiles/CH32V307WCU6.elf.dir/Peripheral/src/ch32v30x_rcc.c.obj
 .text.RCC_WaitForHSEStartUp
                0x0000000000000000       0x46 CMakeFiles/CH32V307WCU6.elf.dir/Peripheral/src/ch32v30x_rcc.c.obj
 .text.RCC_ClearFlag
                0x0000000000000000       0x10 CMakeFiles/CH32V307WCU6.elf.dir/Peripheral/src/ch32v30x_rcc.c.obj
 .text.RCC_GetITStatus
                0x0000000000000000       0x12 CMakeFiles/CH32V307WCU6.elf.dir/Peripheral/src/ch32v30x_rcc.c.obj
 .text.RCC_ClearITPendingBit
                0x0000000000000000        0x8 CMakeFiles/CH32V307WCU6.elf.dir/Peripheral/src/ch32v30x_rcc.c.obj
 .text.RCC_PREDIV1Config
                0x0000000000000000       0x14 CMakeFiles/CH32V307WCU6.elf.dir/Peripheral/src/ch32v30x_rcc.c.obj
 .text.RCC_PREDIV2Config
                0x0000000000000000       0x10 CMakeFiles/CH32V307WCU6.elf.dir/Peripheral/src/ch32v30x_rcc.c.obj
 .text.RCC_PLL2Config
                0x0000000000000000       0x14 CMakeFiles/CH32V307WCU6.elf.dir/Peripheral/src/ch32v30x_rcc.c.obj
 .text.RCC_PLL2Cmd
                0x0000000000000000       0x24 CMakeFiles/CH32V307WCU6.elf.dir/Peripheral/src/ch32v30x_rcc.c.obj
 .text.RCC_PLL3Config
                0x0000000000000000       0x12 CMakeFiles/CH32V307WCU6.elf.dir/Peripheral/src/ch32v30x_rcc.c.obj
 .text.RCC_PLL3Cmd
                0x0000000000000000       0x24 CMakeFiles/CH32V307WCU6.elf.dir/Peripheral/src/ch32v30x_rcc.c.obj
 .text.RCC_OTGFSCLKConfig
                0x0000000000000000       0x1a CMakeFiles/CH32V307WCU6.elf.dir/Peripheral/src/ch32v30x_rcc.c.obj
 .text.RCC_I2S2CLKConfig
                0x0000000000000000       0x18 CMakeFiles/CH32V307WCU6.elf.dir/Peripheral/src/ch32v30x_rcc.c.obj
 .text.RCC_I2S3CLKConfig
                0x0000000000000000       0x1a CMakeFiles/CH32V307WCU6.elf.dir/Peripheral/src/ch32v30x_rcc.c.obj
 .text.RCC_AHBPeriphResetCmd
                0x0000000000000000       0x1e CMakeFiles/CH32V307WCU6.elf.dir/Peripheral/src/ch32v30x_rcc.c.obj
 .text.RCC_ADCCLKADJcmd
                0x0000000000000000       0x26 CMakeFiles/CH32V307WCU6.elf.dir/Peripheral/src/ch32v30x_rcc.c.obj
 .text.RCC_RNGCLKConfig
                0x0000000000000000       0x1a CMakeFiles/CH32V307WCU6.elf.dir/Peripheral/src/ch32v30x_rcc.c.obj
 .text.RCC_ETH1GCLKConfig
                0x0000000000000000       0x1a CMakeFiles/CH32V307WCU6.elf.dir/Peripheral/src/ch32v30x_rcc.c.obj
 .text.RCC_ETH1G_125Mcmd
                0x0000000000000000       0x24 CMakeFiles/CH32V307WCU6.elf.dir/Peripheral/src/ch32v30x_rcc.c.obj
 .data.APBAHBPrescTable
                0x0000000000000000       0x10 CMakeFiles/CH32V307WCU6.elf.dir/Peripheral/src/ch32v30x_rcc.c.obj
 .sdata.ADCPrescTable
                0x0000000000000000        0x4 CMakeFiles/CH32V307WCU6.elf.dir/Peripheral/src/ch32v30x_rcc.c.obj
 .text          0x0000000000000000        0x0 CMakeFiles/CH32V307WCU6.elf.dir/Peripheral/src/ch32v30x_rng.c.obj
 .data          0x0000000000000000        0x0 CMakeFiles/CH32V307WCU6.elf.dir/Peripheral/src/ch32v30x_rng.c.obj
 .bss           0x0000000000000000        0x0 CMakeFiles/CH32V307WCU6.elf.dir/Peripheral/src/ch32v30x_rng.c.obj
 .text.RNG_Cmd  0x0000000000000000       0x24 CMakeFiles/CH32V307WCU6.elf.dir/Peripheral/src/ch32v30x_rng.c.obj
 .text.RNG_GetRandomNumber
                0x0000000000000000        0xa CMakeFiles/CH32V307WCU6.elf.dir/Peripheral/src/ch32v30x_rng.c.obj
 .text.RNG_ITConfig
                0x0000000000000000       0x24 CMakeFiles/CH32V307WCU6.elf.dir/Peripheral/src/ch32v30x_rng.c.obj
 .text.RNG_GetFlagStatus
                0x0000000000000000       0x16 CMakeFiles/CH32V307WCU6.elf.dir/Peripheral/src/ch32v30x_rng.c.obj
 .text.RNG_ClearFlag
                0x0000000000000000       0x10 CMakeFiles/CH32V307WCU6.elf.dir/Peripheral/src/ch32v30x_rng.c.obj
 .text.RNG_GetITStatus
                0x0000000000000000       0x16 CMakeFiles/CH32V307WCU6.elf.dir/Peripheral/src/ch32v30x_rng.c.obj
 .text.RNG_ClearITPendingBit
                0x0000000000000000       0x12 CMakeFiles/CH32V307WCU6.elf.dir/Peripheral/src/ch32v30x_rng.c.obj
 .debug_info    0x0000000000000000      0x260 CMakeFiles/CH32V307WCU6.elf.dir/Peripheral/src/ch32v30x_rng.c.obj
 .debug_abbrev  0x0000000000000000      0x14a CMakeFiles/CH32V307WCU6.elf.dir/Peripheral/src/ch32v30x_rng.c.obj
 .debug_loc     0x0000000000000000       0x84 CMakeFiles/CH32V307WCU6.elf.dir/Peripheral/src/ch32v30x_rng.c.obj
 .debug_aranges
                0x0000000000000000       0x50 CMakeFiles/CH32V307WCU6.elf.dir/Peripheral/src/ch32v30x_rng.c.obj
 .debug_ranges  0x0000000000000000       0x40 CMakeFiles/CH32V307WCU6.elf.dir/Peripheral/src/ch32v30x_rng.c.obj
 .debug_line    0x0000000000000000      0x464 CMakeFiles/CH32V307WCU6.elf.dir/Peripheral/src/ch32v30x_rng.c.obj
 .debug_str     0x0000000000000000      0x300 CMakeFiles/CH32V307WCU6.elf.dir/Peripheral/src/ch32v30x_rng.c.obj
 .comment       0x0000000000000000       0x34 CMakeFiles/CH32V307WCU6.elf.dir/Peripheral/src/ch32v30x_rng.c.obj
 .debug_frame   0x0000000000000000       0x80 CMakeFiles/CH32V307WCU6.elf.dir/Peripheral/src/ch32v30x_rng.c.obj
 .text          0x0000000000000000        0x0 CMakeFiles/CH32V307WCU6.elf.dir/Peripheral/src/ch32v30x_rtc.c.obj
 .data          0x0000000000000000        0x0 CMakeFiles/CH32V307WCU6.elf.dir/Peripheral/src/ch32v30x_rtc.c.obj
 .bss           0x0000000000000000        0x0 CMakeFiles/CH32V307WCU6.elf.dir/Peripheral/src/ch32v30x_rtc.c.obj
 .text.RTC_ITConfig
                0x0000000000000000       0x26 CMakeFiles/CH32V307WCU6.elf.dir/Peripheral/src/ch32v30x_rtc.c.obj
 .text.RTC_EnterConfigMode
                0x0000000000000000       0x12 CMakeFiles/CH32V307WCU6.elf.dir/Peripheral/src/ch32v30x_rtc.c.obj
 .text.RTC_ExitConfigMode
                0x0000000000000000       0x18 CMakeFiles/CH32V307WCU6.elf.dir/Peripheral/src/ch32v30x_rtc.c.obj
 .text.RTC_GetCounter
                0x0000000000000000       0x6e CMakeFiles/CH32V307WCU6.elf.dir/Peripheral/src/ch32v30x_rtc.c.obj
 .text.RTC_SetCounter
                0x0000000000000000       0x36 CMakeFiles/CH32V307WCU6.elf.dir/Peripheral/src/ch32v30x_rtc.c.obj
 .text.RTC_SetPrescaler
                0x0000000000000000       0x38 CMakeFiles/CH32V307WCU6.elf.dir/Peripheral/src/ch32v30x_rtc.c.obj
 .text.RTC_SetAlarm
                0x0000000000000000       0x36 CMakeFiles/CH32V307WCU6.elf.dir/Peripheral/src/ch32v30x_rtc.c.obj
 .text.RTC_GetDivider
                0x0000000000000000       0x74 CMakeFiles/CH32V307WCU6.elf.dir/Peripheral/src/ch32v30x_rtc.c.obj
 .text.RTC_WaitForLastTask
                0x0000000000000000       0x12 CMakeFiles/CH32V307WCU6.elf.dir/Peripheral/src/ch32v30x_rtc.c.obj
 .text.RTC_WaitForSynchro
                0x0000000000000000       0x26 CMakeFiles/CH32V307WCU6.elf.dir/Peripheral/src/ch32v30x_rtc.c.obj
 .text.RTC_GetFlagStatus
                0x0000000000000000       0x16 CMakeFiles/CH32V307WCU6.elf.dir/Peripheral/src/ch32v30x_rtc.c.obj
 .text.RTC_ClearFlag
                0x0000000000000000       0x14 CMakeFiles/CH32V307WCU6.elf.dir/Peripheral/src/ch32v30x_rtc.c.obj
 .text.RTC_GetITStatus
                0x0000000000000000       0x20 CMakeFiles/CH32V307WCU6.elf.dir/Peripheral/src/ch32v30x_rtc.c.obj
 .text.RTC_ClearITPendingBit
                0x0000000000000000       0x14 CMakeFiles/CH32V307WCU6.elf.dir/Peripheral/src/ch32v30x_rtc.c.obj
 .debug_info    0x0000000000000000      0x529 CMakeFiles/CH32V307WCU6.elf.dir/Peripheral/src/ch32v30x_rtc.c.obj
 .debug_abbrev  0x0000000000000000      0x1d1 CMakeFiles/CH32V307WCU6.elf.dir/Peripheral/src/ch32v30x_rtc.c.obj
 .debug_loc     0x0000000000000000      0x237 CMakeFiles/CH32V307WCU6.elf.dir/Peripheral/src/ch32v30x_rtc.c.obj
 .debug_aranges
                0x0000000000000000       0x88 CMakeFiles/CH32V307WCU6.elf.dir/Peripheral/src/ch32v30x_rtc.c.obj
 .debug_ranges  0x0000000000000000       0x78 CMakeFiles/CH32V307WCU6.elf.dir/Peripheral/src/ch32v30x_rtc.c.obj
 .debug_line    0x0000000000000000      0x8d8 CMakeFiles/CH32V307WCU6.elf.dir/Peripheral/src/ch32v30x_rtc.c.obj
 .debug_str     0x0000000000000000      0x47a CMakeFiles/CH32V307WCU6.elf.dir/Peripheral/src/ch32v30x_rtc.c.obj
 .comment       0x0000000000000000       0x34 CMakeFiles/CH32V307WCU6.elf.dir/Peripheral/src/ch32v30x_rtc.c.obj
 .debug_frame   0x0000000000000000      0x114 CMakeFiles/CH32V307WCU6.elf.dir/Peripheral/src/ch32v30x_rtc.c.obj
 .text          0x0000000000000000        0x0 CMakeFiles/CH32V307WCU6.elf.dir/Peripheral/src/ch32v30x_sdio.c.obj
 .data          0x0000000000000000        0x0 CMakeFiles/CH32V307WCU6.elf.dir/Peripheral/src/ch32v30x_sdio.c.obj
 .bss           0x0000000000000000        0x0 CMakeFiles/CH32V307WCU6.elf.dir/Peripheral/src/ch32v30x_sdio.c.obj
 .text.SDIO_DeInit
                0x0000000000000000       0x30 CMakeFiles/CH32V307WCU6.elf.dir/Peripheral/src/ch32v30x_sdio.c.obj
 .text.SDIO_Init
                0x0000000000000000       0x2a CMakeFiles/CH32V307WCU6.elf.dir/Peripheral/src/ch32v30x_sdio.c.obj
 .text.SDIO_StructInit
                0x0000000000000000       0x1a CMakeFiles/CH32V307WCU6.elf.dir/Peripheral/src/ch32v30x_sdio.c.obj
 .text.SDIO_ClockCmd
                0x0000000000000000       0x1e CMakeFiles/CH32V307WCU6.elf.dir/Peripheral/src/ch32v30x_sdio.c.obj
 .text.SDIO_SetPowerState
                0x0000000000000000       0x12 CMakeFiles/CH32V307WCU6.elf.dir/Peripheral/src/ch32v30x_sdio.c.obj
 .text.SDIO_GetPowerState
                0x0000000000000000        0xa CMakeFiles/CH32V307WCU6.elf.dir/Peripheral/src/ch32v30x_sdio.c.obj
 .text.SDIO_ITConfig
                0x0000000000000000       0x1e CMakeFiles/CH32V307WCU6.elf.dir/Peripheral/src/ch32v30x_sdio.c.obj
 .text.SDIO_DMACmd
                0x0000000000000000       0x1c CMakeFiles/CH32V307WCU6.elf.dir/Peripheral/src/ch32v30x_sdio.c.obj
 .text.SDIO_SendCommand
                0x0000000000000000       0x22 CMakeFiles/CH32V307WCU6.elf.dir/Peripheral/src/ch32v30x_sdio.c.obj
 .text.SDIO_CmdStructInit
                0x0000000000000000       0x16 CMakeFiles/CH32V307WCU6.elf.dir/Peripheral/src/ch32v30x_sdio.c.obj
 .text.SDIO_GetCommandResponse
                0x0000000000000000        0xc CMakeFiles/CH32V307WCU6.elf.dir/Peripheral/src/ch32v30x_sdio.c.obj
 .text.SDIO_GetResponse
                0x0000000000000000       0x16 CMakeFiles/CH32V307WCU6.elf.dir/Peripheral/src/ch32v30x_sdio.c.obj
 .text.SDIO_DataConfig
                0x0000000000000000       0x26 CMakeFiles/CH32V307WCU6.elf.dir/Peripheral/src/ch32v30x_sdio.c.obj
 .text.SDIO_DataStructInit
                0x0000000000000000       0x1a CMakeFiles/CH32V307WCU6.elf.dir/Peripheral/src/ch32v30x_sdio.c.obj
 .text.SDIO_GetDataCounter
                0x0000000000000000        0x8 CMakeFiles/CH32V307WCU6.elf.dir/Peripheral/src/ch32v30x_sdio.c.obj
 .text.SDIO_ReadData
                0x0000000000000000        0xa CMakeFiles/CH32V307WCU6.elf.dir/Peripheral/src/ch32v30x_sdio.c.obj
 .text.SDIO_WriteData
                0x0000000000000000        0xa CMakeFiles/CH32V307WCU6.elf.dir/Peripheral/src/ch32v30x_sdio.c.obj
 .text.SDIO_GetFIFOCount
                0x0000000000000000        0x8 CMakeFiles/CH32V307WCU6.elf.dir/Peripheral/src/ch32v30x_sdio.c.obj
 .text.SDIO_StartSDIOReadWait
                0x0000000000000000       0x1e CMakeFiles/CH32V307WCU6.elf.dir/Peripheral/src/ch32v30x_sdio.c.obj
 .text.SDIO_StopSDIOReadWait
                0x0000000000000000       0x1e CMakeFiles/CH32V307WCU6.elf.dir/Peripheral/src/ch32v30x_sdio.c.obj
 .text.SDIO_SetSDIOReadWaitMode
                0x0000000000000000       0x1e CMakeFiles/CH32V307WCU6.elf.dir/Peripheral/src/ch32v30x_sdio.c.obj
 .text.SDIO_SetSDIOOperation
                0x0000000000000000       0x26 CMakeFiles/CH32V307WCU6.elf.dir/Peripheral/src/ch32v30x_sdio.c.obj
 .text.SDIO_SendSDIOSuspendCmd
                0x0000000000000000       0x26 CMakeFiles/CH32V307WCU6.elf.dir/Peripheral/src/ch32v30x_sdio.c.obj
 .text.SDIO_CommandCompletionCmd
                0x0000000000000000       0x20 CMakeFiles/CH32V307WCU6.elf.dir/Peripheral/src/ch32v30x_sdio.c.obj
 .text.SDIO_CEATAITCmd
                0x0000000000000000       0x20 CMakeFiles/CH32V307WCU6.elf.dir/Peripheral/src/ch32v30x_sdio.c.obj
 .text.SDIO_SendCEATACmd
                0x0000000000000000       0x20 CMakeFiles/CH32V307WCU6.elf.dir/Peripheral/src/ch32v30x_sdio.c.obj
 .text.SDIO_GetFlagStatus
                0x0000000000000000       0x12 CMakeFiles/CH32V307WCU6.elf.dir/Peripheral/src/ch32v30x_sdio.c.obj
 .text.SDIO_ClearFlag
                0x0000000000000000        0x8 CMakeFiles/CH32V307WCU6.elf.dir/Peripheral/src/ch32v30x_sdio.c.obj
 .text.SDIO_GetITStatus
                0x0000000000000000       0x12 CMakeFiles/CH32V307WCU6.elf.dir/Peripheral/src/ch32v30x_sdio.c.obj
 .text.SDIO_ClearITPendingBit
                0x0000000000000000        0x8 CMakeFiles/CH32V307WCU6.elf.dir/Peripheral/src/ch32v30x_sdio.c.obj
 .debug_info    0x0000000000000000      0x82f CMakeFiles/CH32V307WCU6.elf.dir/Peripheral/src/ch32v30x_sdio.c.obj
 .debug_abbrev  0x0000000000000000      0x22a CMakeFiles/CH32V307WCU6.elf.dir/Peripheral/src/ch32v30x_sdio.c.obj
 .debug_loc     0x0000000000000000      0x196 CMakeFiles/CH32V307WCU6.elf.dir/Peripheral/src/ch32v30x_sdio.c.obj
 .debug_aranges
                0x0000000000000000      0x108 CMakeFiles/CH32V307WCU6.elf.dir/Peripheral/src/ch32v30x_sdio.c.obj
 .debug_ranges  0x0000000000000000       0xf8 CMakeFiles/CH32V307WCU6.elf.dir/Peripheral/src/ch32v30x_sdio.c.obj
 .debug_line    0x0000000000000000      0xd49 CMakeFiles/CH32V307WCU6.elf.dir/Peripheral/src/ch32v30x_sdio.c.obj
 .debug_str     0x0000000000000000      0x6d2 CMakeFiles/CH32V307WCU6.elf.dir/Peripheral/src/ch32v30x_sdio.c.obj
 .comment       0x0000000000000000       0x34 CMakeFiles/CH32V307WCU6.elf.dir/Peripheral/src/ch32v30x_sdio.c.obj
 .debug_frame   0x0000000000000000      0x1f8 CMakeFiles/CH32V307WCU6.elf.dir/Peripheral/src/ch32v30x_sdio.c.obj
 .text          0x0000000000000000        0x0 CMakeFiles/CH32V307WCU6.elf.dir/Peripheral/src/ch32v30x_spi.c.obj
 .data          0x0000000000000000        0x0 CMakeFiles/CH32V307WCU6.elf.dir/Peripheral/src/ch32v30x_spi.c.obj
 .bss           0x0000000000000000        0x0 CMakeFiles/CH32V307WCU6.elf.dir/Peripheral/src/ch32v30x_spi.c.obj
 .text.SPI_I2S_DeInit
                0x0000000000000000       0x7e CMakeFiles/CH32V307WCU6.elf.dir/Peripheral/src/ch32v30x_spi.c.obj
 .text.SPI_Init
                0x0000000000000000       0x52 CMakeFiles/CH32V307WCU6.elf.dir/Peripheral/src/ch32v30x_spi.c.obj
 .text.I2S_Init
                0x0000000000000000       0xee CMakeFiles/CH32V307WCU6.elf.dir/Peripheral/src/ch32v30x_spi.c.obj
 .text.SPI_StructInit
                0x0000000000000000       0x22 CMakeFiles/CH32V307WCU6.elf.dir/Peripheral/src/ch32v30x_spi.c.obj
 .text.I2S_StructInit
                0x0000000000000000       0x1a CMakeFiles/CH32V307WCU6.elf.dir/Peripheral/src/ch32v30x_spi.c.obj
 .text.SPI_Cmd  0x0000000000000000       0x1e CMakeFiles/CH32V307WCU6.elf.dir/Peripheral/src/ch32v30x_spi.c.obj
 .text.I2S_Cmd  0x0000000000000000       0x1e CMakeFiles/CH32V307WCU6.elf.dir/Peripheral/src/ch32v30x_spi.c.obj
 .text.SPI_I2S_ITConfig
                0x0000000000000000       0x22 CMakeFiles/CH32V307WCU6.elf.dir/Peripheral/src/ch32v30x_spi.c.obj
 .text.SPI_I2S_DMACmd
                0x0000000000000000       0x16 CMakeFiles/CH32V307WCU6.elf.dir/Peripheral/src/ch32v30x_spi.c.obj
 .text.SPI_I2S_SendData
                0x0000000000000000        0x4 CMakeFiles/CH32V307WCU6.elf.dir/Peripheral/src/ch32v30x_spi.c.obj
 .text.SPI_I2S_ReceiveData
                0x0000000000000000        0x4 CMakeFiles/CH32V307WCU6.elf.dir/Peripheral/src/ch32v30x_spi.c.obj
 .text.SPI_NSSInternalSoftwareConfig
                0x0000000000000000       0x26 CMakeFiles/CH32V307WCU6.elf.dir/Peripheral/src/ch32v30x_spi.c.obj
 .text.SPI_SSOutputCmd
                0x0000000000000000       0x1c CMakeFiles/CH32V307WCU6.elf.dir/Peripheral/src/ch32v30x_spi.c.obj
 .text.SPI_DataSizeConfig
                0x0000000000000000       0x14 CMakeFiles/CH32V307WCU6.elf.dir/Peripheral/src/ch32v30x_spi.c.obj
 .text.SPI_TransmitCRC
                0x0000000000000000        0xa CMakeFiles/CH32V307WCU6.elf.dir/Peripheral/src/ch32v30x_spi.c.obj
 .text.SPI_CalculateCRC
                0x0000000000000000       0x18 CMakeFiles/CH32V307WCU6.elf.dir/Peripheral/src/ch32v30x_spi.c.obj
 .text.SPI_GetCRC
                0x0000000000000000       0x16 CMakeFiles/CH32V307WCU6.elf.dir/Peripheral/src/ch32v30x_spi.c.obj
 .text.SPI_GetCRCPolynomial
                0x0000000000000000        0x4 CMakeFiles/CH32V307WCU6.elf.dir/Peripheral/src/ch32v30x_spi.c.obj
 .text.SPI_BiDirectionalLineConfig
                0x0000000000000000       0x1c CMakeFiles/CH32V307WCU6.elf.dir/Peripheral/src/ch32v30x_spi.c.obj
 .text.SPI_I2S_GetFlagStatus
                0x0000000000000000        0xe CMakeFiles/CH32V307WCU6.elf.dir/Peripheral/src/ch32v30x_spi.c.obj
 .text.SPI_I2S_ClearFlag
                0x0000000000000000        0xc CMakeFiles/CH32V307WCU6.elf.dir/Peripheral/src/ch32v30x_spi.c.obj
 .text.SPI_I2S_GetITStatus
                0x0000000000000000       0x28 CMakeFiles/CH32V307WCU6.elf.dir/Peripheral/src/ch32v30x_spi.c.obj
 .text.SPI_I2S_ClearITPendingBit
                0x0000000000000000       0x18 CMakeFiles/CH32V307WCU6.elf.dir/Peripheral/src/ch32v30x_spi.c.obj
 .debug_info    0x0000000000000000      0xa4c CMakeFiles/CH32V307WCU6.elf.dir/Peripheral/src/ch32v30x_spi.c.obj
 .debug_abbrev  0x0000000000000000      0x1f6 CMakeFiles/CH32V307WCU6.elf.dir/Peripheral/src/ch32v30x_spi.c.obj
 .debug_loc     0x0000000000000000      0x5e3 CMakeFiles/CH32V307WCU6.elf.dir/Peripheral/src/ch32v30x_spi.c.obj
 .debug_aranges
                0x0000000000000000       0xd0 CMakeFiles/CH32V307WCU6.elf.dir/Peripheral/src/ch32v30x_spi.c.obj
 .debug_ranges  0x0000000000000000       0xc0 CMakeFiles/CH32V307WCU6.elf.dir/Peripheral/src/ch32v30x_spi.c.obj
 .debug_line    0x0000000000000000      0xd5b CMakeFiles/CH32V307WCU6.elf.dir/Peripheral/src/ch32v30x_spi.c.obj
 .debug_str     0x0000000000000000      0x703 CMakeFiles/CH32V307WCU6.elf.dir/Peripheral/src/ch32v30x_spi.c.obj
 .comment       0x0000000000000000       0x34 CMakeFiles/CH32V307WCU6.elf.dir/Peripheral/src/ch32v30x_spi.c.obj
 .debug_frame   0x0000000000000000      0x1ac CMakeFiles/CH32V307WCU6.elf.dir/Peripheral/src/ch32v30x_spi.c.obj
 .text          0x0000000000000000        0x0 CMakeFiles/CH32V307WCU6.elf.dir/Peripheral/src/ch32v30x_tim.c.obj
 .data          0x0000000000000000        0x0 CMakeFiles/CH32V307WCU6.elf.dir/Peripheral/src/ch32v30x_tim.c.obj
 .bss           0x0000000000000000        0x0 CMakeFiles/CH32V307WCU6.elf.dir/Peripheral/src/ch32v30x_tim.c.obj
 .text.TIM_DeInit
                0x0000000000000000      0x190 CMakeFiles/CH32V307WCU6.elf.dir/Peripheral/src/ch32v30x_tim.c.obj
 .text.TIM_ICStructInit
                0x0000000000000000       0x16 CMakeFiles/CH32V307WCU6.elf.dir/Peripheral/src/ch32v30x_tim.c.obj
 .text.TIM_BDTRStructInit
                0x0000000000000000       0x1e CMakeFiles/CH32V307WCU6.elf.dir/Peripheral/src/ch32v30x_tim.c.obj
 .text.TIM_GenerateEvent
                0x0000000000000000        0x4 CMakeFiles/CH32V307WCU6.elf.dir/Peripheral/src/ch32v30x_tim.c.obj
 .text.TIM_DMAConfig
                0x0000000000000000        0x8 CMakeFiles/CH32V307WCU6.elf.dir/Peripheral/src/ch32v30x_tim.c.obj
 .text.TIM_DMACmd
                0x0000000000000000       0x16 CMakeFiles/CH32V307WCU6.elf.dir/Peripheral/src/ch32v30x_tim.c.obj
 .text.TIM_InternalClockConfig
                0x0000000000000000       0x10 CMakeFiles/CH32V307WCU6.elf.dir/Peripheral/src/ch32v30x_tim.c.obj
 .text.TIM_ETRConfig
                0x0000000000000000       0x16 CMakeFiles/CH32V307WCU6.elf.dir/Peripheral/src/ch32v30x_tim.c.obj
 .text.TIM_ETRClockMode1Config
                0x0000000000000000       0x22 CMakeFiles/CH32V307WCU6.elf.dir/Peripheral/src/ch32v30x_tim.c.obj
 .text.TIM_ETRClockMode2Config
                0x0000000000000000       0x22 CMakeFiles/CH32V307WCU6.elf.dir/Peripheral/src/ch32v30x_tim.c.obj
 .text.TIM_PrescalerConfig
                0x0000000000000000        0x6 CMakeFiles/CH32V307WCU6.elf.dir/Peripheral/src/ch32v30x_tim.c.obj
 .text.TIM_CounterModeConfig
                0x0000000000000000       0x10 CMakeFiles/CH32V307WCU6.elf.dir/Peripheral/src/ch32v30x_tim.c.obj
 .text.TIM_SelectInputTrigger
                0x0000000000000000       0x10 CMakeFiles/CH32V307WCU6.elf.dir/Peripheral/src/ch32v30x_tim.c.obj
 .text.TIM_ITRxExternalClockConfig
                0x0000000000000000       0x22 CMakeFiles/CH32V307WCU6.elf.dir/Peripheral/src/ch32v30x_tim.c.obj
 .text.TIM_TIxExternalClockConfig
                0x0000000000000000       0x48 CMakeFiles/CH32V307WCU6.elf.dir/Peripheral/src/ch32v30x_tim.c.obj
 .text.TIM_ForcedOC1Config
                0x0000000000000000       0x10 CMakeFiles/CH32V307WCU6.elf.dir/Peripheral/src/ch32v30x_tim.c.obj
 .text.TIM_ForcedOC2Config
                0x0000000000000000       0x14 CMakeFiles/CH32V307WCU6.elf.dir/Peripheral/src/ch32v30x_tim.c.obj
 .text.TIM_ForcedOC3Config
                0x0000000000000000       0x10 CMakeFiles/CH32V307WCU6.elf.dir/Peripheral/src/ch32v30x_tim.c.obj
 .text.TIM_ForcedOC4Config
                0x0000000000000000       0x14 CMakeFiles/CH32V307WCU6.elf.dir/Peripheral/src/ch32v30x_tim.c.obj
 .text.TIM_ARRPreloadConfig
                0x0000000000000000       0x1e CMakeFiles/CH32V307WCU6.elf.dir/Peripheral/src/ch32v30x_tim.c.obj
 .text.TIM_SelectCOM
                0x0000000000000000       0x1c CMakeFiles/CH32V307WCU6.elf.dir/Peripheral/src/ch32v30x_tim.c.obj
 .text.TIM_SelectCCDMA
                0x0000000000000000       0x1c CMakeFiles/CH32V307WCU6.elf.dir/Peripheral/src/ch32v30x_tim.c.obj
 .text.TIM_CCPreloadControl
                0x0000000000000000       0x1c CMakeFiles/CH32V307WCU6.elf.dir/Peripheral/src/ch32v30x_tim.c.obj
 .text.TIM_OC1FastConfig
                0x0000000000000000        0xe CMakeFiles/CH32V307WCU6.elf.dir/Peripheral/src/ch32v30x_tim.c.obj
 .text.TIM_OC2FastConfig
                0x0000000000000000       0x16 CMakeFiles/CH32V307WCU6.elf.dir/Peripheral/src/ch32v30x_tim.c.obj
 .text.TIM_OC3FastConfig
                0x0000000000000000        0xe CMakeFiles/CH32V307WCU6.elf.dir/Peripheral/src/ch32v30x_tim.c.obj
 .text.TIM_OC4FastConfig
                0x0000000000000000       0x16 CMakeFiles/CH32V307WCU6.elf.dir/Peripheral/src/ch32v30x_tim.c.obj
 .text.TIM_ClearOC1Ref
                0x0000000000000000       0x10 CMakeFiles/CH32V307WCU6.elf.dir/Peripheral/src/ch32v30x_tim.c.obj
 .text.TIM_ClearOC2Ref
                0x0000000000000000       0x14 CMakeFiles/CH32V307WCU6.elf.dir/Peripheral/src/ch32v30x_tim.c.obj
 .text.TIM_ClearOC3Ref
                0x0000000000000000       0x10 CMakeFiles/CH32V307WCU6.elf.dir/Peripheral/src/ch32v30x_tim.c.obj
 .text.TIM_ClearOC4Ref
                0x0000000000000000       0x14 CMakeFiles/CH32V307WCU6.elf.dir/Peripheral/src/ch32v30x_tim.c.obj
 .text.TIM_OC1PolarityConfig
                0x0000000000000000        0xe CMakeFiles/CH32V307WCU6.elf.dir/Peripheral/src/ch32v30x_tim.c.obj
 .text.TIM_OC1NPolarityConfig
                0x0000000000000000        0xe CMakeFiles/CH32V307WCU6.elf.dir/Peripheral/src/ch32v30x_tim.c.obj
 .text.TIM_OC2PolarityConfig
                0x0000000000000000       0x16 CMakeFiles/CH32V307WCU6.elf.dir/Peripheral/src/ch32v30x_tim.c.obj
 .text.TIM_OC2NPolarityConfig
                0x0000000000000000       0x16 CMakeFiles/CH32V307WCU6.elf.dir/Peripheral/src/ch32v30x_tim.c.obj
 .text.TIM_OC3PolarityConfig
                0x0000000000000000       0x16 CMakeFiles/CH32V307WCU6.elf.dir/Peripheral/src/ch32v30x_tim.c.obj
 .text.TIM_OC3NPolarityConfig
                0x0000000000000000       0x16 CMakeFiles/CH32V307WCU6.elf.dir/Peripheral/src/ch32v30x_tim.c.obj
 .text.TIM_OC4PolarityConfig
                0x0000000000000000       0x14 CMakeFiles/CH32V307WCU6.elf.dir/Peripheral/src/ch32v30x_tim.c.obj
 .text.TIM_CCxCmd
                0x0000000000000000       0x24 CMakeFiles/CH32V307WCU6.elf.dir/Peripheral/src/ch32v30x_tim.c.obj
 .text.TIM_CCxNCmd
                0x0000000000000000       0x24 CMakeFiles/CH32V307WCU6.elf.dir/Peripheral/src/ch32v30x_tim.c.obj
 .text.TIM_SelectOCxM
                0x0000000000000000       0x56 CMakeFiles/CH32V307WCU6.elf.dir/Peripheral/src/ch32v30x_tim.c.obj
 .text.TIM_UpdateDisableConfig
                0x0000000000000000       0x1c CMakeFiles/CH32V307WCU6.elf.dir/Peripheral/src/ch32v30x_tim.c.obj
 .text.TIM_UpdateRequestConfig
                0x0000000000000000       0x1c CMakeFiles/CH32V307WCU6.elf.dir/Peripheral/src/ch32v30x_tim.c.obj
 .text.TIM_SelectHallSensor
                0x0000000000000000       0x1e CMakeFiles/CH32V307WCU6.elf.dir/Peripheral/src/ch32v30x_tim.c.obj
 .text.TIM_SelectOnePulseMode
                0x0000000000000000       0x16 CMakeFiles/CH32V307WCU6.elf.dir/Peripheral/src/ch32v30x_tim.c.obj
 .text.TIM_SelectSlaveMode
                0x0000000000000000       0x16 CMakeFiles/CH32V307WCU6.elf.dir/Peripheral/src/ch32v30x_tim.c.obj
 .text.TIM_SelectMasterSlaveMode
                0x0000000000000000       0x18 CMakeFiles/CH32V307WCU6.elf.dir/Peripheral/src/ch32v30x_tim.c.obj
 .text.TIM_SetAutoreload
                0x0000000000000000        0x4 CMakeFiles/CH32V307WCU6.elf.dir/Peripheral/src/ch32v30x_tim.c.obj
 .text.TIM_SetCompare1
                0x0000000000000000        0x4 CMakeFiles/CH32V307WCU6.elf.dir/Peripheral/src/ch32v30x_tim.c.obj
 .text.TIM_SetCompare2
                0x0000000000000000        0x4 CMakeFiles/CH32V307WCU6.elf.dir/Peripheral/src/ch32v30x_tim.c.obj
 .text.TIM_SetCompare3
                0x0000000000000000        0x4 CMakeFiles/CH32V307WCU6.elf.dir/Peripheral/src/ch32v30x_tim.c.obj
 .text.TIM_SetCompare4
                0x0000000000000000        0x6 CMakeFiles/CH32V307WCU6.elf.dir/Peripheral/src/ch32v30x_tim.c.obj
 .text.TIM_PWMIConfig
                0x0000000000000000       0x9a CMakeFiles/CH32V307WCU6.elf.dir/Peripheral/src/ch32v30x_tim.c.obj
 .text.TIM_SetClockDivision
                0x0000000000000000       0x18 CMakeFiles/CH32V307WCU6.elf.dir/Peripheral/src/ch32v30x_tim.c.obj
 .text.TIM_GetCapture1
                0x0000000000000000        0x4 CMakeFiles/CH32V307WCU6.elf.dir/Peripheral/src/ch32v30x_tim.c.obj
 .text.TIM_GetCapture2
                0x0000000000000000        0x4 CMakeFiles/CH32V307WCU6.elf.dir/Peripheral/src/ch32v30x_tim.c.obj
 .text.TIM_GetCapture3
                0x0000000000000000        0x4 CMakeFiles/CH32V307WCU6.elf.dir/Peripheral/src/ch32v30x_tim.c.obj
 .text.TIM_GetCapture4
                0x0000000000000000        0x6 CMakeFiles/CH32V307WCU6.elf.dir/Peripheral/src/ch32v30x_tim.c.obj
 .text.TIM_GetCounter
                0x0000000000000000        0x4 CMakeFiles/CH32V307WCU6.elf.dir/Peripheral/src/ch32v30x_tim.c.obj
 .text.TIM_GetPrescaler
                0x0000000000000000        0x4 CMakeFiles/CH32V307WCU6.elf.dir/Peripheral/src/ch32v30x_tim.c.obj
 .text.TIM_GetITStatus
                0x0000000000000000       0x18 CMakeFiles/CH32V307WCU6.elf.dir/Peripheral/src/ch32v30x_tim.c.obj
 .text.TIM_ClearITPendingBit
                0x0000000000000000        0xc CMakeFiles/CH32V307WCU6.elf.dir/Peripheral/src/ch32v30x_tim.c.obj
 .text          0x0000000000000000        0x0 CMakeFiles/CH32V307WCU6.elf.dir/Peripheral/src/ch32v30x_usart.c.obj
 .data          0x0000000000000000        0x0 CMakeFiles/CH32V307WCU6.elf.dir/Peripheral/src/ch32v30x_usart.c.obj
 .bss           0x0000000000000000        0x0 CMakeFiles/CH32V307WCU6.elf.dir/Peripheral/src/ch32v30x_usart.c.obj
 .text.USART_DeInit
                0x0000000000000000      0x154 CMakeFiles/CH32V307WCU6.elf.dir/Peripheral/src/ch32v30x_usart.c.obj
 .text.USART_Init
                0x0000000000000000       0xf4 CMakeFiles/CH32V307WCU6.elf.dir/Peripheral/src/ch32v30x_usart.c.obj
 .text.USART_StructInit
                0x0000000000000000       0x1e CMakeFiles/CH32V307WCU6.elf.dir/Peripheral/src/ch32v30x_usart.c.obj
 .text.USART_ClockInit
                0x0000000000000000       0x22 CMakeFiles/CH32V307WCU6.elf.dir/Peripheral/src/ch32v30x_usart.c.obj
 .text.USART_ClockStructInit
                0x0000000000000000       0x12 CMakeFiles/CH32V307WCU6.elf.dir/Peripheral/src/ch32v30x_usart.c.obj
 .text.USART_Cmd
                0x0000000000000000       0x18 CMakeFiles/CH32V307WCU6.elf.dir/Peripheral/src/ch32v30x_usart.c.obj
 .text.USART_ITConfig
                0x0000000000000000       0x36 CMakeFiles/CH32V307WCU6.elf.dir/Peripheral/src/ch32v30x_usart.c.obj
 .text.USART_DMACmd
                0x0000000000000000       0x16 CMakeFiles/CH32V307WCU6.elf.dir/Peripheral/src/ch32v30x_usart.c.obj
 .text.USART_SetAddress
                0x0000000000000000       0x16 CMakeFiles/CH32V307WCU6.elf.dir/Peripheral/src/ch32v30x_usart.c.obj
 .text.USART_WakeUpConfig
                0x0000000000000000       0x14 CMakeFiles/CH32V307WCU6.elf.dir/Peripheral/src/ch32v30x_usart.c.obj
 .text.USART_ReceiverWakeUpCmd
                0x0000000000000000       0x1c CMakeFiles/CH32V307WCU6.elf.dir/Peripheral/src/ch32v30x_usart.c.obj
 .text.USART_LINBreakDetectLengthConfig
                0x0000000000000000       0x18 CMakeFiles/CH32V307WCU6.elf.dir/Peripheral/src/ch32v30x_usart.c.obj
 .text.USART_LINCmd
                0x0000000000000000       0x18 CMakeFiles/CH32V307WCU6.elf.dir/Peripheral/src/ch32v30x_usart.c.obj
 .text.USART_SendBreak
                0x0000000000000000        0xa CMakeFiles/CH32V307WCU6.elf.dir/Peripheral/src/ch32v30x_usart.c.obj
 .text.USART_SetGuardTime
                0x0000000000000000       0x12 CMakeFiles/CH32V307WCU6.elf.dir/Peripheral/src/ch32v30x_usart.c.obj
 .text.USART_SetPrescaler
                0x0000000000000000       0x18 CMakeFiles/CH32V307WCU6.elf.dir/Peripheral/src/ch32v30x_usart.c.obj
 .text.USART_SmartCardCmd
                0x0000000000000000       0x1e CMakeFiles/CH32V307WCU6.elf.dir/Peripheral/src/ch32v30x_usart.c.obj
 .text.USART_SmartCardNACKCmd
                0x0000000000000000       0x1c CMakeFiles/CH32V307WCU6.elf.dir/Peripheral/src/ch32v30x_usart.c.obj
 .text.USART_HalfDuplexCmd
                0x0000000000000000       0x1c CMakeFiles/CH32V307WCU6.elf.dir/Peripheral/src/ch32v30x_usart.c.obj
 .text.USART_OverSampling8Cmd
                0x0000000000000000       0x1c CMakeFiles/CH32V307WCU6.elf.dir/Peripheral/src/ch32v30x_usart.c.obj
 .text.USART_OneBitMethodCmd
                0x0000000000000000       0x22 CMakeFiles/CH32V307WCU6.elf.dir/Peripheral/src/ch32v30x_usart.c.obj
 .text.USART_IrDAConfig
                0x0000000000000000       0x16 CMakeFiles/CH32V307WCU6.elf.dir/Peripheral/src/ch32v30x_usart.c.obj
 .text.USART_IrDACmd
                0x0000000000000000       0x1c CMakeFiles/CH32V307WCU6.elf.dir/Peripheral/src/ch32v30x_usart.c.obj
 .text.USART_ClearFlag
                0x0000000000000000        0xc CMakeFiles/CH32V307WCU6.elf.dir/Peripheral/src/ch32v30x_usart.c.obj
 .text          0x0000000000000000        0x0 CMakeFiles/CH32V307WCU6.elf.dir/Peripheral/src/ch32v30x_usbfs_device.c.obj
 .data          0x0000000000000000        0x0 CMakeFiles/CH32V307WCU6.elf.dir/Peripheral/src/ch32v30x_usbfs_device.c.obj
 .bss           0x0000000000000000        0x0 CMakeFiles/CH32V307WCU6.elf.dir/Peripheral/src/ch32v30x_usbfs_device.c.obj
 .text.USBFS_Send_Resume
                0x0000000000000000        0x2 CMakeFiles/CH32V307WCU6.elf.dir/Peripheral/src/ch32v30x_usbfs_device.c.obj
 .text          0x0000000000000000        0x0 CMakeFiles/CH32V307WCU6.elf.dir/Peripheral/src/ch32v30x_wwdg.c.obj
 .data          0x0000000000000000        0x0 CMakeFiles/CH32V307WCU6.elf.dir/Peripheral/src/ch32v30x_wwdg.c.obj
 .bss           0x0000000000000000        0x0 CMakeFiles/CH32V307WCU6.elf.dir/Peripheral/src/ch32v30x_wwdg.c.obj
 .text.WWDG_DeInit
                0x0000000000000000       0x2e CMakeFiles/CH32V307WCU6.elf.dir/Peripheral/src/ch32v30x_wwdg.c.obj
 .text.WWDG_SetPrescaler
                0x0000000000000000       0x14 CMakeFiles/CH32V307WCU6.elf.dir/Peripheral/src/ch32v30x_wwdg.c.obj
 .text.WWDG_SetWindowValue
                0x0000000000000000       0x26 CMakeFiles/CH32V307WCU6.elf.dir/Peripheral/src/ch32v30x_wwdg.c.obj
 .text.WWDG_EnableIT
                0x0000000000000000       0x12 CMakeFiles/CH32V307WCU6.elf.dir/Peripheral/src/ch32v30x_wwdg.c.obj
 .text.WWDG_SetCounter
                0x0000000000000000        0xe CMakeFiles/CH32V307WCU6.elf.dir/Peripheral/src/ch32v30x_wwdg.c.obj
 .text.WWDG_Enable
                0x0000000000000000        0xe CMakeFiles/CH32V307WCU6.elf.dir/Peripheral/src/ch32v30x_wwdg.c.obj
 .text.WWDG_GetFlagStatus
                0x0000000000000000        0xa CMakeFiles/CH32V307WCU6.elf.dir/Peripheral/src/ch32v30x_wwdg.c.obj
 .text.WWDG_ClearFlag
                0x0000000000000000        0xa CMakeFiles/CH32V307WCU6.elf.dir/Peripheral/src/ch32v30x_wwdg.c.obj
 .debug_info    0x0000000000000000      0x27a CMakeFiles/CH32V307WCU6.elf.dir/Peripheral/src/ch32v30x_wwdg.c.obj
 .debug_abbrev  0x0000000000000000      0x163 CMakeFiles/CH32V307WCU6.elf.dir/Peripheral/src/ch32v30x_wwdg.c.obj
 .debug_loc     0x0000000000000000       0xae CMakeFiles/CH32V307WCU6.elf.dir/Peripheral/src/ch32v30x_wwdg.c.obj
 .debug_aranges
                0x0000000000000000       0x58 CMakeFiles/CH32V307WCU6.elf.dir/Peripheral/src/ch32v30x_wwdg.c.obj
 .debug_ranges  0x0000000000000000       0x48 CMakeFiles/CH32V307WCU6.elf.dir/Peripheral/src/ch32v30x_wwdg.c.obj
 .debug_line    0x0000000000000000      0x476 CMakeFiles/CH32V307WCU6.elf.dir/Peripheral/src/ch32v30x_wwdg.c.obj
 .debug_str     0x0000000000000000      0x326 CMakeFiles/CH32V307WCU6.elf.dir/Peripheral/src/ch32v30x_wwdg.c.obj
 .comment       0x0000000000000000       0x34 CMakeFiles/CH32V307WCU6.elf.dir/Peripheral/src/ch32v30x_wwdg.c.obj
 .debug_frame   0x0000000000000000       0xa4 CMakeFiles/CH32V307WCU6.elf.dir/Peripheral/src/ch32v30x_wwdg.c.obj
 .text          0x0000000000000000        0x0 CMakeFiles/CH32V307WCU6.elf.dir/Peripheral/src/usb_desc.c.obj
 .data          0x0000000000000000        0x0 CMakeFiles/CH32V307WCU6.elf.dir/Peripheral/src/usb_desc.c.obj
 .bss           0x0000000000000000        0x0 CMakeFiles/CH32V307WCU6.elf.dir/Peripheral/src/usb_desc.c.obj
 .text          0x0000000000000000        0x0 CMakeFiles/CH32V307WCU6.elf.dir/Startup/startup_ch32v30x_D8C.S.obj
 .data          0x0000000000000000        0x0 CMakeFiles/CH32V307WCU6.elf.dir/Startup/startup_ch32v30x_D8C.S.obj
 .bss           0x0000000000000000        0x0 CMakeFiles/CH32V307WCU6.elf.dir/Startup/startup_ch32v30x_D8C.S.obj
 .text          0x0000000000000000        0x0 CMakeFiles/CH32V307WCU6.elf.dir/User/MotorPack/Src/HardWare.c.obj
 .data          0x0000000000000000        0x0 CMakeFiles/CH32V307WCU6.elf.dir/User/MotorPack/Src/HardWare.c.obj
 .bss           0x0000000000000000        0x0 CMakeFiles/CH32V307WCU6.elf.dir/User/MotorPack/Src/HardWare.c.obj
 .text.MY_TIM4_Init
                0x0000000000000000      0x150 CMakeFiles/CH32V307WCU6.elf.dir/User/MotorPack/Src/HardWare.c.obj
 .text.Uart_Init
                0x0000000000000000       0xb6 CMakeFiles/CH32V307WCU6.elf.dir/User/MotorPack/Src/HardWare.c.obj
 .text.USARTx_SendStr
                0x0000000000000000       0x46 CMakeFiles/CH32V307WCU6.elf.dir/User/MotorPack/Src/HardWare.c.obj
 .text          0x0000000000000000        0x0 CMakeFiles/CH32V307WCU6.elf.dir/User/MotorPack/Src/Interrupt.c.obj
 .data          0x0000000000000000        0x0 CMakeFiles/CH32V307WCU6.elf.dir/User/MotorPack/Src/Interrupt.c.obj
 .bss           0x0000000000000000        0x0 CMakeFiles/CH32V307WCU6.elf.dir/User/MotorPack/Src/Interrupt.c.obj
 .text          0x0000000000000000        0x0 CMakeFiles/CH32V307WCU6.elf.dir/User/MotorPack/Src/RealTime_Run.cpp.obj
 .data          0x0000000000000000        0x0 CMakeFiles/CH32V307WCU6.elf.dir/User/MotorPack/Src/RealTime_Run.cpp.obj
 .bss           0x0000000000000000        0x0 CMakeFiles/CH32V307WCU6.elf.dir/User/MotorPack/Src/RealTime_Run.cpp.obj
 .text.OpenMV_ACK
                0x0000000000000000        0x2 CMakeFiles/CH32V307WCU6.elf.dir/User/MotorPack/Src/RealTime_Run.cpp.obj
 .sbss.Start_Recv
                0x0000000000000000        0x1 CMakeFiles/CH32V307WCU6.elf.dir/User/MotorPack/Src/RealTime_Run.cpp.obj
 .sbss.USART_Rbuffer_Num
                0x0000000000000000        0x1 CMakeFiles/CH32V307WCU6.elf.dir/User/MotorPack/Src/RealTime_Run.cpp.obj
 .sbss.over     0x0000000000000000        0x1 CMakeFiles/CH32V307WCU6.elf.dir/User/MotorPack/Src/RealTime_Run.cpp.obj
 .eh_frame      0x0000000000000000      0x224 CMakeFiles/CH32V307WCU6.elf.dir/User/MotorPack/Src/RealTime_Run.cpp.obj
 .text          0x0000000000000000        0x0 CMakeFiles/CH32V307WCU6.elf.dir/User/MotorPack/Src/SMO.c.obj
 .data          0x0000000000000000        0x0 CMakeFiles/CH32V307WCU6.elf.dir/User/MotorPack/Src/SMO.c.obj
 .bss           0x0000000000000000        0x0 CMakeFiles/CH32V307WCU6.elf.dir/User/MotorPack/Src/SMO.c.obj
 .text.Limit_Sat
                0x0000000000000000       0x1c CMakeFiles/CH32V307WCU6.elf.dir/User/MotorPack/Src/SMO.c.obj
 .text.Angle_Cale
                0x0000000000000000       0xe0 CMakeFiles/CH32V307WCU6.elf.dir/User/MotorPack/Src/SMO.c.obj
 .text.SMO_Pare_init
                0x0000000000000000       0x86 CMakeFiles/CH32V307WCU6.elf.dir/User/MotorPack/Src/SMO.c.obj
 .text.Angle_Correct
                0x0000000000000000        0x2 CMakeFiles/CH32V307WCU6.elf.dir/User/MotorPack/Src/SMO.c.obj
 .text.SMO_Speedcale
                0x0000000000000000        0x2 CMakeFiles/CH32V307WCU6.elf.dir/User/MotorPack/Src/SMO.c.obj
 .bss.Angle_SMOPare
                0x0000000000000000       0x44 CMakeFiles/CH32V307WCU6.elf.dir/User/MotorPack/Src/SMO.c.obj
 .bss.Speed_estPare
                0x0000000000000000       0x10 CMakeFiles/CH32V307WCU6.elf.dir/User/MotorPack/Src/SMO.c.obj
 .data.SMO_MotorPare
                0x0000000000000000       0x20 CMakeFiles/CH32V307WCU6.elf.dir/User/MotorPack/Src/SMO.c.obj
 .rodata.SMO_Pare_init.cst4
                0x0000000000000000       0x28 CMakeFiles/CH32V307WCU6.elf.dir/User/MotorPack/Src/SMO.c.obj
 .sdata.Angle_CompCoff
                0x0000000000000000        0x4 CMakeFiles/CH32V307WCU6.elf.dir/User/MotorPack/Src/SMO.c.obj
 .debug_info    0x0000000000000000      0xd1c CMakeFiles/CH32V307WCU6.elf.dir/User/MotorPack/Src/SMO.c.obj
 .debug_abbrev  0x0000000000000000      0x2b8 CMakeFiles/CH32V307WCU6.elf.dir/User/MotorPack/Src/SMO.c.obj
 .debug_loc     0x0000000000000000       0xea CMakeFiles/CH32V307WCU6.elf.dir/User/MotorPack/Src/SMO.c.obj
 .debug_aranges
                0x0000000000000000       0x40 CMakeFiles/CH32V307WCU6.elf.dir/User/MotorPack/Src/SMO.c.obj
 .debug_ranges  0x0000000000000000       0x30 CMakeFiles/CH32V307WCU6.elf.dir/User/MotorPack/Src/SMO.c.obj
 .debug_line    0x0000000000000000      0x6c3 CMakeFiles/CH32V307WCU6.elf.dir/User/MotorPack/Src/SMO.c.obj
 .debug_str     0x0000000000000000      0x855 CMakeFiles/CH32V307WCU6.elf.dir/User/MotorPack/Src/SMO.c.obj
 .comment       0x0000000000000000       0x34 CMakeFiles/CH32V307WCU6.elf.dir/User/MotorPack/Src/SMO.c.obj
 .debug_frame   0x0000000000000000       0x8c CMakeFiles/CH32V307WCU6.elf.dir/User/MotorPack/Src/SMO.c.obj
 .text          0x0000000000000000        0x0 CMakeFiles/CH32V307WCU6.elf.dir/User/MotorPack/Src/app_main.cpp.obj
 .data          0x0000000000000000        0x0 CMakeFiles/CH32V307WCU6.elf.dir/User/MotorPack/Src/app_main.cpp.obj
 .bss           0x0000000000000000        0x0 CMakeFiles/CH32V307WCU6.elf.dir/User/MotorPack/Src/app_main.cpp.obj
 .sbss.CAN_Status
                0x0000000000000000        0x1 CMakeFiles/CH32V307WCU6.elf.dir/User/MotorPack/Src/app_main.cpp.obj
 .sbss.direction
                0x0000000000000000        0x1 CMakeFiles/CH32V307WCU6.elf.dir/User/MotorPack/Src/app_main.cpp.obj
 .eh_frame      0x0000000000000000       0x5c CMakeFiles/CH32V307WCU6.elf.dir/User/MotorPack/Src/app_main.cpp.obj
 .text          0x0000000000000000        0x0 CMakeFiles/CH32V307WCU6.elf.dir/User/MotorPack/Src/motor.cpp.obj
 .data          0x0000000000000000        0x0 CMakeFiles/CH32V307WCU6.elf.dir/User/MotorPack/Src/motor.cpp.obj
 .bss           0x0000000000000000        0x0 CMakeFiles/CH32V307WCU6.elf.dir/User/MotorPack/Src/motor.cpp.obj
 .text._ZN5Motor15observer_updateEm
                0x0000000000000000        0x2 CMakeFiles/CH32V307WCU6.elf.dir/User/MotorPack/Src/motor.cpp.obj
 .eh_frame      0x0000000000000000      0x214 CMakeFiles/CH32V307WCU6.elf.dir/User/MotorPack/Src/motor.cpp.obj
 .text          0x0000000000000000        0x0 CMakeFiles/CH32V307WCU6.elf.dir/User/MotorPack/Src/system_ch32v30x.c.obj
 .data          0x0000000000000000        0x0 CMakeFiles/CH32V307WCU6.elf.dir/User/MotorPack/Src/system_ch32v30x.c.obj
 .bss           0x0000000000000000        0x0 CMakeFiles/CH32V307WCU6.elf.dir/User/MotorPack/Src/system_ch32v30x.c.obj
 .text          0x0000000000000000        0x0 CMakeFiles/CH32V307WCU6.elf.dir/User/main.c.obj
 .data          0x0000000000000000        0x0 CMakeFiles/CH32V307WCU6.elf.dir/User/main.c.obj
 .bss           0x0000000000000000        0x0 CMakeFiles/CH32V307WCU6.elf.dir/User/main.c.obj
 .text          0x0000000000000000        0x0 D:/SoftWare/WW/MounRiver_Studio/MounRiver_Studio/MounRiver/MounRiver_Studio/toolchain/RISC-V Embedded GCC/riscv-none-embed/lib/rv32imafcxw/ilp32f/libm.a(lib_a-sf_cos.o)
 .data          0x0000000000000000        0x0 D:/SoftWare/WW/MounRiver_Studio/MounRiver_Studio/MounRiver/MounRiver_Studio/toolchain/RISC-V Embedded GCC/riscv-none-embed/lib/rv32imafcxw/ilp32f/libm.a(lib_a-sf_cos.o)
 .bss           0x0000000000000000        0x0 D:/SoftWare/WW/MounRiver_Studio/MounRiver_Studio/MounRiver/MounRiver_Studio/toolchain/RISC-V Embedded GCC/riscv-none-embed/lib/rv32imafcxw/ilp32f/libm.a(lib_a-sf_cos.o)
 .text          0x0000000000000000        0x0 D:/SoftWare/WW/MounRiver_Studio/MounRiver_Studio/MounRiver/MounRiver_Studio/toolchain/RISC-V Embedded GCC/riscv-none-embed/lib/rv32imafcxw/ilp32f/libm.a(lib_a-sf_floor.o)
 .data          0x0000000000000000        0x0 D:/SoftWare/WW/MounRiver_Studio/MounRiver_Studio/MounRiver/MounRiver_Studio/toolchain/RISC-V Embedded GCC/riscv-none-embed/lib/rv32imafcxw/ilp32f/libm.a(lib_a-sf_floor.o)
 .bss           0x0000000000000000        0x0 D:/SoftWare/WW/MounRiver_Studio/MounRiver_Studio/MounRiver/MounRiver_Studio/toolchain/RISC-V Embedded GCC/riscv-none-embed/lib/rv32imafcxw/ilp32f/libm.a(lib_a-sf_floor.o)
 .text          0x0000000000000000        0x0 D:/SoftWare/WW/MounRiver_Studio/MounRiver_Studio/MounRiver/MounRiver_Studio/toolchain/RISC-V Embedded GCC/riscv-none-embed/lib/rv32imafcxw/ilp32f/libm.a(lib_a-sf_nearbyint.o)
 .data          0x0000000000000000        0x0 D:/SoftWare/WW/MounRiver_Studio/MounRiver_Studio/MounRiver/MounRiver_Studio/toolchain/RISC-V Embedded GCC/riscv-none-embed/lib/rv32imafcxw/ilp32f/libm.a(lib_a-sf_nearbyint.o)
 .bss           0x0000000000000000        0x0 D:/SoftWare/WW/MounRiver_Studio/MounRiver_Studio/MounRiver/MounRiver_Studio/toolchain/RISC-V Embedded GCC/riscv-none-embed/lib/rv32imafcxw/ilp32f/libm.a(lib_a-sf_nearbyint.o)
 .text          0x0000000000000000        0x0 D:/SoftWare/WW/MounRiver_Studio/MounRiver_Studio/MounRiver/MounRiver_Studio/toolchain/RISC-V Embedded GCC/riscv-none-embed/lib/rv32imafcxw/ilp32f/libm.a(lib_a-sf_rint.o)
 .data          0x0000000000000000        0x0 D:/SoftWare/WW/MounRiver_Studio/MounRiver_Studio/MounRiver/MounRiver_Studio/toolchain/RISC-V Embedded GCC/riscv-none-embed/lib/rv32imafcxw/ilp32f/libm.a(lib_a-sf_rint.o)
 .bss           0x0000000000000000        0x0 D:/SoftWare/WW/MounRiver_Studio/MounRiver_Studio/MounRiver/MounRiver_Studio/toolchain/RISC-V Embedded GCC/riscv-none-embed/lib/rv32imafcxw/ilp32f/libm.a(lib_a-sf_rint.o)
 .text          0x0000000000000000        0x0 D:/SoftWare/WW/MounRiver_Studio/MounRiver_Studio/MounRiver/MounRiver_Studio/toolchain/RISC-V Embedded GCC/riscv-none-embed/lib/rv32imafcxw/ilp32f/libm.a(lib_a-sf_sin.o)
 .data          0x0000000000000000        0x0 D:/SoftWare/WW/MounRiver_Studio/MounRiver_Studio/MounRiver/MounRiver_Studio/toolchain/RISC-V Embedded GCC/riscv-none-embed/lib/rv32imafcxw/ilp32f/libm.a(lib_a-sf_sin.o)
 .bss           0x0000000000000000        0x0 D:/SoftWare/WW/MounRiver_Studio/MounRiver_Studio/MounRiver/MounRiver_Studio/toolchain/RISC-V Embedded GCC/riscv-none-embed/lib/rv32imafcxw/ilp32f/libm.a(lib_a-sf_sin.o)
 .text          0x0000000000000000        0x0 D:/SoftWare/WW/MounRiver_Studio/MounRiver_Studio/MounRiver/MounRiver_Studio/toolchain/RISC-V Embedded GCC/riscv-none-embed/lib/rv32imafcxw/ilp32f/libm.a(lib_a-w_sqrt.o)
 .data          0x0000000000000000        0x0 D:/SoftWare/WW/MounRiver_Studio/MounRiver_Studio/MounRiver/MounRiver_Studio/toolchain/RISC-V Embedded GCC/riscv-none-embed/lib/rv32imafcxw/ilp32f/libm.a(lib_a-w_sqrt.o)
 .bss           0x0000000000000000        0x0 D:/SoftWare/WW/MounRiver_Studio/MounRiver_Studio/MounRiver/MounRiver_Studio/toolchain/RISC-V Embedded GCC/riscv-none-embed/lib/rv32imafcxw/ilp32f/libm.a(lib_a-w_sqrt.o)
 .text          0x0000000000000000        0x0 D:/SoftWare/WW/MounRiver_Studio/MounRiver_Studio/MounRiver/MounRiver_Studio/toolchain/RISC-V Embedded GCC/riscv-none-embed/lib/rv32imafcxw/ilp32f/libm.a(lib_a-wf_sqrt.o)
 .data          0x0000000000000000        0x0 D:/SoftWare/WW/MounRiver_Studio/MounRiver_Studio/MounRiver/MounRiver_Studio/toolchain/RISC-V Embedded GCC/riscv-none-embed/lib/rv32imafcxw/ilp32f/libm.a(lib_a-wf_sqrt.o)
 .bss           0x0000000000000000        0x0 D:/SoftWare/WW/MounRiver_Studio/MounRiver_Studio/MounRiver/MounRiver_Studio/toolchain/RISC-V Embedded GCC/riscv-none-embed/lib/rv32imafcxw/ilp32f/libm.a(lib_a-wf_sqrt.o)
 .text          0x0000000000000000        0x0 D:/SoftWare/WW/MounRiver_Studio/MounRiver_Studio/MounRiver/MounRiver_Studio/toolchain/RISC-V Embedded GCC/riscv-none-embed/lib/rv32imafcxw/ilp32f/libm.a(lib_a-e_sqrt.o)
 .data          0x0000000000000000        0x0 D:/SoftWare/WW/MounRiver_Studio/MounRiver_Studio/MounRiver/MounRiver_Studio/toolchain/RISC-V Embedded GCC/riscv-none-embed/lib/rv32imafcxw/ilp32f/libm.a(lib_a-e_sqrt.o)
 .bss           0x0000000000000000        0x0 D:/SoftWare/WW/MounRiver_Studio/MounRiver_Studio/MounRiver/MounRiver_Studio/toolchain/RISC-V Embedded GCC/riscv-none-embed/lib/rv32imafcxw/ilp32f/libm.a(lib_a-e_sqrt.o)
 .text          0x0000000000000000        0x0 D:/SoftWare/WW/MounRiver_Studio/MounRiver_Studio/MounRiver/MounRiver_Studio/toolchain/RISC-V Embedded GCC/riscv-none-embed/lib/rv32imafcxw/ilp32f/libm.a(lib_a-ef_rem_pio2.o)
 .data          0x0000000000000000        0x0 D:/SoftWare/WW/MounRiver_Studio/MounRiver_Studio/MounRiver/MounRiver_Studio/toolchain/RISC-V Embedded GCC/riscv-none-embed/lib/rv32imafcxw/ilp32f/libm.a(lib_a-ef_rem_pio2.o)
 .bss           0x0000000000000000        0x0 D:/SoftWare/WW/MounRiver_Studio/MounRiver_Studio/MounRiver/MounRiver_Studio/toolchain/RISC-V Embedded GCC/riscv-none-embed/lib/rv32imafcxw/ilp32f/libm.a(lib_a-ef_rem_pio2.o)
 .text          0x0000000000000000        0x0 D:/SoftWare/WW/MounRiver_Studio/MounRiver_Studio/MounRiver/MounRiver_Studio/toolchain/RISC-V Embedded GCC/riscv-none-embed/lib/rv32imafcxw/ilp32f/libm.a(lib_a-ef_sqrt.o)
 .data          0x0000000000000000        0x0 D:/SoftWare/WW/MounRiver_Studio/MounRiver_Studio/MounRiver/MounRiver_Studio/toolchain/RISC-V Embedded GCC/riscv-none-embed/lib/rv32imafcxw/ilp32f/libm.a(lib_a-ef_sqrt.o)
 .bss           0x0000000000000000        0x0 D:/SoftWare/WW/MounRiver_Studio/MounRiver_Studio/MounRiver/MounRiver_Studio/toolchain/RISC-V Embedded GCC/riscv-none-embed/lib/rv32imafcxw/ilp32f/libm.a(lib_a-ef_sqrt.o)
 .text          0x0000000000000000        0x0 D:/SoftWare/WW/MounRiver_Studio/MounRiver_Studio/MounRiver/MounRiver_Studio/toolchain/RISC-V Embedded GCC/riscv-none-embed/lib/rv32imafcxw/ilp32f/libm.a(lib_a-kf_cos.o)
 .data          0x0000000000000000        0x0 D:/SoftWare/WW/MounRiver_Studio/MounRiver_Studio/MounRiver/MounRiver_Studio/toolchain/RISC-V Embedded GCC/riscv-none-embed/lib/rv32imafcxw/ilp32f/libm.a(lib_a-kf_cos.o)
 .bss           0x0000000000000000        0x0 D:/SoftWare/WW/MounRiver_Studio/MounRiver_Studio/MounRiver/MounRiver_Studio/toolchain/RISC-V Embedded GCC/riscv-none-embed/lib/rv32imafcxw/ilp32f/libm.a(lib_a-kf_cos.o)
 .text          0x0000000000000000        0x0 D:/SoftWare/WW/MounRiver_Studio/MounRiver_Studio/MounRiver/MounRiver_Studio/toolchain/RISC-V Embedded GCC/riscv-none-embed/lib/rv32imafcxw/ilp32f/libm.a(lib_a-kf_rem_pio2.o)
 .data          0x0000000000000000        0x0 D:/SoftWare/WW/MounRiver_Studio/MounRiver_Studio/MounRiver/MounRiver_Studio/toolchain/RISC-V Embedded GCC/riscv-none-embed/lib/rv32imafcxw/ilp32f/libm.a(lib_a-kf_rem_pio2.o)
 .bss           0x0000000000000000        0x0 D:/SoftWare/WW/MounRiver_Studio/MounRiver_Studio/MounRiver/MounRiver_Studio/toolchain/RISC-V Embedded GCC/riscv-none-embed/lib/rv32imafcxw/ilp32f/libm.a(lib_a-kf_rem_pio2.o)
 .text          0x0000000000000000        0x0 D:/SoftWare/WW/MounRiver_Studio/MounRiver_Studio/MounRiver/MounRiver_Studio/toolchain/RISC-V Embedded GCC/riscv-none-embed/lib/rv32imafcxw/ilp32f/libm.a(lib_a-kf_sin.o)
 .data          0x0000000000000000        0x0 D:/SoftWare/WW/MounRiver_Studio/MounRiver_Studio/MounRiver/MounRiver_Studio/toolchain/RISC-V Embedded GCC/riscv-none-embed/lib/rv32imafcxw/ilp32f/libm.a(lib_a-kf_sin.o)
 .bss           0x0000000000000000        0x0 D:/SoftWare/WW/MounRiver_Studio/MounRiver_Studio/MounRiver/MounRiver_Studio/toolchain/RISC-V Embedded GCC/riscv-none-embed/lib/rv32imafcxw/ilp32f/libm.a(lib_a-kf_sin.o)
 .text          0x0000000000000000        0x0 D:/SoftWare/WW/MounRiver_Studio/MounRiver_Studio/MounRiver/MounRiver_Studio/toolchain/RISC-V Embedded GCC/riscv-none-embed/lib/rv32imafcxw/ilp32f/libm.a(lib_a-s_lib_ver.o)
 .data          0x0000000000000000        0x0 D:/SoftWare/WW/MounRiver_Studio/MounRiver_Studio/MounRiver/MounRiver_Studio/toolchain/RISC-V Embedded GCC/riscv-none-embed/lib/rv32imafcxw/ilp32f/libm.a(lib_a-s_lib_ver.o)
 .bss           0x0000000000000000        0x0 D:/SoftWare/WW/MounRiver_Studio/MounRiver_Studio/MounRiver/MounRiver_Studio/toolchain/RISC-V Embedded GCC/riscv-none-embed/lib/rv32imafcxw/ilp32f/libm.a(lib_a-s_lib_ver.o)
 .text          0x0000000000000000        0x0 D:/SoftWare/WW/MounRiver_Studio/MounRiver_Studio/MounRiver/MounRiver_Studio/toolchain/RISC-V Embedded GCC/riscv-none-embed/lib/rv32imafcxw/ilp32f/libm.a(lib_a-s_matherr.o)
 .data          0x0000000000000000        0x0 D:/SoftWare/WW/MounRiver_Studio/MounRiver_Studio/MounRiver/MounRiver_Studio/toolchain/RISC-V Embedded GCC/riscv-none-embed/lib/rv32imafcxw/ilp32f/libm.a(lib_a-s_matherr.o)
 .bss           0x0000000000000000        0x0 D:/SoftWare/WW/MounRiver_Studio/MounRiver_Studio/MounRiver/MounRiver_Studio/toolchain/RISC-V Embedded GCC/riscv-none-embed/lib/rv32imafcxw/ilp32f/libm.a(lib_a-s_matherr.o)
 .text          0x0000000000000000        0x0 D:/SoftWare/WW/MounRiver_Studio/MounRiver_Studio/MounRiver/MounRiver_Studio/toolchain/RISC-V Embedded GCC/riscv-none-embed/lib/rv32imafcxw/ilp32f/libm.a(lib_a-sf_fabs.o)
 .data          0x0000000000000000        0x0 D:/SoftWare/WW/MounRiver_Studio/MounRiver_Studio/MounRiver/MounRiver_Studio/toolchain/RISC-V Embedded GCC/riscv-none-embed/lib/rv32imafcxw/ilp32f/libm.a(lib_a-sf_fabs.o)
 .bss           0x0000000000000000        0x0 D:/SoftWare/WW/MounRiver_Studio/MounRiver_Studio/MounRiver/MounRiver_Studio/toolchain/RISC-V Embedded GCC/riscv-none-embed/lib/rv32imafcxw/ilp32f/libm.a(lib_a-sf_fabs.o)
 .text          0x0000000000000000        0x0 D:/SoftWare/WW/MounRiver_Studio/MounRiver_Studio/MounRiver/MounRiver_Studio/toolchain/RISC-V Embedded GCC/riscv-none-embed/lib/rv32imafcxw/ilp32f/libm.a(lib_a-sf_scalbn.o)
 .data          0x0000000000000000        0x0 D:/SoftWare/WW/MounRiver_Studio/MounRiver_Studio/MounRiver/MounRiver_Studio/toolchain/RISC-V Embedded GCC/riscv-none-embed/lib/rv32imafcxw/ilp32f/libm.a(lib_a-sf_scalbn.o)
 .bss           0x0000000000000000        0x0 D:/SoftWare/WW/MounRiver_Studio/MounRiver_Studio/MounRiver/MounRiver_Studio/toolchain/RISC-V Embedded GCC/riscv-none-embed/lib/rv32imafcxw/ilp32f/libm.a(lib_a-sf_scalbn.o)
 .text          0x0000000000000000        0x0 D:/SoftWare/WW/MounRiver_Studio/MounRiver_Studio/MounRiver/MounRiver_Studio/toolchain/RISC-V Embedded GCC/riscv-none-embed/lib/rv32imafcxw/ilp32f/libm.a(lib_a-sf_copysign.o)
 .data          0x0000000000000000        0x0 D:/SoftWare/WW/MounRiver_Studio/MounRiver_Studio/MounRiver/MounRiver_Studio/toolchain/RISC-V Embedded GCC/riscv-none-embed/lib/rv32imafcxw/ilp32f/libm.a(lib_a-sf_copysign.o)
 .bss           0x0000000000000000        0x0 D:/SoftWare/WW/MounRiver_Studio/MounRiver_Studio/MounRiver/MounRiver_Studio/toolchain/RISC-V Embedded GCC/riscv-none-embed/lib/rv32imafcxw/ilp32f/libm.a(lib_a-sf_copysign.o)
 .text          0x0000000000000000        0x0 d:/software/ww/mounriver_studio/mounriver_studio/mounriver/mounriver_studio/toolchain/risc-v embedded gcc/bin/../lib/gcc/riscv-none-embed/8.2.0/rv32imafcxw/ilp32f\libgcc.a(adddf3.o)
 .data          0x0000000000000000        0x0 d:/software/ww/mounriver_studio/mounriver_studio/mounriver/mounriver_studio/toolchain/risc-v embedded gcc/bin/../lib/gcc/riscv-none-embed/8.2.0/rv32imafcxw/ilp32f\libgcc.a(adddf3.o)
 .bss           0x0000000000000000        0x0 d:/software/ww/mounriver_studio/mounriver_studio/mounriver/mounriver_studio/toolchain/risc-v embedded gcc/bin/../lib/gcc/riscv-none-embed/8.2.0/rv32imafcxw/ilp32f\libgcc.a(adddf3.o)
 .text          0x0000000000000000        0x0 d:/software/ww/mounriver_studio/mounriver_studio/mounriver/mounriver_studio/toolchain/risc-v embedded gcc/bin/../lib/gcc/riscv-none-embed/8.2.0/rv32imafcxw/ilp32f\libgcc.a(divdf3.o)
 .data          0x0000000000000000        0x0 d:/software/ww/mounriver_studio/mounriver_studio/mounriver/mounriver_studio/toolchain/risc-v embedded gcc/bin/../lib/gcc/riscv-none-embed/8.2.0/rv32imafcxw/ilp32f\libgcc.a(divdf3.o)
 .bss           0x0000000000000000        0x0 d:/software/ww/mounriver_studio/mounriver_studio/mounriver/mounriver_studio/toolchain/risc-v embedded gcc/bin/../lib/gcc/riscv-none-embed/8.2.0/rv32imafcxw/ilp32f\libgcc.a(divdf3.o)
 .text          0x0000000000000000        0x0 d:/software/ww/mounriver_studio/mounriver_studio/mounriver/mounriver_studio/toolchain/risc-v embedded gcc/bin/../lib/gcc/riscv-none-embed/8.2.0/rv32imafcxw/ilp32f\libgcc.a(ledf2.o)
 .data          0x0000000000000000        0x0 d:/software/ww/mounriver_studio/mounriver_studio/mounriver/mounriver_studio/toolchain/risc-v embedded gcc/bin/../lib/gcc/riscv-none-embed/8.2.0/rv32imafcxw/ilp32f\libgcc.a(ledf2.o)
 .bss           0x0000000000000000        0x0 d:/software/ww/mounriver_studio/mounriver_studio/mounriver/mounriver_studio/toolchain/risc-v embedded gcc/bin/../lib/gcc/riscv-none-embed/8.2.0/rv32imafcxw/ilp32f\libgcc.a(ledf2.o)
 .text          0x0000000000000000        0x0 d:/software/ww/mounriver_studio/mounriver_studio/mounriver/mounriver_studio/toolchain/risc-v embedded gcc/bin/../lib/gcc/riscv-none-embed/8.2.0/rv32imafcxw/ilp32f\libgcc.a(muldf3.o)
 .data          0x0000000000000000        0x0 d:/software/ww/mounriver_studio/mounriver_studio/mounriver/mounriver_studio/toolchain/risc-v embedded gcc/bin/../lib/gcc/riscv-none-embed/8.2.0/rv32imafcxw/ilp32f\libgcc.a(muldf3.o)
 .bss           0x0000000000000000        0x0 d:/software/ww/mounriver_studio/mounriver_studio/mounriver/mounriver_studio/toolchain/risc-v embedded gcc/bin/../lib/gcc/riscv-none-embed/8.2.0/rv32imafcxw/ilp32f\libgcc.a(muldf3.o)
 .text          0x0000000000000000        0x0 d:/software/ww/mounriver_studio/mounriver_studio/mounriver/mounriver_studio/toolchain/risc-v embedded gcc/bin/../lib/gcc/riscv-none-embed/8.2.0/rv32imafcxw/ilp32f\libgcc.a(subdf3.o)
 .data          0x0000000000000000        0x0 d:/software/ww/mounriver_studio/mounriver_studio/mounriver/mounriver_studio/toolchain/risc-v embedded gcc/bin/../lib/gcc/riscv-none-embed/8.2.0/rv32imafcxw/ilp32f\libgcc.a(subdf3.o)
 .bss           0x0000000000000000        0x0 d:/software/ww/mounriver_studio/mounriver_studio/mounriver/mounriver_studio/toolchain/risc-v embedded gcc/bin/../lib/gcc/riscv-none-embed/8.2.0/rv32imafcxw/ilp32f\libgcc.a(subdf3.o)
 .text          0x0000000000000000        0x0 d:/software/ww/mounriver_studio/mounriver_studio/mounriver/mounriver_studio/toolchain/risc-v embedded gcc/bin/../lib/gcc/riscv-none-embed/8.2.0/rv32imafcxw/ilp32f\libgcc.a(unorddf2.o)
 .data          0x0000000000000000        0x0 d:/software/ww/mounriver_studio/mounriver_studio/mounriver/mounriver_studio/toolchain/risc-v embedded gcc/bin/../lib/gcc/riscv-none-embed/8.2.0/rv32imafcxw/ilp32f\libgcc.a(unorddf2.o)
 .bss           0x0000000000000000        0x0 d:/software/ww/mounriver_studio/mounriver_studio/mounriver/mounriver_studio/toolchain/risc-v embedded gcc/bin/../lib/gcc/riscv-none-embed/8.2.0/rv32imafcxw/ilp32f\libgcc.a(unorddf2.o)
 .text          0x0000000000000000        0x0 d:/software/ww/mounriver_studio/mounriver_studio/mounriver/mounriver_studio/toolchain/risc-v embedded gcc/bin/../lib/gcc/riscv-none-embed/8.2.0/rv32imafcxw/ilp32f\libgcc.a(extendsfdf2.o)
 .data          0x0000000000000000        0x0 d:/software/ww/mounriver_studio/mounriver_studio/mounriver/mounriver_studio/toolchain/risc-v embedded gcc/bin/../lib/gcc/riscv-none-embed/8.2.0/rv32imafcxw/ilp32f\libgcc.a(extendsfdf2.o)
 .bss           0x0000000000000000        0x0 d:/software/ww/mounriver_studio/mounriver_studio/mounriver/mounriver_studio/toolchain/risc-v embedded gcc/bin/../lib/gcc/riscv-none-embed/8.2.0/rv32imafcxw/ilp32f\libgcc.a(extendsfdf2.o)
 .text          0x0000000000000000        0x0 d:/software/ww/mounriver_studio/mounriver_studio/mounriver/mounriver_studio/toolchain/risc-v embedded gcc/bin/../lib/gcc/riscv-none-embed/8.2.0/rv32imafcxw/ilp32f\libgcc.a(truncdfsf2.o)
 .data          0x0000000000000000        0x0 d:/software/ww/mounriver_studio/mounriver_studio/mounriver/mounriver_studio/toolchain/risc-v embedded gcc/bin/../lib/gcc/riscv-none-embed/8.2.0/rv32imafcxw/ilp32f\libgcc.a(truncdfsf2.o)
 .bss           0x0000000000000000        0x0 d:/software/ww/mounriver_studio/mounriver_studio/mounriver/mounriver_studio/toolchain/risc-v embedded gcc/bin/../lib/gcc/riscv-none-embed/8.2.0/rv32imafcxw/ilp32f\libgcc.a(truncdfsf2.o)
 .data          0x0000000000000000        0x0 d:/software/ww/mounriver_studio/mounriver_studio/mounriver/mounriver_studio/toolchain/risc-v embedded gcc/bin/../lib/gcc/riscv-none-embed/8.2.0/rv32imafcxw/ilp32f\libgcc.a(save-restore.o)
 .bss           0x0000000000000000        0x0 d:/software/ww/mounriver_studio/mounriver_studio/mounriver/mounriver_studio/toolchain/risc-v embedded gcc/bin/../lib/gcc/riscv-none-embed/8.2.0/rv32imafcxw/ilp32f\libgcc.a(save-restore.o)
 .eh_frame      0x0000000000000000       0xf8 d:/software/ww/mounriver_studio/mounriver_studio/mounriver/mounriver_studio/toolchain/risc-v embedded gcc/bin/../lib/gcc/riscv-none-embed/8.2.0/rv32imafcxw/ilp32f\libgcc.a(save-restore.o)
 .text          0x0000000000000000        0x0 d:/software/ww/mounriver_studio/mounriver_studio/mounriver/mounriver_studio/toolchain/risc-v embedded gcc/bin/../lib/gcc/riscv-none-embed/8.2.0/rv32imafcxw/ilp32f\libgcc.a(_clzsi2.o)
 .data          0x0000000000000000        0x0 d:/software/ww/mounriver_studio/mounriver_studio/mounriver/mounriver_studio/toolchain/risc-v embedded gcc/bin/../lib/gcc/riscv-none-embed/8.2.0/rv32imafcxw/ilp32f\libgcc.a(_clzsi2.o)
 .bss           0x0000000000000000        0x0 d:/software/ww/mounriver_studio/mounriver_studio/mounriver/mounriver_studio/toolchain/risc-v embedded gcc/bin/../lib/gcc/riscv-none-embed/8.2.0/rv32imafcxw/ilp32f\libgcc.a(_clzsi2.o)
 .text          0x0000000000000000        0x0 d:/software/ww/mounriver_studio/mounriver_studio/mounriver/mounriver_studio/toolchain/risc-v embedded gcc/bin/../lib/gcc/riscv-none-embed/8.2.0/rv32imafcxw/ilp32f\libgcc.a(_clz.o)
 .data          0x0000000000000000        0x0 d:/software/ww/mounriver_studio/mounriver_studio/mounriver/mounriver_studio/toolchain/risc-v embedded gcc/bin/../lib/gcc/riscv-none-embed/8.2.0/rv32imafcxw/ilp32f\libgcc.a(_clz.o)
 .bss           0x0000000000000000        0x0 d:/software/ww/mounriver_studio/mounriver_studio/mounriver/mounriver_studio/toolchain/risc-v embedded gcc/bin/../lib/gcc/riscv-none-embed/8.2.0/rv32imafcxw/ilp32f\libgcc.a(_clz.o)
 .text          0x0000000000000000        0x0 d:/software/ww/mounriver_studio/mounriver_studio/mounriver/mounriver_studio/toolchain/risc-v embedded gcc/bin/../lib/gcc/riscv-none-embed/8.2.0/../../../../riscv-none-embed/lib/rv32imafcxw/ilp32f\libg_nano.a(lib_a-errno.o)
 .data          0x0000000000000000        0x0 d:/software/ww/mounriver_studio/mounriver_studio/mounriver/mounriver_studio/toolchain/risc-v embedded gcc/bin/../lib/gcc/riscv-none-embed/8.2.0/../../../../riscv-none-embed/lib/rv32imafcxw/ilp32f\libg_nano.a(lib_a-errno.o)
 .bss           0x0000000000000000        0x0 d:/software/ww/mounriver_studio/mounriver_studio/mounriver/mounriver_studio/toolchain/risc-v embedded gcc/bin/../lib/gcc/riscv-none-embed/8.2.0/../../../../riscv-none-embed/lib/rv32imafcxw/ilp32f\libg_nano.a(lib_a-errno.o)
 .text          0x0000000000000000        0x0 d:/software/ww/mounriver_studio/mounriver_studio/mounriver/mounriver_studio/toolchain/risc-v embedded gcc/bin/../lib/gcc/riscv-none-embed/8.2.0/../../../../riscv-none-embed/lib/rv32imafcxw/ilp32f\libg_nano.a(lib_a-impure.o)
 .data          0x0000000000000000        0x0 d:/software/ww/mounriver_studio/mounriver_studio/mounriver/mounriver_studio/toolchain/risc-v embedded gcc/bin/../lib/gcc/riscv-none-embed/8.2.0/../../../../riscv-none-embed/lib/rv32imafcxw/ilp32f\libg_nano.a(lib_a-impure.o)
 .bss           0x0000000000000000        0x0 d:/software/ww/mounriver_studio/mounriver_studio/mounriver/mounriver_studio/toolchain/risc-v embedded gcc/bin/../lib/gcc/riscv-none-embed/8.2.0/../../../../riscv-none-embed/lib/rv32imafcxw/ilp32f\libg_nano.a(lib_a-impure.o)
 .sdata2._global_impure_ptr
                0x0000000000000000        0x4 d:/software/ww/mounriver_studio/mounriver_studio/mounriver/mounriver_studio/toolchain/risc-v embedded gcc/bin/../lib/gcc/riscv-none-embed/8.2.0/../../../../riscv-none-embed/lib/rv32imafcxw/ilp32f\libg_nano.a(lib_a-impure.o)
 .text          0x0000000000000000        0x0 d:/software/ww/mounriver_studio/mounriver_studio/mounriver/mounriver_studio/toolchain/risc-v embedded gcc/bin/../lib/gcc/riscv-none-embed/8.2.0/../../../../riscv-none-embed/lib/rv32imafcxw/ilp32f\libg_nano.a(lib_a-memcpy.o)
 .data          0x0000000000000000        0x0 d:/software/ww/mounriver_studio/mounriver_studio/mounriver/mounriver_studio/toolchain/risc-v embedded gcc/bin/../lib/gcc/riscv-none-embed/8.2.0/../../../../riscv-none-embed/lib/rv32imafcxw/ilp32f\libg_nano.a(lib_a-memcpy.o)
 .bss           0x0000000000000000        0x0 d:/software/ww/mounriver_studio/mounriver_studio/mounriver/mounriver_studio/toolchain/risc-v embedded gcc/bin/../lib/gcc/riscv-none-embed/8.2.0/../../../../riscv-none-embed/lib/rv32imafcxw/ilp32f\libg_nano.a(lib_a-memcpy.o)

Memory Configuration

Name             Origin             Length             Attributes
FLASH            0x0000000000000000 0x0000000000048000 xr
RAM              0x0000000020000000 0x0000000000008000 xrw
*default*        0x0000000000000000 0xffffffffffffffff

Linker script and memory map

LOAD CMakeFiles/CH32V307WCU6.elf.dir/Core/core_riscv.c.obj
LOAD CMakeFiles/CH32V307WCU6.elf.dir/Debug/debug.c.obj
LOAD CMakeFiles/CH32V307WCU6.elf.dir/Peripheral/src/ch32v30x_adc.c.obj
LOAD CMakeFiles/CH32V307WCU6.elf.dir/Peripheral/src/ch32v30x_bkp.c.obj
LOAD CMakeFiles/CH32V307WCU6.elf.dir/Peripheral/src/ch32v30x_can.c.obj
LOAD CMakeFiles/CH32V307WCU6.elf.dir/Peripheral/src/ch32v30x_crc.c.obj
LOAD CMakeFiles/CH32V307WCU6.elf.dir/Peripheral/src/ch32v30x_dac.c.obj
LOAD CMakeFiles/CH32V307WCU6.elf.dir/Peripheral/src/ch32v30x_dbgmcu.c.obj
LOAD CMakeFiles/CH32V307WCU6.elf.dir/Peripheral/src/ch32v30x_dma.c.obj
LOAD CMakeFiles/CH32V307WCU6.elf.dir/Peripheral/src/ch32v30x_dvp.c.obj
LOAD CMakeFiles/CH32V307WCU6.elf.dir/Peripheral/src/ch32v30x_eth.c.obj
LOAD CMakeFiles/CH32V307WCU6.elf.dir/Peripheral/src/ch32v30x_exti.c.obj
LOAD CMakeFiles/CH32V307WCU6.elf.dir/Peripheral/src/ch32v30x_flash.c.obj
LOAD CMakeFiles/CH32V307WCU6.elf.dir/Peripheral/src/ch32v30x_fsmc.c.obj
LOAD CMakeFiles/CH32V307WCU6.elf.dir/Peripheral/src/ch32v30x_gpio.c.obj
LOAD CMakeFiles/CH32V307WCU6.elf.dir/Peripheral/src/ch32v30x_i2c.c.obj
LOAD CMakeFiles/CH32V307WCU6.elf.dir/Peripheral/src/ch32v30x_iwdg.c.obj
LOAD CMakeFiles/CH32V307WCU6.elf.dir/Peripheral/src/ch32v30x_misc.c.obj
LOAD CMakeFiles/CH32V307WCU6.elf.dir/Peripheral/src/ch32v30x_opa.c.obj
LOAD CMakeFiles/CH32V307WCU6.elf.dir/Peripheral/src/ch32v30x_pwr.c.obj
LOAD CMakeFiles/CH32V307WCU6.elf.dir/Peripheral/src/ch32v30x_rcc.c.obj
LOAD CMakeFiles/CH32V307WCU6.elf.dir/Peripheral/src/ch32v30x_rng.c.obj
LOAD CMakeFiles/CH32V307WCU6.elf.dir/Peripheral/src/ch32v30x_rtc.c.obj
LOAD CMakeFiles/CH32V307WCU6.elf.dir/Peripheral/src/ch32v30x_sdio.c.obj
LOAD CMakeFiles/CH32V307WCU6.elf.dir/Peripheral/src/ch32v30x_spi.c.obj
LOAD CMakeFiles/CH32V307WCU6.elf.dir/Peripheral/src/ch32v30x_tim.c.obj
LOAD CMakeFiles/CH32V307WCU6.elf.dir/Peripheral/src/ch32v30x_usart.c.obj
LOAD CMakeFiles/CH32V307WCU6.elf.dir/Peripheral/src/ch32v30x_usbfs_device.c.obj
LOAD CMakeFiles/CH32V307WCU6.elf.dir/Peripheral/src/ch32v30x_wwdg.c.obj
LOAD CMakeFiles/CH32V307WCU6.elf.dir/Peripheral/src/usb_desc.c.obj
LOAD CMakeFiles/CH32V307WCU6.elf.dir/Startup/startup_ch32v30x_D8C.S.obj
LOAD CMakeFiles/CH32V307WCU6.elf.dir/User/MotorPack/Src/HardWare.c.obj
LOAD CMakeFiles/CH32V307WCU6.elf.dir/User/MotorPack/Src/Interrupt.c.obj
LOAD CMakeFiles/CH32V307WCU6.elf.dir/User/MotorPack/Src/RealTime_Run.cpp.obj
LOAD CMakeFiles/CH32V307WCU6.elf.dir/User/MotorPack/Src/SMO.c.obj
LOAD CMakeFiles/CH32V307WCU6.elf.dir/User/MotorPack/Src/app_main.cpp.obj
LOAD CMakeFiles/CH32V307WCU6.elf.dir/User/MotorPack/Src/motor.cpp.obj
LOAD CMakeFiles/CH32V307WCU6.elf.dir/User/MotorPack/Src/system_ch32v30x.c.obj
LOAD CMakeFiles/CH32V307WCU6.elf.dir/User/main.c.obj
LOAD D:/SoftWare/WW/MounRiver_Studio/MounRiver_Studio/MounRiver/MounRiver_Studio/toolchain/RISC-V Embedded GCC/riscv-none-embed/lib/rv32imafcxw/ilp32f/libm.a
LOAD d:/software/ww/mounriver_studio/mounriver_studio/mounriver/mounriver_studio/toolchain/risc-v embedded gcc/bin/../lib/gcc/riscv-none-embed/8.2.0/../../../../riscv-none-embed/lib/rv32imafcxw/ilp32f\libstdc++_nano.a
LOAD d:/software/ww/mounriver_studio/mounriver_studio/mounriver/mounriver_studio/toolchain/risc-v embedded gcc/bin/../lib/gcc/riscv-none-embed/8.2.0/../../../../riscv-none-embed/lib/rv32imafcxw/ilp32f\libm.a
LOAD d:/software/ww/mounriver_studio/mounriver_studio/mounriver/mounriver_studio/toolchain/risc-v embedded gcc/bin/../lib/gcc/riscv-none-embed/8.2.0/rv32imafcxw/ilp32f\libgcc.a
LOAD d:/software/ww/mounriver_studio/mounriver_studio/mounriver/mounriver_studio/toolchain/risc-v embedded gcc/bin/../lib/gcc/riscv-none-embed/8.2.0/../../../../riscv-none-embed/lib/rv32imafcxw/ilp32f\libg_nano.a
LOAD d:/software/ww/mounriver_studio/mounriver_studio/mounriver/mounriver_studio/toolchain/risc-v embedded gcc/bin/../lib/gcc/riscv-none-embed/8.2.0/../../../../riscv-none-embed/lib/rv32imafcxw/ilp32f\libc_nano.a
LOAD d:/software/ww/mounriver_studio/mounriver_studio/mounriver/mounriver_studio/toolchain/risc-v embedded gcc/bin/../lib/gcc/riscv-none-embed/8.2.0/rv32imafcxw/ilp32f\libgcc.a
START GROUP
LOAD d:/software/ww/mounriver_studio/mounriver_studio/mounriver/mounriver_studio/toolchain/risc-v embedded gcc/bin/../lib/gcc/riscv-none-embed/8.2.0/rv32imafcxw/ilp32f\libgcc.a
LOAD d:/software/ww/mounriver_studio/mounriver_studio/mounriver/mounriver_studio/toolchain/risc-v embedded gcc/bin/../lib/gcc/riscv-none-embed/8.2.0/../../../../riscv-none-embed/lib/rv32imafcxw/ilp32f\libc_nano.a
LOAD d:/software/ww/mounriver_studio/mounriver_studio/mounriver/mounriver_studio/toolchain/risc-v embedded gcc/bin/../lib/gcc/riscv-none-embed/8.2.0/../../../../riscv-none-embed/lib/rv32imafcxw/ilp32f\libnosys.a
END GROUP
START GROUP
LOAD d:/software/ww/mounriver_studio/mounriver_studio/mounriver/mounriver_studio/toolchain/risc-v embedded gcc/bin/../lib/gcc/riscv-none-embed/8.2.0/rv32imafcxw/ilp32f\libgcc.a
LOAD d:/software/ww/mounriver_studio/mounriver_studio/mounriver/mounriver_studio/toolchain/risc-v embedded gcc/bin/../lib/gcc/riscv-none-embed/8.2.0/../../../../riscv-none-embed/lib/rv32imafcxw/ilp32f\libc_nano.a
LOAD d:/software/ww/mounriver_studio/mounriver_studio/mounriver/mounriver_studio/toolchain/risc-v embedded gcc/bin/../lib/gcc/riscv-none-embed/8.2.0/../../../../riscv-none-embed/lib/rv32imafcxw/ilp32f\libnosys.a
END GROUP
                0x0000000000000800                __stack_size = 0x800
                [!provide]                        PROVIDE (_stack_size = __stack_size)

.init           0x0000000000000000       0x38
                0x0000000000000000                _sinit = .
                0x0000000000000000                . = ALIGN (0x4)
 *(SORT_NONE(.init))
 .init          0x0000000000000000       0x38 CMakeFiles/CH32V307WCU6.elf.dir/Startup/startup_ch32v30x_D8C.S.obj
                0x0000000000000000                _start
                0x0000000000000038                . = ALIGN (0x4)
                0x0000000000000038                _einit = .

.vector         0x0000000000000038      0x1c8
 *(.vector)
 .vector        0x0000000000000038      0x1a0 CMakeFiles/CH32V307WCU6.elf.dir/Startup/startup_ch32v30x_D8C.S.obj
                0x0000000000000200                . = ALIGN (0x40)
 *fill*         0x00000000000001d8       0x28 

.text           0x0000000000000200     0x9178
                0x0000000000000200                . = ALIGN (0x4)
 *(.text)
 .text          0x0000000000000200       0x60 d:/software/ww/mounriver_studio/mounriver_studio/mounriver/mounriver_studio/toolchain/risc-v embedded gcc/bin/../lib/gcc/riscv-none-embed/8.2.0/rv32imafcxw/ilp32f\libgcc.a(save-restore.o)
                0x0000000000000200                __riscv_save_12
                0x0000000000000208                __riscv_save_9
                0x0000000000000208                __riscv_save_11
                0x0000000000000208                __riscv_save_10
                0x0000000000000208                __riscv_save_8
                0x0000000000000216                __riscv_save_4
                0x0000000000000216                __riscv_save_6
                0x0000000000000216                __riscv_save_5
                0x0000000000000216                __riscv_save_7
                0x0000000000000230                __riscv_save_3
                0x0000000000000230                __riscv_save_2
                0x0000000000000230                __riscv_save_1
                0x0000000000000230                __riscv_save_0
                0x000000000000023c                __riscv_restore_12
                0x0000000000000240                __riscv_restore_11
                0x0000000000000240                __riscv_restore_9
                0x0000000000000240                __riscv_restore_10
                0x0000000000000240                __riscv_restore_8
                0x000000000000024a                __riscv_restore_5
                0x000000000000024a                __riscv_restore_7
                0x000000000000024a                __riscv_restore_6
                0x000000000000024a                __riscv_restore_4
                0x0000000000000254                __riscv_restore_3
                0x0000000000000254                __riscv_restore_0
                0x0000000000000254                __riscv_restore_2
                0x0000000000000254                __riscv_restore_1
 *(.text.*)
 .text.Delay_Init
                0x0000000000000260       0x2c CMakeFiles/CH32V307WCU6.elf.dir/Debug/debug.c.obj
                0x0000000000000260                Delay_Init
 .text.Delay_Us
                0x000000000000028c       0x3e CMakeFiles/CH32V307WCU6.elf.dir/Debug/debug.c.obj
                0x000000000000028c                Delay_Us
 .text.Delay_Ms
                0x00000000000002ca       0x3e CMakeFiles/CH32V307WCU6.elf.dir/Debug/debug.c.obj
                0x00000000000002ca                Delay_Ms
 .text.ADC_DeInit
                0x0000000000000308       0x4a CMakeFiles/CH32V307WCU6.elf.dir/Peripheral/src/ch32v30x_adc.c.obj
                0x0000000000000308                ADC_DeInit
 .text.ADC_Init
                0x0000000000000352       0x56 CMakeFiles/CH32V307WCU6.elf.dir/Peripheral/src/ch32v30x_adc.c.obj
                0x0000000000000352                ADC_Init
 .text.ADC_Cmd  0x00000000000003a8       0x14 CMakeFiles/CH32V307WCU6.elf.dir/Peripheral/src/ch32v30x_adc.c.obj
                0x00000000000003a8                ADC_Cmd
 .text.ADC_DMACmd
                0x00000000000003bc       0x16 CMakeFiles/CH32V307WCU6.elf.dir/Peripheral/src/ch32v30x_adc.c.obj
                0x00000000000003bc                ADC_DMACmd
 .text.ADC_ITConfig
                0x00000000000003d2       0x1a CMakeFiles/CH32V307WCU6.elf.dir/Peripheral/src/ch32v30x_adc.c.obj
                0x00000000000003d2                ADC_ITConfig
 .text.ADC_ExternalTrigInjectedConvCmd
                0x00000000000003ec       0x18 CMakeFiles/CH32V307WCU6.elf.dir/Peripheral/src/ch32v30x_adc.c.obj
                0x00000000000003ec                ADC_ExternalTrigInjectedConvCmd
 .text.ADC_InjectedChannelConfig
                0x0000000000000404       0x7e CMakeFiles/CH32V307WCU6.elf.dir/Peripheral/src/ch32v30x_adc.c.obj
                0x0000000000000404                ADC_InjectedChannelConfig
 .text.ADC_InjectedSequencerLengthConfig
                0x0000000000000482       0x14 CMakeFiles/CH32V307WCU6.elf.dir/Peripheral/src/ch32v30x_adc.c.obj
                0x0000000000000482                ADC_InjectedSequencerLengthConfig
 .text.ADC_TempSensorVrefintCmd
                0x0000000000000496       0x2c CMakeFiles/CH32V307WCU6.elf.dir/Peripheral/src/ch32v30x_adc.c.obj
                0x0000000000000496                ADC_TempSensorVrefintCmd
 .text.ADC_GetFlagStatus
                0x00000000000004c2        0xe CMakeFiles/CH32V307WCU6.elf.dir/Peripheral/src/ch32v30x_adc.c.obj
                0x00000000000004c2                ADC_GetFlagStatus
 .text.ADC_ClearFlag
                0x00000000000004d0        0x8 CMakeFiles/CH32V307WCU6.elf.dir/Peripheral/src/ch32v30x_adc.c.obj
                0x00000000000004d0                ADC_ClearFlag
 .text.ADC_BufferCmd
                0x00000000000004d8       0x1c CMakeFiles/CH32V307WCU6.elf.dir/Peripheral/src/ch32v30x_adc.c.obj
                0x00000000000004d8                ADC_BufferCmd
 .text.CheckITStatus
                0x00000000000004f4        0xc CMakeFiles/CH32V307WCU6.elf.dir/Peripheral/src/ch32v30x_can.c.obj
 .text.CAN_Init
                0x0000000000000500      0x108 CMakeFiles/CH32V307WCU6.elf.dir/Peripheral/src/ch32v30x_can.c.obj
                0x0000000000000500                CAN_Init
 .text.CAN_FilterInit
                0x0000000000000608      0x12c CMakeFiles/CH32V307WCU6.elf.dir/Peripheral/src/ch32v30x_can.c.obj
                0x0000000000000608                CAN_FilterInit
 .text.CAN_Transmit
                0x0000000000000734       0xd8 CMakeFiles/CH32V307WCU6.elf.dir/Peripheral/src/ch32v30x_can.c.obj
                0x0000000000000734                CAN_Transmit
 .text.CAN_Receive
                0x000000000000080c       0x8a CMakeFiles/CH32V307WCU6.elf.dir/Peripheral/src/ch32v30x_can.c.obj
                0x000000000000080c                CAN_Receive
 .text.CAN_GetLastErrorCode
                0x0000000000000896        0x8 CMakeFiles/CH32V307WCU6.elf.dir/Peripheral/src/ch32v30x_can.c.obj
                0x0000000000000896                CAN_GetLastErrorCode
 .text.CAN_ITConfig
                0x000000000000089e       0x16 CMakeFiles/CH32V307WCU6.elf.dir/Peripheral/src/ch32v30x_can.c.obj
                0x000000000000089e                CAN_ITConfig
 .text.CAN_GetITStatus
                0x00000000000008b4      0x10a CMakeFiles/CH32V307WCU6.elf.dir/Peripheral/src/ch32v30x_can.c.obj
                0x00000000000008b4                CAN_GetITStatus
 .text.CAN_ClearITPendingBit
                0x00000000000009be       0xc2 CMakeFiles/CH32V307WCU6.elf.dir/Peripheral/src/ch32v30x_can.c.obj
                0x00000000000009be                CAN_ClearITPendingBit
 .text.GPIO_Init
                0x0000000000000a80       0xd0 CMakeFiles/CH32V307WCU6.elf.dir/Peripheral/src/ch32v30x_gpio.c.obj
                0x0000000000000a80                GPIO_Init
 .text.GPIO_StructInit
                0x0000000000000b50        0xe CMakeFiles/CH32V307WCU6.elf.dir/Peripheral/src/ch32v30x_gpio.c.obj
                0x0000000000000b50                GPIO_StructInit
 .text.GPIO_SetBits
                0x0000000000000b5e        0x4 CMakeFiles/CH32V307WCU6.elf.dir/Peripheral/src/ch32v30x_gpio.c.obj
                0x0000000000000b5e                GPIO_SetBits
 .text.GPIO_ResetBits
                0x0000000000000b62        0x4 CMakeFiles/CH32V307WCU6.elf.dir/Peripheral/src/ch32v30x_gpio.c.obj
                0x0000000000000b62                GPIO_ResetBits
 .text.GPIO_PinRemapConfig
                0x0000000000000b66       0xe8 CMakeFiles/CH32V307WCU6.elf.dir/Peripheral/src/ch32v30x_gpio.c.obj
                0x0000000000000b66                GPIO_PinRemapConfig
 .text.NVIC_PriorityGroupConfig
                0x0000000000000c4e        0x6 CMakeFiles/CH32V307WCU6.elf.dir/Peripheral/src/ch32v30x_misc.c.obj
                0x0000000000000c4e                NVIC_PriorityGroupConfig
 .text.NVIC_Init
                0x0000000000000c54      0x17e CMakeFiles/CH32V307WCU6.elf.dir/Peripheral/src/ch32v30x_misc.c.obj
                0x0000000000000c54                NVIC_Init
 .text.RCC_ADCCLKConfig
                0x0000000000000dd2       0x12 CMakeFiles/CH32V307WCU6.elf.dir/Peripheral/src/ch32v30x_rcc.c.obj
                0x0000000000000dd2                RCC_ADCCLKConfig
 .text.RCC_AHBPeriphClockCmd
                0x0000000000000de4       0x1e CMakeFiles/CH32V307WCU6.elf.dir/Peripheral/src/ch32v30x_rcc.c.obj
                0x0000000000000de4                RCC_AHBPeriphClockCmd
 .text.RCC_APB2PeriphClockCmd
                0x0000000000000e02       0x1e CMakeFiles/CH32V307WCU6.elf.dir/Peripheral/src/ch32v30x_rcc.c.obj
                0x0000000000000e02                RCC_APB2PeriphClockCmd
 .text.RCC_APB1PeriphClockCmd
                0x0000000000000e20       0x1e CMakeFiles/CH32V307WCU6.elf.dir/Peripheral/src/ch32v30x_rcc.c.obj
                0x0000000000000e20                RCC_APB1PeriphClockCmd
 .text.RCC_APB2PeriphResetCmd
                0x0000000000000e3e       0x1e CMakeFiles/CH32V307WCU6.elf.dir/Peripheral/src/ch32v30x_rcc.c.obj
                0x0000000000000e3e                RCC_APB2PeriphResetCmd
 .text.RCC_USBHSConfig
                0x0000000000000e5c       0x1a CMakeFiles/CH32V307WCU6.elf.dir/Peripheral/src/ch32v30x_rcc.c.obj
                0x0000000000000e5c                RCC_USBHSConfig
 .text.RCC_USBHSPLLCLKConfig
                0x0000000000000e76       0x1a CMakeFiles/CH32V307WCU6.elf.dir/Peripheral/src/ch32v30x_rcc.c.obj
                0x0000000000000e76                RCC_USBHSPLLCLKConfig
 .text.RCC_USBHSPLLCKREFCLKConfig
                0x0000000000000e90       0x1a CMakeFiles/CH32V307WCU6.elf.dir/Peripheral/src/ch32v30x_rcc.c.obj
                0x0000000000000e90                RCC_USBHSPLLCKREFCLKConfig
 .text.RCC_USBHSPHYPLLALIVEcmd
                0x0000000000000eaa       0x24 CMakeFiles/CH32V307WCU6.elf.dir/Peripheral/src/ch32v30x_rcc.c.obj
                0x0000000000000eaa                RCC_USBHSPHYPLLALIVEcmd
 .text.RCC_USBCLK48MConfig
                0x0000000000000ece       0x1c CMakeFiles/CH32V307WCU6.elf.dir/Peripheral/src/ch32v30x_rcc.c.obj
                0x0000000000000ece                RCC_USBCLK48MConfig
 .text.TI1_Config
                0x0000000000000eea       0xaa CMakeFiles/CH32V307WCU6.elf.dir/Peripheral/src/ch32v30x_tim.c.obj
 .text.TI2_Config
                0x0000000000000f94       0xb0 CMakeFiles/CH32V307WCU6.elf.dir/Peripheral/src/ch32v30x_tim.c.obj
 .text.TI3_Config
                0x0000000000001044       0xb2 CMakeFiles/CH32V307WCU6.elf.dir/Peripheral/src/ch32v30x_tim.c.obj
 .text.TI4_Config
                0x00000000000010f6       0xb4 CMakeFiles/CH32V307WCU6.elf.dir/Peripheral/src/ch32v30x_tim.c.obj
 .text.TIM_TimeBaseInit
                0x00000000000011aa       0xbe CMakeFiles/CH32V307WCU6.elf.dir/Peripheral/src/ch32v30x_tim.c.obj
                0x00000000000011aa                TIM_TimeBaseInit
 .text.TIM_OC1Init
                0x0000000000001268       0x82 CMakeFiles/CH32V307WCU6.elf.dir/Peripheral/src/ch32v30x_tim.c.obj
                0x0000000000001268                TIM_OC1Init
 .text.TIM_OC2Init
                0x00000000000012ea       0xbc CMakeFiles/CH32V307WCU6.elf.dir/Peripheral/src/ch32v30x_tim.c.obj
                0x00000000000012ea                TIM_OC2Init
 .text.TIM_OC3Init
                0x00000000000013a6       0xba CMakeFiles/CH32V307WCU6.elf.dir/Peripheral/src/ch32v30x_tim.c.obj
                0x00000000000013a6                TIM_OC3Init
 .text.TIM_OC4Init
                0x0000000000001460       0x90 CMakeFiles/CH32V307WCU6.elf.dir/Peripheral/src/ch32v30x_tim.c.obj
                0x0000000000001460                TIM_OC4Init
 .text.TIM_BDTRConfig
                0x00000000000014f0       0x2c CMakeFiles/CH32V307WCU6.elf.dir/Peripheral/src/ch32v30x_tim.c.obj
                0x00000000000014f0                TIM_BDTRConfig
 .text.TIM_TimeBaseStructInit
                0x000000000000151c       0x16 CMakeFiles/CH32V307WCU6.elf.dir/Peripheral/src/ch32v30x_tim.c.obj
                0x000000000000151c                TIM_TimeBaseStructInit
 .text.TIM_OCStructInit
                0x0000000000001532       0x22 CMakeFiles/CH32V307WCU6.elf.dir/Peripheral/src/ch32v30x_tim.c.obj
                0x0000000000001532                TIM_OCStructInit
 .text.TIM_Cmd  0x0000000000001554       0x1c CMakeFiles/CH32V307WCU6.elf.dir/Peripheral/src/ch32v30x_tim.c.obj
                0x0000000000001554                TIM_Cmd
 .text.TIM_CtrlPWMOutputs
                0x0000000000001570       0x24 CMakeFiles/CH32V307WCU6.elf.dir/Peripheral/src/ch32v30x_tim.c.obj
                0x0000000000001570                TIM_CtrlPWMOutputs
 .text.TIM_ITConfig
                0x0000000000001594       0x16 CMakeFiles/CH32V307WCU6.elf.dir/Peripheral/src/ch32v30x_tim.c.obj
                0x0000000000001594                TIM_ITConfig
 .text.TIM_EncoderInterfaceConfig
                0x00000000000015aa       0x3c CMakeFiles/CH32V307WCU6.elf.dir/Peripheral/src/ch32v30x_tim.c.obj
                0x00000000000015aa                TIM_EncoderInterfaceConfig
 .text.TIM_OC1PreloadConfig
                0x00000000000015e6        0xe CMakeFiles/CH32V307WCU6.elf.dir/Peripheral/src/ch32v30x_tim.c.obj
                0x00000000000015e6                TIM_OC1PreloadConfig
 .text.TIM_OC2PreloadConfig
                0x00000000000015f4       0x16 CMakeFiles/CH32V307WCU6.elf.dir/Peripheral/src/ch32v30x_tim.c.obj
                0x00000000000015f4                TIM_OC2PreloadConfig
 .text.TIM_OC3PreloadConfig
                0x000000000000160a        0xe CMakeFiles/CH32V307WCU6.elf.dir/Peripheral/src/ch32v30x_tim.c.obj
                0x000000000000160a                TIM_OC3PreloadConfig
 .text.TIM_OC4PreloadConfig
                0x0000000000001618       0x16 CMakeFiles/CH32V307WCU6.elf.dir/Peripheral/src/ch32v30x_tim.c.obj
                0x0000000000001618                TIM_OC4PreloadConfig
 .text.TIM_SelectOutputTrigger
                0x000000000000162e       0x18 CMakeFiles/CH32V307WCU6.elf.dir/Peripheral/src/ch32v30x_tim.c.obj
                0x000000000000162e                TIM_SelectOutputTrigger
 .text.TIM_SetCounter
                0x0000000000001646        0x4 CMakeFiles/CH32V307WCU6.elf.dir/Peripheral/src/ch32v30x_tim.c.obj
                0x0000000000001646                TIM_SetCounter
 .text.TIM_SetIC1Prescaler
                0x000000000000164a       0x16 CMakeFiles/CH32V307WCU6.elf.dir/Peripheral/src/ch32v30x_tim.c.obj
                0x000000000000164a                TIM_SetIC1Prescaler
 .text.TIM_SetIC2Prescaler
                0x0000000000001660       0x1a CMakeFiles/CH32V307WCU6.elf.dir/Peripheral/src/ch32v30x_tim.c.obj
                0x0000000000001660                TIM_SetIC2Prescaler
 .text.TIM_SetIC3Prescaler
                0x000000000000167a       0x16 CMakeFiles/CH32V307WCU6.elf.dir/Peripheral/src/ch32v30x_tim.c.obj
                0x000000000000167a                TIM_SetIC3Prescaler
 .text.TIM_SetIC4Prescaler
                0x0000000000001690       0x1a CMakeFiles/CH32V307WCU6.elf.dir/Peripheral/src/ch32v30x_tim.c.obj
                0x0000000000001690                TIM_SetIC4Prescaler
 .text.TIM_ICInit
                0x00000000000016aa       0x5c CMakeFiles/CH32V307WCU6.elf.dir/Peripheral/src/ch32v30x_tim.c.obj
                0x00000000000016aa                TIM_ICInit
 .text.TIM_GetFlagStatus
                0x0000000000001706        0xe CMakeFiles/CH32V307WCU6.elf.dir/Peripheral/src/ch32v30x_tim.c.obj
                0x0000000000001706                TIM_GetFlagStatus
 .text.TIM_ClearFlag
                0x0000000000001714        0xc CMakeFiles/CH32V307WCU6.elf.dir/Peripheral/src/ch32v30x_tim.c.obj
                0x0000000000001714                TIM_ClearFlag
 .text.USART_SendData
                0x0000000000001720        0x8 CMakeFiles/CH32V307WCU6.elf.dir/Peripheral/src/ch32v30x_usart.c.obj
                0x0000000000001720                USART_SendData
 .text.USART_ReceiveData
                0x0000000000001728        0x8 CMakeFiles/CH32V307WCU6.elf.dir/Peripheral/src/ch32v30x_usart.c.obj
                0x0000000000001728                USART_ReceiveData
 .text.USART_GetFlagStatus
                0x0000000000001730        0xe CMakeFiles/CH32V307WCU6.elf.dir/Peripheral/src/ch32v30x_usart.c.obj
                0x0000000000001730                USART_GetFlagStatus
 .text.USART_GetITStatus
                0x000000000000173e       0x42 CMakeFiles/CH32V307WCU6.elf.dir/Peripheral/src/ch32v30x_usart.c.obj
                0x000000000000173e                USART_GetITStatus
 .text.USART_ClearITPendingBit
                0x0000000000001780       0x18 CMakeFiles/CH32V307WCU6.elf.dir/Peripheral/src/ch32v30x_usart.c.obj
                0x0000000000001780                USART_ClearITPendingBit
 .text.USBFS_RCC_Init
                0x0000000000001798       0x3a CMakeFiles/CH32V307WCU6.elf.dir/Peripheral/src/ch32v30x_usbfs_device.c.obj
                0x0000000000001798                USBFS_RCC_Init
 .text.USBFS_Device_Endp_Init
                0x00000000000017d2       0x62 CMakeFiles/CH32V307WCU6.elf.dir/Peripheral/src/ch32v30x_usbfs_device.c.obj
                0x00000000000017d2                USBFS_Device_Endp_Init
 .text.USBFS_Device_Init
                0x0000000000001834       0x5a CMakeFiles/CH32V307WCU6.elf.dir/Peripheral/src/ch32v30x_usbfs_device.c.obj
                0x0000000000001834                USBFS_Device_Init
 .text.USBFS_Endp_DataUp
                0x000000000000188e      0x124 CMakeFiles/CH32V307WCU6.elf.dir/Peripheral/src/ch32v30x_usbfs_device.c.obj
                0x000000000000188e                USBFS_Endp_DataUp
 .text.vector_handler
                0x00000000000019b2       0xbe CMakeFiles/CH32V307WCU6.elf.dir/Startup/startup_ch32v30x_D8C.S.obj
                0x00000000000019b6                Ecall_M_Mode_Handler
                0x00000000000019b8                Ecall_U_Mode_Handler
                0x00000000000019ba                Break_Point_Handler
                0x00000000000019bc                SysTick_Handler
                0x00000000000019be                SW_Handler
                0x00000000000019c0                WWDG_IRQHandler
                0x00000000000019c2                PVD_IRQHandler
                0x00000000000019c4                TAMPER_IRQHandler
                0x00000000000019c6                RTC_IRQHandler
                0x00000000000019c8                FLASH_IRQHandler
                0x00000000000019ca                RCC_IRQHandler
                0x00000000000019cc                EXTI0_IRQHandler
                0x00000000000019ce                EXTI1_IRQHandler
                0x00000000000019d0                EXTI2_IRQHandler
                0x00000000000019d2                EXTI3_IRQHandler
                0x00000000000019d4                EXTI4_IRQHandler
                0x00000000000019d6                DMA1_Channel1_IRQHandler
                0x00000000000019d8                DMA1_Channel2_IRQHandler
                0x00000000000019da                DMA1_Channel3_IRQHandler
                0x00000000000019dc                DMA1_Channel4_IRQHandler
                0x00000000000019de                DMA1_Channel5_IRQHandler
                0x00000000000019e0                DMA1_Channel6_IRQHandler
                0x00000000000019e2                DMA1_Channel7_IRQHandler
                0x00000000000019e6                USB_HP_CAN1_TX_IRQHandler
                0x00000000000019ea                CAN1_RX1_IRQHandler
                0x00000000000019ec                CAN1_SCE_IRQHandler
                0x00000000000019ee                EXTI9_5_IRQHandler
                0x00000000000019f0                TIM1_BRK_IRQHandler
                0x00000000000019f2                TIM1_UP_IRQHandler
                0x00000000000019f4                TIM1_TRG_COM_IRQHandler
                0x00000000000019f6                TIM1_CC_IRQHandler
                0x00000000000019f8                TIM2_IRQHandler
                0x00000000000019fa                TIM3_IRQHandler
                0x00000000000019fe                I2C1_EV_IRQHandler
                0x0000000000001a00                I2C1_ER_IRQHandler
                0x0000000000001a02                I2C2_EV_IRQHandler
                0x0000000000001a04                I2C2_ER_IRQHandler
                0x0000000000001a06                SPI1_IRQHandler
                0x0000000000001a08                SPI2_IRQHandler
                0x0000000000001a0c                USART2_IRQHandler
                0x0000000000001a0e                USART3_IRQHandler
                0x0000000000001a10                EXTI15_10_IRQHandler
                0x0000000000001a12                RTCAlarm_IRQHandler
                0x0000000000001a14                USBWakeUp_IRQHandler
                0x0000000000001a16                TIM8_BRK_IRQHandler
                0x0000000000001a18                TIM8_UP_IRQHandler
                0x0000000000001a1a                TIM8_TRG_COM_IRQHandler
                0x0000000000001a1c                TIM8_CC_IRQHandler
                0x0000000000001a1e                RNG_IRQHandler
                0x0000000000001a20                FSMC_IRQHandler
                0x0000000000001a22                SDIO_IRQHandler
                0x0000000000001a24                TIM5_IRQHandler
                0x0000000000001a26                SPI3_IRQHandler
                0x0000000000001a28                UART4_IRQHandler
                0x0000000000001a2a                UART5_IRQHandler
                0x0000000000001a2c                TIM6_IRQHandler
                0x0000000000001a2e                TIM7_IRQHandler
                0x0000000000001a30                DMA2_Channel1_IRQHandler
                0x0000000000001a32                DMA2_Channel2_IRQHandler
                0x0000000000001a34                DMA2_Channel3_IRQHandler
                0x0000000000001a36                DMA2_Channel4_IRQHandler
                0x0000000000001a38                DMA2_Channel5_IRQHandler
                0x0000000000001a3a                ETH_IRQHandler
                0x0000000000001a3c                ETH_WKUP_IRQHandler
                0x0000000000001a3e                CAN2_TX_IRQHandler
                0x0000000000001a40                CAN2_RX0_IRQHandler
                0x0000000000001a42                CAN2_RX1_IRQHandler
                0x0000000000001a44                CAN2_SCE_IRQHandler
                0x0000000000001a48                USBHSWakeup_IRQHandler
                0x0000000000001a4a                USBHS_IRQHandler
                0x0000000000001a4c                DVP_IRQHandler
                0x0000000000001a4e                UART6_IRQHandler
                0x0000000000001a50                UART7_IRQHandler
                0x0000000000001a52                UART8_IRQHandler
                0x0000000000001a54                TIM9_BRK_IRQHandler
                0x0000000000001a56                TIM9_UP_IRQHandler
                0x0000000000001a58                TIM9_TRG_COM_IRQHandler
                0x0000000000001a5a                TIM9_CC_IRQHandler
                0x0000000000001a5c                TIM10_BRK_IRQHandler
                0x0000000000001a5e                TIM10_UP_IRQHandler
                0x0000000000001a60                TIM10_TRG_COM_IRQHandler
                0x0000000000001a62                TIM10_CC_IRQHandler
                0x0000000000001a64                DMA2_Channel6_IRQHandler
                0x0000000000001a66                DMA2_Channel7_IRQHandler
                0x0000000000001a68                DMA2_Channel8_IRQHandler
                0x0000000000001a6a                DMA2_Channel9_IRQHandler
                0x0000000000001a6c                DMA2_Channel10_IRQHandler
                0x0000000000001a6e                DMA2_Channel11_IRQHandler
 .text.handle_reset
                0x0000000000001a70       0x8a CMakeFiles/CH32V307WCU6.elf.dir/Startup/startup_ch32v30x_D8C.S.obj
                0x0000000000001a70                handle_reset
 .text.MY_GPIO_Init
                0x0000000000001afa       0x60 CMakeFiles/CH32V307WCU6.elf.dir/User/MotorPack/Src/HardWare.c.obj
                0x0000000000001afa                MY_GPIO_Init
 .text.MY_TIM1_Init
                0x0000000000001b5a      0x16e CMakeFiles/CH32V307WCU6.elf.dir/User/MotorPack/Src/HardWare.c.obj
                0x0000000000001b5a                MY_TIM1_Init
 .text.MY_TIM3_Init
                0x0000000000001cc8       0xc0 CMakeFiles/CH32V307WCU6.elf.dir/User/MotorPack/Src/HardWare.c.obj
                0x0000000000001cc8                MY_TIM3_Init
 .text.MY_ADC_Init
                0x0000000000001d88       0xd8 CMakeFiles/CH32V307WCU6.elf.dir/User/MotorPack/Src/HardWare.c.obj
                0x0000000000001d88                MY_ADC_Init
 .text.MY_CAN_Init
                0x0000000000001e60       0xc8 CMakeFiles/CH32V307WCU6.elf.dir/User/MotorPack/Src/HardWare.c.obj
                0x0000000000001e60                MY_CAN_Init
 .text.CAN_Send_Msg
                0x0000000000001f28       0x46 CMakeFiles/CH32V307WCU6.elf.dir/User/MotorPack/Src/HardWare.c.obj
                0x0000000000001f28                CAN_Send_Msg
 .text.USARTx_SendByte
                0x0000000000001f6e       0x1a CMakeFiles/CH32V307WCU6.elf.dir/User/MotorPack/Src/HardWare.c.obj
                0x0000000000001f6e                USARTx_SendByte
 .text.NMI_Handler
                0x0000000000001f88        0x4 CMakeFiles/CH32V307WCU6.elf.dir/User/MotorPack/Src/Interrupt.c.obj
                0x0000000000001f88                NMI_Handler
 .text.HardFault_Handler
                0x0000000000001f8c        0x2 CMakeFiles/CH32V307WCU6.elf.dir/User/MotorPack/Src/Interrupt.c.obj
                0x0000000000001f8c                HardFault_Handler
 .text.Interrupt_Configuration
                0x0000000000001f8e       0x66 CMakeFiles/CH32V307WCU6.elf.dir/User/MotorPack/Src/Interrupt.c.obj
                0x0000000000001f8e                Interrupt_Configuration
 .text.OTG_FS_IRQHandler
                0x0000000000001ff4      0x746 CMakeFiles/CH32V307WCU6.elf.dir/User/MotorPack/Src/Interrupt.c.obj
                0x0000000000001ff4                OTG_FS_IRQHandler
 .text.OpenMV_SendoneByte
                0x000000000000273a       0x16 CMakeFiles/CH32V307WCU6.elf.dir/User/MotorPack/Src/RealTime_Run.cpp.obj
                0x000000000000273a                OpenMV_SendoneByte
 .text.xiaociandchongci
                0x0000000000002750       0x22 CMakeFiles/CH32V307WCU6.elf.dir/User/MotorPack/Src/RealTime_Run.cpp.obj
                0x0000000000002750                xiaociandchongci
 .text.USART1_IRQHandler
                0x0000000000002772      0x19a CMakeFiles/CH32V307WCU6.elf.dir/User/MotorPack/Src/RealTime_Run.cpp.obj
                0x0000000000002772                USART1_IRQHandler
 .text.ADC1_2_IRQHandler
                0x000000000000290c      0x612 CMakeFiles/CH32V307WCU6.elf.dir/User/MotorPack/Src/RealTime_Run.cpp.obj
                0x000000000000290c                ADC1_2_IRQHandler
 .text.TIM4_IRQHandler
                0x0000000000002f1e       0x92 CMakeFiles/CH32V307WCU6.elf.dir/User/MotorPack/Src/RealTime_Run.cpp.obj
                0x0000000000002f1e                TIM4_IRQHandler
 .text.USB_LP_CAN1_RX0_IRQHandler
                0x0000000000002fb0       0xaa CMakeFiles/CH32V307WCU6.elf.dir/User/MotorPack/Src/RealTime_Run.cpp.obj
                0x0000000000002fb0                USB_LP_CAN1_RX0_IRQHandler
 .text._Z41__static_initialization_and_destruction_0ii
                0x000000000000305a      0x34e CMakeFiles/CH32V307WCU6.elf.dir/User/MotorPack/Src/app_main.cpp.obj
 .text.app_main
                0x00000000000033a8      0x244 CMakeFiles/CH32V307WCU6.elf.dir/User/MotorPack/Src/app_main.cpp.obj
                0x00000000000033a8                app_main
 .text._GLOBAL__sub_I_motor
                0x00000000000035ec       0x12 CMakeFiles/CH32V307WCU6.elf.dir/User/MotorPack/Src/app_main.cpp.obj
 .text._ZN5Motor4InitEP11TIM_TypeDefS1_
                0x00000000000035fe      0x29a CMakeFiles/CH32V307WCU6.elf.dir/User/MotorPack/Src/motor.cpp.obj
                0x00000000000035fe                Motor::Init(TIM_TypeDef*, TIM_TypeDef*)
 .text._ZN5Motor5startEv
                0x0000000000003898       0x22 CMakeFiles/CH32V307WCU6.elf.dir/User/MotorPack/Src/motor.cpp.obj
                0x0000000000003898                Motor::start()
 .text._ZN5Motor17apply_pwm_timingsEv
                0x00000000000038ba       0xe8 CMakeFiles/CH32V307WCU6.elf.dir/User/MotorPack/Src/motor.cpp.obj
                0x00000000000038ba                Motor::apply_pwm_timings()
 .text._ZN5Motor16measure_currentsEttt
                0x00000000000039a2       0xf0 CMakeFiles/CH32V307WCU6.elf.dir/User/MotorPack/Src/motor.cpp.obj
                0x00000000000039a2                Motor::measure_currents(unsigned short, unsigned short, unsigned short)
 .text._ZN5Motor17measureResistanceEv
                0x0000000000003a92      0x1e8 CMakeFiles/CH32V307WCU6.elf.dir/User/MotorPack/Src/motor.cpp.obj
                0x0000000000003a92                Motor::measureResistance()
 .text._ZN5Motor13getResistanceEv
                0x0000000000003c7a       0x34 CMakeFiles/CH32V307WCU6.elf.dir/User/MotorPack/Src/motor.cpp.obj
                0x0000000000003c7a                Motor::getResistance()
 .text._ZN5Motor17measureInductanceEm
                0x0000000000003cae      0x236 CMakeFiles/CH32V307WCU6.elf.dir/User/MotorPack/Src/motor.cpp.obj
                0x0000000000003cae                Motor::measureInductance(unsigned long)
 .text._ZN5Motor13getInductanceEv
                0x0000000000003ee4       0x40 CMakeFiles/CH32V307WCU6.elf.dir/User/MotorPack/Src/motor.cpp.obj
                0x0000000000003ee4                Motor::getInductance()
 .text._ZN5Motor4shutEv
                0x0000000000003f24       0x16 CMakeFiles/CH32V307WCU6.elf.dir/User/MotorPack/Src/motor.cpp.obj
                0x0000000000003f24                Motor::shut()
 .text._ZN5Motor20measurePhasePhaseVelEv
                0x0000000000003f3a      0x286 CMakeFiles/CH32V307WCU6.elf.dir/User/MotorPack/Src/motor.cpp.obj
                0x0000000000003f3a                Motor::measurePhasePhaseVel()
 .text._ZN5Motor14measureEncoderEm
                0x00000000000041c0      0x400 CMakeFiles/CH32V307WCU6.elf.dir/User/MotorPack/Src/motor.cpp.obj
                0x00000000000041c0                Motor::measureEncoder(unsigned long)
 .text._ZN5Motor21get_alpha_beta_outputEmPNS_7float2DE
                0x00000000000045c0      0x2f0 CMakeFiles/CH32V307WCU6.elf.dir/User/MotorPack/Src/motor.cpp.obj
                0x00000000000045c0                Motor::get_alpha_beta_output(unsigned long, Motor::float2D*)
 .text._ZN5Motor31update_current_controller_gainsEv
                0x00000000000048b0       0x20 CMakeFiles/CH32V307WCU6.elf.dir/User/MotorPack/Src/motor.cpp.obj
                0x00000000000048b0                Motor::update_current_controller_gains()
 .text._ZN5Motor12velovityLoopEm
                0x00000000000048d0      0x13c CMakeFiles/CH32V307WCU6.elf.dir/User/MotorPack/Src/motor.cpp.obj
                0x00000000000048d0                Motor::velovityLoop(unsigned long)
 .text._ZN5Motor12positionLoopEm
                0x0000000000004a0c      0x10c CMakeFiles/CH32V307WCU6.elf.dir/User/MotorPack/Src/motor.cpp.obj
                0x0000000000004a0c                Motor::positionLoop(unsigned long)
 .text._ZN5Motor7go_zeroEv
                0x0000000000004b18      0x102 CMakeFiles/CH32V307WCU6.elf.dir/User/MotorPack/Src/motor.cpp.obj
                0x0000000000004b18                Motor::go_zero()
 .text.SetSysClockTo144_HSE
                0x0000000000004c1a       0xb2 CMakeFiles/CH32V307WCU6.elf.dir/User/MotorPack/Src/system_ch32v30x.c.obj
 .text.SetSysClock
                0x0000000000004ccc        0xa CMakeFiles/CH32V307WCU6.elf.dir/User/MotorPack/Src/system_ch32v30x.c.obj
 .text.SystemInit
                0x0000000000004cd6       0x5a CMakeFiles/CH32V307WCU6.elf.dir/User/MotorPack/Src/system_ch32v30x.c.obj
                0x0000000000004cd6                SystemInit
 .text.SystemCoreClockUpdate
                0x0000000000004d30      0x112 CMakeFiles/CH32V307WCU6.elf.dir/User/MotorPack/Src/system_ch32v30x.c.obj
                0x0000000000004d30                SystemCoreClockUpdate
 .text.main     0x0000000000004e42       0x34 CMakeFiles/CH32V307WCU6.elf.dir/User/main.c.obj
                0x0000000000004e42                main
 .text.cosf     0x0000000000004e76       0x7a D:/SoftWare/WW/MounRiver_Studio/MounRiver_Studio/MounRiver/MounRiver_Studio/toolchain/RISC-V Embedded GCC/riscv-none-embed/lib/rv32imafcxw/ilp32f/libm.a(lib_a-sf_cos.o)
                0x0000000000004e76                cosf
 .text.floorf   0x0000000000004ef0       0xb2 D:/SoftWare/WW/MounRiver_Studio/MounRiver_Studio/MounRiver/MounRiver_Studio/toolchain/RISC-V Embedded GCC/riscv-none-embed/lib/rv32imafcxw/ilp32f/libm.a(lib_a-sf_floor.o)
                0x0000000000004ef0                floorf
 .text.nearbyintf
                0x0000000000004fa2        0x2 D:/SoftWare/WW/MounRiver_Studio/MounRiver_Studio/MounRiver/MounRiver_Studio/toolchain/RISC-V Embedded GCC/riscv-none-embed/lib/rv32imafcxw/ilp32f/libm.a(lib_a-sf_nearbyint.o)
                0x0000000000004fa2                nearbyintf
 .text.rintf    0x0000000000004fa4       0xd2 D:/SoftWare/WW/MounRiver_Studio/MounRiver_Studio/MounRiver/MounRiver_Studio/toolchain/RISC-V Embedded GCC/riscv-none-embed/lib/rv32imafcxw/ilp32f/libm.a(lib_a-sf_rint.o)
                0x0000000000004fa4                rintf
 .text.sinf     0x0000000000005076       0x78 D:/SoftWare/WW/MounRiver_Studio/MounRiver_Studio/MounRiver/MounRiver_Studio/toolchain/RISC-V Embedded GCC/riscv-none-embed/lib/rv32imafcxw/ilp32f/libm.a(lib_a-sf_sin.o)
                0x0000000000005076                sinf
 .text.sqrt     0x00000000000050ee       0xb8 D:/SoftWare/WW/MounRiver_Studio/MounRiver_Studio/MounRiver/MounRiver_Studio/toolchain/RISC-V Embedded GCC/riscv-none-embed/lib/rv32imafcxw/ilp32f/libm.a(lib_a-w_sqrt.o)
                0x00000000000050ee                sqrt
 .text.sqrtf    0x00000000000051a6       0xa6 D:/SoftWare/WW/MounRiver_Studio/MounRiver_Studio/MounRiver/MounRiver_Studio/toolchain/RISC-V Embedded GCC/riscv-none-embed/lib/rv32imafcxw/ilp32f/libm.a(lib_a-wf_sqrt.o)
                0x00000000000051a6                sqrtf
 .text.__ieee754_sqrt
                0x000000000000524c      0x1d6 D:/SoftWare/WW/MounRiver_Studio/MounRiver_Studio/MounRiver/MounRiver_Studio/toolchain/RISC-V Embedded GCC/riscv-none-embed/lib/rv32imafcxw/ilp32f/libm.a(lib_a-e_sqrt.o)
                0x000000000000524c                __ieee754_sqrt
 .text.__ieee754_rem_pio2f
                0x0000000000005422      0x2b4 D:/SoftWare/WW/MounRiver_Studio/MounRiver_Studio/MounRiver/MounRiver_Studio/toolchain/RISC-V Embedded GCC/riscv-none-embed/lib/rv32imafcxw/ilp32f/libm.a(lib_a-ef_rem_pio2.o)
                0x0000000000005422                __ieee754_rem_pio2f
 .text.__ieee754_sqrtf
                0x00000000000056d6       0xcc D:/SoftWare/WW/MounRiver_Studio/MounRiver_Studio/MounRiver/MounRiver_Studio/toolchain/RISC-V Embedded GCC/riscv-none-embed/lib/rv32imafcxw/ilp32f/libm.a(lib_a-ef_sqrt.o)
                0x00000000000056d6                __ieee754_sqrtf
 .text.__kernel_cosf
                0x00000000000057a2      0x140 D:/SoftWare/WW/MounRiver_Studio/MounRiver_Studio/MounRiver/MounRiver_Studio/toolchain/RISC-V Embedded GCC/riscv-none-embed/lib/rv32imafcxw/ilp32f/libm.a(lib_a-kf_cos.o)
                0x00000000000057a2                __kernel_cosf
 .text.__kernel_rem_pio2f
                0x00000000000058e2      0x6f4 D:/SoftWare/WW/MounRiver_Studio/MounRiver_Studio/MounRiver/MounRiver_Studio/toolchain/RISC-V Embedded GCC/riscv-none-embed/lib/rv32imafcxw/ilp32f/libm.a(lib_a-kf_rem_pio2.o)
                0x00000000000058e2                __kernel_rem_pio2f
 .text.__kernel_sinf
                0x0000000000005fd6       0xa2 D:/SoftWare/WW/MounRiver_Studio/MounRiver_Studio/MounRiver/MounRiver_Studio/toolchain/RISC-V Embedded GCC/riscv-none-embed/lib/rv32imafcxw/ilp32f/libm.a(lib_a-kf_sin.o)
                0x0000000000005fd6                __kernel_sinf
 .text.matherr  0x0000000000006078        0x4 D:/SoftWare/WW/MounRiver_Studio/MounRiver_Studio/MounRiver/MounRiver_Studio/toolchain/RISC-V Embedded GCC/riscv-none-embed/lib/rv32imafcxw/ilp32f/libm.a(lib_a-s_matherr.o)
                0x0000000000006078                matherr
 .text.fabsf    0x000000000000607c        0xe D:/SoftWare/WW/MounRiver_Studio/MounRiver_Studio/MounRiver/MounRiver_Studio/toolchain/RISC-V Embedded GCC/riscv-none-embed/lib/rv32imafcxw/ilp32f/libm.a(lib_a-sf_fabs.o)
                0x000000000000607c                fabsf
 .text.scalbnf  0x000000000000608a      0x100 D:/SoftWare/WW/MounRiver_Studio/MounRiver_Studio/MounRiver/MounRiver_Studio/toolchain/RISC-V Embedded GCC/riscv-none-embed/lib/rv32imafcxw/ilp32f/libm.a(lib_a-sf_scalbn.o)
                0x000000000000608a                scalbnf
 .text.copysignf
                0x000000000000618a       0x1c D:/SoftWare/WW/MounRiver_Studio/MounRiver_Studio/MounRiver/MounRiver_Studio/toolchain/RISC-V Embedded GCC/riscv-none-embed/lib/rv32imafcxw/ilp32f/libm.a(lib_a-sf_copysign.o)
                0x000000000000618a                copysignf
 .text.__adddf3
                0x00000000000061a6      0xa0e d:/software/ww/mounriver_studio/mounriver_studio/mounriver/mounriver_studio/toolchain/risc-v embedded gcc/bin/../lib/gcc/riscv-none-embed/8.2.0/rv32imafcxw/ilp32f\libgcc.a(adddf3.o)
                0x00000000000061a6                __adddf3
 .text.__divdf3
                0x0000000000006bb4      0x7ea d:/software/ww/mounriver_studio/mounriver_studio/mounriver/mounriver_studio/toolchain/risc-v embedded gcc/bin/../lib/gcc/riscv-none-embed/8.2.0/rv32imafcxw/ilp32f\libgcc.a(divdf3.o)
                0x0000000000006bb4                __divdf3
 .text.__ledf2  0x000000000000739e       0xb6 d:/software/ww/mounriver_studio/mounriver_studio/mounriver/mounriver_studio/toolchain/risc-v embedded gcc/bin/../lib/gcc/riscv-none-embed/8.2.0/rv32imafcxw/ilp32f\libgcc.a(ledf2.o)
                0x000000000000739e                __ledf2
                0x000000000000739e                __ltdf2
 .text.__muldf3
                0x0000000000007454      0x656 d:/software/ww/mounriver_studio/mounriver_studio/mounriver/mounriver_studio/toolchain/risc-v embedded gcc/bin/../lib/gcc/riscv-none-embed/8.2.0/rv32imafcxw/ilp32f\libgcc.a(muldf3.o)
                0x0000000000007454                __muldf3
 .text.__subdf3
                0x0000000000007aaa      0xa8c d:/software/ww/mounriver_studio/mounriver_studio/mounriver/mounriver_studio/toolchain/risc-v embedded gcc/bin/../lib/gcc/riscv-none-embed/8.2.0/rv32imafcxw/ilp32f\libgcc.a(subdf3.o)
                0x0000000000007aaa                __subdf3
 .text.__unorddf2
                0x0000000000008536       0x7c d:/software/ww/mounriver_studio/mounriver_studio/mounriver/mounriver_studio/toolchain/risc-v embedded gcc/bin/../lib/gcc/riscv-none-embed/8.2.0/rv32imafcxw/ilp32f\libgcc.a(unorddf2.o)
                0x0000000000008536                __unorddf2
 .text.__extendsfdf2
                0x00000000000085b2       0xe8 d:/software/ww/mounriver_studio/mounriver_studio/mounriver/mounriver_studio/toolchain/risc-v embedded gcc/bin/../lib/gcc/riscv-none-embed/8.2.0/rv32imafcxw/ilp32f\libgcc.a(extendsfdf2.o)
                0x00000000000085b2                __extendsfdf2
 .text.__truncdfsf2
                0x000000000000869a      0x31e d:/software/ww/mounriver_studio/mounriver_studio/mounriver/mounriver_studio/toolchain/risc-v embedded gcc/bin/../lib/gcc/riscv-none-embed/8.2.0/rv32imafcxw/ilp32f\libgcc.a(truncdfsf2.o)
                0x000000000000869a                __truncdfsf2
 .text.__clzsi2
                0x00000000000089b8       0x6e d:/software/ww/mounriver_studio/mounriver_studio/mounriver/mounriver_studio/toolchain/risc-v embedded gcc/bin/../lib/gcc/riscv-none-embed/8.2.0/rv32imafcxw/ilp32f\libgcc.a(_clzsi2.o)
                0x00000000000089b8                __clzsi2
 .text.__errno  0x0000000000008a26        0x8 d:/software/ww/mounriver_studio/mounriver_studio/mounriver/mounriver_studio/toolchain/risc-v embedded gcc/bin/../lib/gcc/riscv-none-embed/8.2.0/../../../../riscv-none-embed/lib/rv32imafcxw/ilp32f\libg_nano.a(lib_a-errno.o)
                0x0000000000008a26                __errno
 .text.memcpy   0x0000000000008a2e       0xb2 d:/software/ww/mounriver_studio/mounriver_studio/mounriver/mounriver_studio/toolchain/risc-v embedded gcc/bin/../lib/gcc/riscv-none-embed/8.2.0/../../../../riscv-none-embed/lib/rv32imafcxw/ilp32f\libg_nano.a(lib_a-memcpy.o)
                0x0000000000008a2e                memcpy
 *(.rodata)
 *(.rodata*)
 *fill*         0x0000000000008ae0        0x0 
 .rodata.MyCfgDescr
                0x0000000000008ae0       0x43 CMakeFiles/CH32V307WCU6.elf.dir/Peripheral/src/usb_desc.c.obj
                0x0000000000008ae0                MyCfgDescr
 *fill*         0x0000000000008b23        0x1 
 .rodata.MyDevDescr
                0x0000000000008b24       0x12 CMakeFiles/CH32V307WCU6.elf.dir/Peripheral/src/usb_desc.c.obj
                0x0000000000008b24                MyDevDescr
 *fill*         0x0000000000008b36        0x2 
 .rodata.MyManuInfo
                0x0000000000008b38        0xe CMakeFiles/CH32V307WCU6.elf.dir/Peripheral/src/usb_desc.c.obj
                0x0000000000008b38                MyManuInfo
 *fill*         0x0000000000008b46        0x2 
 .rodata.MyProdInfo
                0x0000000000008b48       0x16 CMakeFiles/CH32V307WCU6.elf.dir/Peripheral/src/usb_desc.c.obj
                0x0000000000008b48                MyProdInfo
 *fill*         0x0000000000008b5e        0x2 
 .rodata.MySerNumInfo
                0x0000000000008b60       0x16 CMakeFiles/CH32V307WCU6.elf.dir/Peripheral/src/usb_desc.c.obj
                0x0000000000008b60                MySerNumInfo
 *fill*         0x0000000000008b76        0x2 
 .rodata.OTG_FS_IRQHandler
                0x0000000000008b78       0x30 CMakeFiles/CH32V307WCU6.elf.dir/User/MotorPack/Src/Interrupt.c.obj
 .rodata.ADC1_2_IRQHandler
                0x0000000000008ba8       0x34 CMakeFiles/CH32V307WCU6.elf.dir/User/MotorPack/Src/RealTime_Run.cpp.obj
 .rodata.ADC1_2_IRQHandler.cst4
                0x0000000000008bdc       0x30 CMakeFiles/CH32V307WCU6.elf.dir/User/MotorPack/Src/RealTime_Run.cpp.obj
 .rodata.USART1_IRQHandler.cst4
                0x0000000000008c0c       0x10 CMakeFiles/CH32V307WCU6.elf.dir/User/MotorPack/Src/RealTime_Run.cpp.obj
 .rodata.app_main
                0x0000000000008c1c       0x18 CMakeFiles/CH32V307WCU6.elf.dir/User/MotorPack/Src/app_main.cpp.obj
 .rodata._Z41__static_initialization_and_destruction_0ii.cst4
                0x0000000000008c34       0x7c CMakeFiles/CH32V307WCU6.elf.dir/User/MotorPack/Src/app_main.cpp.obj
                                         0x84 (size before relaxing)
 .rodata.app_main.cst4
                0x0000000000008cb0       0x18 CMakeFiles/CH32V307WCU6.elf.dir/User/MotorPack/Src/app_main.cpp.obj
 .rodata._ZN5Motor17measureResistanceEv
                0x0000000000008cc8       0x1c CMakeFiles/CH32V307WCU6.elf.dir/User/MotorPack/Src/motor.cpp.obj
 .rodata._ZN5Motor17measureInductanceEm
                0x0000000000008ce4       0x1c CMakeFiles/CH32V307WCU6.elf.dir/User/MotorPack/Src/motor.cpp.obj
 .rodata._ZN5Motor14measureEncoderEm
                0x0000000000008d00       0x1c CMakeFiles/CH32V307WCU6.elf.dir/User/MotorPack/Src/motor.cpp.obj
 .rodata._ZN5Motor7go_zeroEv
                0x0000000000008d1c       0x1c CMakeFiles/CH32V307WCU6.elf.dir/User/MotorPack/Src/motor.cpp.obj
 .rodata._ZN5Motor12velovityLoopEm.cst4
                0x0000000000008d38        0x4 CMakeFiles/CH32V307WCU6.elf.dir/User/MotorPack/Src/motor.cpp.obj
 .rodata._ZN5Motor13getInductanceEv.cst4
                0x0000000000008d3c        0x4 CMakeFiles/CH32V307WCU6.elf.dir/User/MotorPack/Src/motor.cpp.obj
 .rodata._ZN5Motor14measureEncoderEm.cst4
                0x0000000000008d40        0x4 CMakeFiles/CH32V307WCU6.elf.dir/User/MotorPack/Src/motor.cpp.obj
                                         0x14 (size before relaxing)
 .rodata._ZN5Motor16measure_currentsEttt.cst4
                0x0000000000008d44       0x10 CMakeFiles/CH32V307WCU6.elf.dir/User/MotorPack/Src/motor.cpp.obj
                                         0x14 (size before relaxing)
 .rodata._ZN5Motor17apply_pwm_timingsEv.cst4
                0x0000000000008d54        0x8 CMakeFiles/CH32V307WCU6.elf.dir/User/MotorPack/Src/motor.cpp.obj
 .rodata._ZN5Motor17measureInductanceEm.cst4
                0x0000000000008d5c        0x4 CMakeFiles/CH32V307WCU6.elf.dir/User/MotorPack/Src/motor.cpp.obj
 .rodata._ZN5Motor20measurePhasePhaseVelEv.cst4
                0x0000000000008d60        0x8 CMakeFiles/CH32V307WCU6.elf.dir/User/MotorPack/Src/motor.cpp.obj
 .rodata._ZN5Motor21get_alpha_beta_outputEmPNS_7float2DE.cst4
                0x0000000000008d68        0xc CMakeFiles/CH32V307WCU6.elf.dir/User/MotorPack/Src/motor.cpp.obj
 .rodata._ZN5Motor4InitEP11TIM_TypeDefS1_.cst4
                0x0000000000008d74       0x18 CMakeFiles/CH32V307WCU6.elf.dir/User/MotorPack/Src/motor.cpp.obj
                                         0x78 (size before relaxing)
 .rodata._ZN5Motor7go_zeroEv.cst4
                0x0000000000008d8c       0x14 CMakeFiles/CH32V307WCU6.elf.dir/User/MotorPack/Src/motor.cpp.obj
                                         0x18 (size before relaxing)
 .rodata.floorf.cst4
                0x0000000000008da0        0x4 D:/SoftWare/WW/MounRiver_Studio/MounRiver_Studio/MounRiver/MounRiver_Studio/toolchain/RISC-V Embedded GCC/riscv-none-embed/lib/rv32imafcxw/ilp32f/libm.a(lib_a-sf_floor.o)
                                          0x8 (size before relaxing)
 .rodata.sqrt.str1.4
                0x0000000000008da4        0x5 D:/SoftWare/WW/MounRiver_Studio/MounRiver_Studio/MounRiver/MounRiver_Studio/toolchain/RISC-V Embedded GCC/riscv-none-embed/lib/rv32imafcxw/ilp32f/libm.a(lib_a-w_sqrt.o)
 *fill*         0x0000000000008da9        0x3 
 .rodata.sqrtf.str1.4
                0x0000000000008dac        0x8 D:/SoftWare/WW/MounRiver_Studio/MounRiver_Studio/MounRiver/MounRiver_Studio/toolchain/RISC-V Embedded GCC/riscv-none-embed/lib/rv32imafcxw/ilp32f/libm.a(lib_a-wf_sqrt.o)
                                          0x6 (size before relaxing)
 .rodata.__ieee754_rem_pio2f.cst4
                0x0000000000008db4       0x20 D:/SoftWare/WW/MounRiver_Studio/MounRiver_Studio/MounRiver/MounRiver_Studio/toolchain/RISC-V Embedded GCC/riscv-none-embed/lib/rv32imafcxw/ilp32f/libm.a(lib_a-ef_rem_pio2.o)
                                         0x24 (size before relaxing)
 .rodata.npio2_hw
                0x0000000000008dd4       0x80 D:/SoftWare/WW/MounRiver_Studio/MounRiver_Studio/MounRiver/MounRiver_Studio/toolchain/RISC-V Embedded GCC/riscv-none-embed/lib/rv32imafcxw/ilp32f/libm.a(lib_a-ef_rem_pio2.o)
 .rodata.two_over_pi
                0x0000000000008e54      0x318 D:/SoftWare/WW/MounRiver_Studio/MounRiver_Studio/MounRiver/MounRiver_Studio/toolchain/RISC-V Embedded GCC/riscv-none-embed/lib/rv32imafcxw/ilp32f/libm.a(lib_a-ef_rem_pio2.o)
 .rodata.__kernel_cosf.cst4
                0x000000000000916c       0x20 D:/SoftWare/WW/MounRiver_Studio/MounRiver_Studio/MounRiver/MounRiver_Studio/toolchain/RISC-V Embedded GCC/riscv-none-embed/lib/rv32imafcxw/ilp32f/libm.a(lib_a-kf_cos.o)
                                         0x28 (size before relaxing)
 .rodata.PIo2   0x000000000000918c       0x2c D:/SoftWare/WW/MounRiver_Studio/MounRiver_Studio/MounRiver/MounRiver_Studio/toolchain/RISC-V Embedded GCC/riscv-none-embed/lib/rv32imafcxw/ilp32f/libm.a(lib_a-kf_rem_pio2.o)
 .rodata.__kernel_rem_pio2f.cst4
                0x00000000000091b8        0xc D:/SoftWare/WW/MounRiver_Studio/MounRiver_Studio/MounRiver/MounRiver_Studio/toolchain/RISC-V Embedded GCC/riscv-none-embed/lib/rv32imafcxw/ilp32f/libm.a(lib_a-kf_rem_pio2.o)
                                         0x1c (size before relaxing)
 .rodata.init_jk
                0x00000000000091c4        0xc D:/SoftWare/WW/MounRiver_Studio/MounRiver_Studio/MounRiver/MounRiver_Studio/toolchain/RISC-V Embedded GCC/riscv-none-embed/lib/rv32imafcxw/ilp32f/libm.a(lib_a-kf_rem_pio2.o)
 .rodata.__kernel_sinf.cst4
                0x00000000000091d0       0x1c D:/SoftWare/WW/MounRiver_Studio/MounRiver_Studio/MounRiver/MounRiver_Studio/toolchain/RISC-V Embedded GCC/riscv-none-embed/lib/rv32imafcxw/ilp32f/libm.a(lib_a-kf_sin.o)
                                         0x20 (size before relaxing)
 .rodata.scalbnf.cst4
                0x00000000000091ec        0xc D:/SoftWare/WW/MounRiver_Studio/MounRiver_Studio/MounRiver/MounRiver_Studio/toolchain/RISC-V Embedded GCC/riscv-none-embed/lib/rv32imafcxw/ilp32f/libm.a(lib_a-sf_scalbn.o)
                                         0x10 (size before relaxing)
 .rodata.__divdf3
                0x00000000000091f8       0x40 d:/software/ww/mounriver_studio/mounriver_studio/mounriver/mounriver_studio/toolchain/risc-v embedded gcc/bin/../lib/gcc/riscv-none-embed/8.2.0/rv32imafcxw/ilp32f\libgcc.a(divdf3.o)
 .rodata.__muldf3
                0x0000000000009238       0x40 d:/software/ww/mounriver_studio/mounriver_studio/mounriver/mounriver_studio/toolchain/risc-v embedded gcc/bin/../lib/gcc/riscv-none-embed/8.2.0/rv32imafcxw/ilp32f\libgcc.a(muldf3.o)
 .rodata.__clz_tab
                0x0000000000009278      0x100 d:/software/ww/mounriver_studio/mounriver_studio/mounriver/mounriver_studio/toolchain/risc-v embedded gcc/bin/../lib/gcc/riscv-none-embed/8.2.0/rv32imafcxw/ilp32f\libgcc.a(_clz.o)
                0x0000000000009278                __clz_tab
 *(.gnu.linkonce.t.*)
                0x0000000000009378                . = ALIGN (0x4)

.rela.dyn       0x0000000000009378        0x0
 .rela.init     0x0000000000009378        0x0 CMakeFiles/CH32V307WCU6.elf.dir/Debug/debug.c.obj
 .rela.vector   0x0000000000009378        0x0 CMakeFiles/CH32V307WCU6.elf.dir/Debug/debug.c.obj
 .rela.text.handle_reset
                0x0000000000009378        0x0 CMakeFiles/CH32V307WCU6.elf.dir/Debug/debug.c.obj
 .rela.data.impure_data
                0x0000000000009378        0x0 CMakeFiles/CH32V307WCU6.elf.dir/Debug/debug.c.obj

.fini           0x0000000000009378        0x0
 *(SORT_NONE(.fini))
                0x0000000000009378                . = ALIGN (0x4)
                [!provide]                        PROVIDE (_etext = .)
                [!provide]                        PROVIDE (_eitcm = .)

.preinit_array  0x0000000000009378        0x0
                [!provide]                        PROVIDE (__preinit_array_start = .)
 *(.preinit_array)
                [!provide]                        PROVIDE (__preinit_array_end = .)

.init_array     0x0000000000009378        0x4
                [!provide]                        PROVIDE (__init_array_start = .)
 *(SORT_BY_INIT_PRIORITY(.init_array.*) SORT_BY_INIT_PRIORITY(.ctors.*))
 *(.init_array EXCLUDE_FILE(*crtend?.o *crtend.o *crtbegin?.o *crtbegin.o) .ctors)
 .init_array    0x0000000000009378        0x4 CMakeFiles/CH32V307WCU6.elf.dir/User/MotorPack/Src/app_main.cpp.obj
                [!provide]                        PROVIDE (__init_array_end = .)

.fini_array     0x000000000000937c        0x0
                [!provide]                        PROVIDE (__fini_array_start = .)
 *(SORT_BY_INIT_PRIORITY(.fini_array.*) SORT_BY_INIT_PRIORITY(.dtors.*))
 *(.fini_array EXCLUDE_FILE(*crtend?.o *crtend.o *crtbegin?.o *crtbegin.o) .dtors)
                [!provide]                        PROVIDE (__fini_array_end = .)

.ctors
 *crtbegin.o(.ctors)
 *crtbegin?.o(.ctors)
 *(EXCLUDE_FILE(*crtend?.o *crtend.o) .ctors)
 *(SORT_BY_NAME(.ctors.*))
 *(.ctors)

.dtors
 *crtbegin.o(.dtors)
 *crtbegin?.o(.dtors)
 *(EXCLUDE_FILE(*crtend?.o *crtend.o) .dtors)
 *(SORT_BY_NAME(.dtors.*))
 *(.dtors)

.dalign         0x0000000020000000        0x0 load address 0x000000000000937c
                0x0000000020000000                . = ALIGN (0x4)
                0x0000000020000000                PROVIDE (_data_vma = .)

.dlalign        0x000000000000937c        0x0
                0x000000000000937c                . = ALIGN (0x4)
                0x000000000000937c                PROVIDE (_data_lma = .)

.data           0x0000000020000000       0x90 load address 0x000000000000937c
 *(.gnu.linkonce.r.*)
 *(.data .data.*)
 .data.AHBPrescTable
                0x0000000020000000       0x10 CMakeFiles/CH32V307WCU6.elf.dir/User/MotorPack/Src/system_ch32v30x.c.obj
                0x0000000020000000                AHBPrescTable
 .data.impure_data
                0x0000000020000010       0x60 d:/software/ww/mounriver_studio/mounriver_studio/mounriver/mounriver_studio/toolchain/risc-v embedded gcc/bin/../lib/gcc/riscv-none-embed/8.2.0/../../../../riscv-none-embed/lib/rv32imafcxw/ilp32f\libg_nano.a(lib_a-impure.o)
 *(.gnu.linkonce.d.*)
                0x0000000020000070                . = ALIGN (0x8)
                0x0000000020000870                PROVIDE (__global_pointer$ = (. + 0x800))
 *(.sdata .sdata.*)
 .sdata.SelectState
                0x0000000020000070        0x4 CMakeFiles/CH32V307WCU6.elf.dir/User/MotorPack/Src/app_main.cpp.obj
                0x0000000020000070                SelectState
 .sdata.SystemCoreClock
                0x0000000020000074        0x4 CMakeFiles/CH32V307WCU6.elf.dir/User/MotorPack/Src/system_ch32v30x.c.obj
                0x0000000020000074                SystemCoreClock
 .sdata.__fdlib_version
                0x0000000020000078        0x4 D:/SoftWare/WW/MounRiver_Studio/MounRiver_Studio/MounRiver/MounRiver_Studio/toolchain/RISC-V Embedded GCC/riscv-none-embed/lib/rv32imafcxw/ilp32f/libm.a(lib_a-s_lib_ver.o)
                0x0000000020000078                __fdlib_version
 .sdata._impure_ptr
                0x000000002000007c        0x4 d:/software/ww/mounriver_studio/mounriver_studio/mounriver/mounriver_studio/toolchain/risc-v embedded gcc/bin/../lib/gcc/riscv-none-embed/8.2.0/../../../../riscv-none-embed/lib/rv32imafcxw/ilp32f\libg_nano.a(lib_a-impure.o)
                0x000000002000007c                _impure_ptr
 *(.sdata2.*)
 .sdata2.MyLangDescr
                0x0000000020000080        0x4 CMakeFiles/CH32V307WCU6.elf.dir/Peripheral/src/usb_desc.c.obj
                0x0000000020000080                MyLangDescr
 .sdata2.TWO23  0x0000000020000084        0x8 D:/SoftWare/WW/MounRiver_Studio/MounRiver_Studio/MounRiver/MounRiver_Studio/toolchain/RISC-V Embedded GCC/riscv-none-embed/lib/rv32imafcxw/ilp32f/libm.a(lib_a-sf_rint.o)
 *(.gnu.linkonce.s.*)
                0x0000000020000090                . = ALIGN (0x8)
 *fill*         0x000000002000008c        0x4 
 *(.srodata.cst16)
 *(.srodata.cst8)
 *(.srodata.cst4)
 *(.srodata.cst2)
 *(.srodata .srodata.*)
                0x0000000020000090                . = ALIGN (0x4)
                0x0000000020000090                PROVIDE (_edata = .)

.bss            0x0000000020000090      0xa20 load address 0x000000000000940c
                0x0000000020000090                . = ALIGN (0x4)
                0x0000000020000090                PROVIDE (_sbss = .)
 *(.sbss*)
 .sbss.p_ms     0x0000000020000090        0x2 CMakeFiles/CH32V307WCU6.elf.dir/Debug/debug.c.obj
 .sbss.p_us     0x0000000020000092        0x1 CMakeFiles/CH32V307WCU6.elf.dir/Debug/debug.c.obj
 *fill*         0x0000000020000093        0x1 
 .sbss.NVIC_Priority_Group
                0x0000000020000094        0x4 CMakeFiles/CH32V307WCU6.elf.dir/Peripheral/src/ch32v30x_misc.c.obj
                0x0000000020000094                NVIC_Priority_Group
 .sbss.USBFS_DevAddr
                0x0000000020000098        0x1 CMakeFiles/CH32V307WCU6.elf.dir/Peripheral/src/ch32v30x_usbfs_device.c.obj
                0x0000000020000098                USBFS_DevAddr
 .sbss.USBFS_DevConfig
                0x0000000020000099        0x1 CMakeFiles/CH32V307WCU6.elf.dir/Peripheral/src/ch32v30x_usbfs_device.c.obj
                0x0000000020000099                USBFS_DevConfig
 .sbss.USBFS_DevEnumStatus
                0x000000002000009a        0x1 CMakeFiles/CH32V307WCU6.elf.dir/Peripheral/src/ch32v30x_usbfs_device.c.obj
                0x000000002000009a                USBFS_DevEnumStatus
 .sbss.USBFS_DevSleepStatus
                0x000000002000009b        0x1 CMakeFiles/CH32V307WCU6.elf.dir/Peripheral/src/ch32v30x_usbfs_device.c.obj
                0x000000002000009b                USBFS_DevSleepStatus
 .sbss.USBFS_Endp_Busy
                0x000000002000009c        0x8 CMakeFiles/CH32V307WCU6.elf.dir/Peripheral/src/ch32v30x_usbfs_device.c.obj
                0x000000002000009c                USBFS_Endp_Busy
 .sbss.USBFS_SetupReqCode
                0x00000000200000a4        0x1 CMakeFiles/CH32V307WCU6.elf.dir/Peripheral/src/ch32v30x_usbfs_device.c.obj
                0x00000000200000a4                USBFS_SetupReqCode
 *fill*         0x00000000200000a5        0x1 
 .sbss.USBFS_SetupReqIndex
                0x00000000200000a6        0x2 CMakeFiles/CH32V307WCU6.elf.dir/Peripheral/src/ch32v30x_usbfs_device.c.obj
                0x00000000200000a6                USBFS_SetupReqIndex
 .sbss.USBFS_SetupReqLen
                0x00000000200000a8        0x2 CMakeFiles/CH32V307WCU6.elf.dir/Peripheral/src/ch32v30x_usbfs_device.c.obj
                0x00000000200000a8                USBFS_SetupReqLen
 .sbss.USBFS_SetupReqType
                0x00000000200000aa        0x1 CMakeFiles/CH32V307WCU6.elf.dir/Peripheral/src/ch32v30x_usbfs_device.c.obj
                0x00000000200000aa                USBFS_SetupReqType
 *fill*         0x00000000200000ab        0x1 
 .sbss.USBFS_SetupReqValue
                0x00000000200000ac        0x2 CMakeFiles/CH32V307WCU6.elf.dir/Peripheral/src/ch32v30x_usbfs_device.c.obj
                0x00000000200000ac                USBFS_SetupReqValue
 *fill*         0x00000000200000ae        0x2 
 .sbss.pUSBFS_Descr
                0x00000000200000b0        0x4 CMakeFiles/CH32V307WCU6.elf.dir/Peripheral/src/ch32v30x_usbfs_device.c.obj
                0x00000000200000b0                pUSBFS_Descr
 .sbss._ZZ17USART1_IRQHandlerE5index
                0x00000000200000b4        0x1 CMakeFiles/CH32V307WCU6.elf.dir/User/MotorPack/Src/RealTime_Run.cpp.obj
 .sbss._ZZ17USART1_IRQHandlerE8task_num
                0x00000000200000b5        0x1 CMakeFiles/CH32V307WCU6.elf.dir/User/MotorPack/Src/RealTime_Run.cpp.obj
 .sbss.mode     0x00000000200000b6        0x1 CMakeFiles/CH32V307WCU6.elf.dir/User/MotorPack/Src/RealTime_Run.cpp.obj
                0x00000000200000b6                mode
 *fill*         0x00000000200000b7        0x1 
 .sbss.p1       0x00000000200000b8        0x4 CMakeFiles/CH32V307WCU6.elf.dir/User/MotorPack/Src/RealTime_Run.cpp.obj
                0x00000000200000b8                p1
 .sbss.p2       0x00000000200000bc        0x4 CMakeFiles/CH32V307WCU6.elf.dir/User/MotorPack/Src/RealTime_Run.cpp.obj
                0x00000000200000bc                p2
 .sbss.pos1     0x00000000200000c0        0x4 CMakeFiles/CH32V307WCU6.elf.dir/User/MotorPack/Src/RealTime_Run.cpp.obj
                0x00000000200000c0                pos1
 .sbss.pos2     0x00000000200000c4        0x4 CMakeFiles/CH32V307WCU6.elf.dir/User/MotorPack/Src/RealTime_Run.cpp.obj
                0x00000000200000c4                pos2
 .sbss.timestamp_
                0x00000000200000c8        0x4 CMakeFiles/CH32V307WCU6.elf.dir/User/MotorPack/Src/RealTime_Run.cpp.obj
                0x00000000200000c8                timestamp_
 *(.gnu.linkonce.sb.*)
 *(.bss*)
 .bss.USBFS_EP0_Buf
                0x00000000200000cc       0x40 CMakeFiles/CH32V307WCU6.elf.dir/Peripheral/src/ch32v30x_usbfs_device.c.obj
                0x00000000200000cc                USBFS_EP0_Buf
 .bss.USBFS_EP1_Buf
                0x000000002000010c       0x40 CMakeFiles/CH32V307WCU6.elf.dir/Peripheral/src/ch32v30x_usbfs_device.c.obj
                0x000000002000010c                USBFS_EP1_Buf
 .bss.USBFS_EP2_Buf
                0x000000002000014c       0x40 CMakeFiles/CH32V307WCU6.elf.dir/Peripheral/src/ch32v30x_usbfs_device.c.obj
                0x000000002000014c                USBFS_EP2_Buf
 .bss.USBFS_EP3_Buf
                0x000000002000018c       0x40 CMakeFiles/CH32V307WCU6.elf.dir/Peripheral/src/ch32v30x_usbfs_device.c.obj
                0x000000002000018c                USBFS_EP3_Buf
 .bss.CanTxStructure.4981
                0x00000000200001cc       0x14 CMakeFiles/CH32V307WCU6.elf.dir/User/MotorPack/Src/HardWare.c.obj
 .bss.CanRxStructure
                0x00000000200001e0       0x14 CMakeFiles/CH32V307WCU6.elf.dir/User/MotorPack/Src/RealTime_Run.cpp.obj
                0x00000000200001e0                CanRxStructure
 .bss.USART_Rbuffer
                0x00000000200001f4       0x40 CMakeFiles/CH32V307WCU6.elf.dir/User/MotorPack/Src/RealTime_Run.cpp.obj
                0x00000000200001f4                USART_Rbuffer
 .bss.vofa_data
                0x0000000020000234       0x28 CMakeFiles/CH32V307WCU6.elf.dir/User/MotorPack/Src/RealTime_Run.cpp.obj
                0x0000000020000234                vofa_data
 .bss.vofa_float
                0x000000002000025c       0x24 CMakeFiles/CH32V307WCU6.elf.dir/User/MotorPack/Src/RealTime_Run.cpp.obj
                0x000000002000025c                vofa_float
 .bss.motor     0x0000000020000280      0x830 CMakeFiles/CH32V307WCU6.elf.dir/User/MotorPack/Src/app_main.cpp.obj
                0x0000000020000280                motor
 *(.gnu.linkonce.b.*)
 *(COMMON*)
                0x0000000020000ab0                . = ALIGN (0x4)
                0x0000000020000ab0                PROVIDE (_ebss = .)
                [!provide]                        PROVIDE (_end = _ebss)
                [!provide]                        PROVIDE (end = .)

.stack          0x0000000020007800      0x800
                [!provide]                        PROVIDE (_heap_end = .)
                0x0000000020007800                . = ALIGN (0x4)
                [!provide]                        PROVIDE (_susrstack = .)
                0x0000000020008000                . = (. + __stack_size)
 *fill*         0x0000000020007800      0x800 
                0x0000000020008000                PROVIDE (_eusrstack = .)
OUTPUT(CH32V307WCU6.elf elf32-littleriscv)

.debug_info     0x0000000000000000    0x20e89
 .debug_info    0x0000000000000000      0xa90 CMakeFiles/CH32V307WCU6.elf.dir/Debug/debug.c.obj
 .debug_info    0x0000000000000a90      0xe1c CMakeFiles/CH32V307WCU6.elf.dir/Peripheral/src/ch32v30x_adc.c.obj
 .debug_info    0x00000000000018ac      0xdb2 CMakeFiles/CH32V307WCU6.elf.dir/Peripheral/src/ch32v30x_can.c.obj
 .debug_info    0x000000000000265e      0x9e9 CMakeFiles/CH32V307WCU6.elf.dir/Peripheral/src/ch32v30x_gpio.c.obj
 .debug_info    0x0000000000003047      0x7d4 CMakeFiles/CH32V307WCU6.elf.dir/Peripheral/src/ch32v30x_misc.c.obj
 .debug_info    0x000000000000381b      0xcb7 CMakeFiles/CH32V307WCU6.elf.dir/Peripheral/src/ch32v30x_rcc.c.obj
 .debug_info    0x00000000000044d2     0x21b1 CMakeFiles/CH32V307WCU6.elf.dir/Peripheral/src/ch32v30x_tim.c.obj
 .debug_info    0x0000000000006683      0xc1f CMakeFiles/CH32V307WCU6.elf.dir/Peripheral/src/ch32v30x_usart.c.obj
 .debug_info    0x00000000000072a2     0x17b9 CMakeFiles/CH32V307WCU6.elf.dir/Peripheral/src/ch32v30x_usbfs_device.c.obj
 .debug_info    0x0000000000008a5b      0xa06 CMakeFiles/CH32V307WCU6.elf.dir/Peripheral/src/usb_desc.c.obj
 .debug_info    0x0000000000009461       0x22 CMakeFiles/CH32V307WCU6.elf.dir/Startup/startup_ch32v30x_D8C.S.obj
 .debug_info    0x0000000000009483     0x2817 CMakeFiles/CH32V307WCU6.elf.dir/User/MotorPack/Src/HardWare.c.obj
 .debug_info    0x000000000000bc9a     0x1248 CMakeFiles/CH32V307WCU6.elf.dir/User/MotorPack/Src/Interrupt.c.obj
 .debug_info    0x000000000000cee2     0x645f CMakeFiles/CH32V307WCU6.elf.dir/User/MotorPack/Src/RealTime_Run.cpp.obj
 .debug_info    0x0000000000013341     0x5afb CMakeFiles/CH32V307WCU6.elf.dir/User/MotorPack/Src/app_main.cpp.obj
 .debug_info    0x0000000000018e3c     0x716e CMakeFiles/CH32V307WCU6.elf.dir/User/MotorPack/Src/motor.cpp.obj
 .debug_info    0x000000000001ffaa      0x2d2 CMakeFiles/CH32V307WCU6.elf.dir/User/MotorPack/Src/system_ch32v30x.c.obj
 .debug_info    0x000000000002027c      0xc0d CMakeFiles/CH32V307WCU6.elf.dir/User/main.c.obj

.debug_abbrev   0x0000000000000000     0x37ea
 .debug_abbrev  0x0000000000000000      0x234 CMakeFiles/CH32V307WCU6.elf.dir/Debug/debug.c.obj
 .debug_abbrev  0x0000000000000234      0x215 CMakeFiles/CH32V307WCU6.elf.dir/Peripheral/src/ch32v30x_adc.c.obj
 .debug_abbrev  0x0000000000000449      0x273 CMakeFiles/CH32V307WCU6.elf.dir/Peripheral/src/ch32v30x_can.c.obj
 .debug_abbrev  0x00000000000006bc      0x210 CMakeFiles/CH32V307WCU6.elf.dir/Peripheral/src/ch32v30x_gpio.c.obj
 .debug_abbrev  0x00000000000008cc      0x1d3 CMakeFiles/CH32V307WCU6.elf.dir/Peripheral/src/ch32v30x_misc.c.obj
 .debug_abbrev  0x0000000000000a9f      0x27b CMakeFiles/CH32V307WCU6.elf.dir/Peripheral/src/ch32v30x_rcc.c.obj
 .debug_abbrev  0x0000000000000d1a      0x21b CMakeFiles/CH32V307WCU6.elf.dir/Peripheral/src/ch32v30x_tim.c.obj
 .debug_abbrev  0x0000000000000f35      0x207 CMakeFiles/CH32V307WCU6.elf.dir/Peripheral/src/ch32v30x_usart.c.obj
 .debug_abbrev  0x000000000000113c      0x37d CMakeFiles/CH32V307WCU6.elf.dir/Peripheral/src/ch32v30x_usbfs_device.c.obj
 .debug_abbrev  0x00000000000014b9      0x1c5 CMakeFiles/CH32V307WCU6.elf.dir/Peripheral/src/usb_desc.c.obj
 .debug_abbrev  0x000000000000167e       0x12 CMakeFiles/CH32V307WCU6.elf.dir/Startup/startup_ch32v30x_D8C.S.obj
 .debug_abbrev  0x0000000000001690      0x351 CMakeFiles/CH32V307WCU6.elf.dir/User/MotorPack/Src/HardWare.c.obj
 .debug_abbrev  0x00000000000019e1      0x2c4 CMakeFiles/CH32V307WCU6.elf.dir/User/MotorPack/Src/Interrupt.c.obj
 .debug_abbrev  0x0000000000001ca5      0x713 CMakeFiles/CH32V307WCU6.elf.dir/User/MotorPack/Src/RealTime_Run.cpp.obj
 .debug_abbrev  0x00000000000023b8      0x64f CMakeFiles/CH32V307WCU6.elf.dir/User/MotorPack/Src/app_main.cpp.obj
 .debug_abbrev  0x0000000000002a07      0xa00 CMakeFiles/CH32V307WCU6.elf.dir/User/MotorPack/Src/motor.cpp.obj
 .debug_abbrev  0x0000000000003407      0x19b CMakeFiles/CH32V307WCU6.elf.dir/User/MotorPack/Src/system_ch32v30x.c.obj
 .debug_abbrev  0x00000000000035a2      0x248 CMakeFiles/CH32V307WCU6.elf.dir/User/main.c.obj

.debug_loc      0x0000000000000000     0x768b
 .debug_loc     0x0000000000000000       0x46 CMakeFiles/CH32V307WCU6.elf.dir/Debug/debug.c.obj
 .debug_loc     0x0000000000000046      0xaf3 CMakeFiles/CH32V307WCU6.elf.dir/Peripheral/src/ch32v30x_adc.c.obj
 .debug_loc     0x0000000000000b39      0xd6b CMakeFiles/CH32V307WCU6.elf.dir/Peripheral/src/ch32v30x_can.c.obj
 .debug_loc     0x00000000000018a4      0x7d1 CMakeFiles/CH32V307WCU6.elf.dir/Peripheral/src/ch32v30x_gpio.c.obj
 .debug_loc     0x0000000000002075      0x2ca CMakeFiles/CH32V307WCU6.elf.dir/Peripheral/src/ch32v30x_misc.c.obj
 .debug_loc     0x000000000000233f      0xa35 CMakeFiles/CH32V307WCU6.elf.dir/Peripheral/src/ch32v30x_rcc.c.obj
 .debug_loc     0x0000000000002d74     0x19a7 CMakeFiles/CH32V307WCU6.elf.dir/Peripheral/src/ch32v30x_tim.c.obj
 .debug_loc     0x000000000000471b      0x818 CMakeFiles/CH32V307WCU6.elf.dir/Peripheral/src/ch32v30x_usart.c.obj
 .debug_loc     0x0000000000004f33      0x2a8 CMakeFiles/CH32V307WCU6.elf.dir/Peripheral/src/ch32v30x_usbfs_device.c.obj
 .debug_loc     0x00000000000051db      0x106 CMakeFiles/CH32V307WCU6.elf.dir/User/MotorPack/Src/HardWare.c.obj
 .debug_loc     0x00000000000052e1      0x20b CMakeFiles/CH32V307WCU6.elf.dir/User/MotorPack/Src/Interrupt.c.obj
 .debug_loc     0x00000000000054ec      0x3b1 CMakeFiles/CH32V307WCU6.elf.dir/User/MotorPack/Src/RealTime_Run.cpp.obj
 .debug_loc     0x000000000000589d       0x48 CMakeFiles/CH32V307WCU6.elf.dir/User/MotorPack/Src/app_main.cpp.obj
 .debug_loc     0x00000000000058e5     0x1c8c CMakeFiles/CH32V307WCU6.elf.dir/User/MotorPack/Src/motor.cpp.obj
 .debug_loc     0x0000000000007571      0x11a CMakeFiles/CH32V307WCU6.elf.dir/User/MotorPack/Src/system_ch32v30x.c.obj

.debug_aranges  0x0000000000000000      0xb70
 .debug_aranges
                0x0000000000000000       0x30 CMakeFiles/CH32V307WCU6.elf.dir/Debug/debug.c.obj
 .debug_aranges
                0x0000000000000030      0x150 CMakeFiles/CH32V307WCU6.elf.dir/Peripheral/src/ch32v30x_adc.c.obj
 .debug_aranges
                0x0000000000000180       0xe0 CMakeFiles/CH32V307WCU6.elf.dir/Peripheral/src/ch32v30x_can.c.obj
 .debug_aranges
                0x0000000000000260       0xb0 CMakeFiles/CH32V307WCU6.elf.dir/Peripheral/src/ch32v30x_gpio.c.obj
 .debug_aranges
                0x0000000000000310       0x28 CMakeFiles/CH32V307WCU6.elf.dir/Peripheral/src/ch32v30x_misc.c.obj
 .debug_aranges
                0x0000000000000338      0x1a8 CMakeFiles/CH32V307WCU6.elf.dir/Peripheral/src/ch32v30x_rcc.c.obj
 .debug_aranges
                0x00000000000004e0      0x2f0 CMakeFiles/CH32V307WCU6.elf.dir/Peripheral/src/ch32v30x_tim.c.obj
 .debug_aranges
                0x00000000000007d0      0x100 CMakeFiles/CH32V307WCU6.elf.dir/Peripheral/src/ch32v30x_usart.c.obj
 .debug_aranges
                0x00000000000008d0       0x40 CMakeFiles/CH32V307WCU6.elf.dir/Peripheral/src/ch32v30x_usbfs_device.c.obj
 .debug_aranges
                0x0000000000000910       0x18 CMakeFiles/CH32V307WCU6.elf.dir/Peripheral/src/usb_desc.c.obj
 .debug_aranges
                0x0000000000000928       0x30 CMakeFiles/CH32V307WCU6.elf.dir/Startup/startup_ch32v30x_D8C.S.obj
 .debug_aranges
                0x0000000000000958       0x68 CMakeFiles/CH32V307WCU6.elf.dir/User/MotorPack/Src/HardWare.c.obj
 .debug_aranges
                0x00000000000009c0       0x38 CMakeFiles/CH32V307WCU6.elf.dir/User/MotorPack/Src/Interrupt.c.obj
 .debug_aranges
                0x00000000000009f8       0x50 CMakeFiles/CH32V307WCU6.elf.dir/User/MotorPack/Src/RealTime_Run.cpp.obj
 .debug_aranges
                0x0000000000000a48       0x30 CMakeFiles/CH32V307WCU6.elf.dir/User/MotorPack/Src/app_main.cpp.obj
 .debug_aranges
                0x0000000000000a78       0xa0 CMakeFiles/CH32V307WCU6.elf.dir/User/MotorPack/Src/motor.cpp.obj
 .debug_aranges
                0x0000000000000b18       0x38 CMakeFiles/CH32V307WCU6.elf.dir/User/MotorPack/Src/system_ch32v30x.c.obj
 .debug_aranges
                0x0000000000000b50       0x20 CMakeFiles/CH32V307WCU6.elf.dir/User/main.c.obj

.debug_ranges   0x0000000000000000      0xbb0
 .debug_ranges  0x0000000000000000       0x20 CMakeFiles/CH32V307WCU6.elf.dir/Debug/debug.c.obj
 .debug_ranges  0x0000000000000020      0x140 CMakeFiles/CH32V307WCU6.elf.dir/Peripheral/src/ch32v30x_adc.c.obj
 .debug_ranges  0x0000000000000160       0xd0 CMakeFiles/CH32V307WCU6.elf.dir/Peripheral/src/ch32v30x_can.c.obj
 .debug_ranges  0x0000000000000230       0xa0 CMakeFiles/CH32V307WCU6.elf.dir/Peripheral/src/ch32v30x_gpio.c.obj
 .debug_ranges  0x00000000000002d0       0x18 CMakeFiles/CH32V307WCU6.elf.dir/Peripheral/src/ch32v30x_misc.c.obj
 .debug_ranges  0x00000000000002e8      0x198 CMakeFiles/CH32V307WCU6.elf.dir/Peripheral/src/ch32v30x_rcc.c.obj
 .debug_ranges  0x0000000000000480      0x2e0 CMakeFiles/CH32V307WCU6.elf.dir/Peripheral/src/ch32v30x_tim.c.obj
 .debug_ranges  0x0000000000000760       0xf0 CMakeFiles/CH32V307WCU6.elf.dir/Peripheral/src/ch32v30x_usart.c.obj
 .debug_ranges  0x0000000000000850       0x30 CMakeFiles/CH32V307WCU6.elf.dir/Peripheral/src/ch32v30x_usbfs_device.c.obj
 .debug_ranges  0x0000000000000880       0x28 CMakeFiles/CH32V307WCU6.elf.dir/Startup/startup_ch32v30x_D8C.S.obj
 .debug_ranges  0x00000000000008a8       0x58 CMakeFiles/CH32V307WCU6.elf.dir/User/MotorPack/Src/HardWare.c.obj
 .debug_ranges  0x0000000000000900       0x28 CMakeFiles/CH32V307WCU6.elf.dir/User/MotorPack/Src/Interrupt.c.obj
 .debug_ranges  0x0000000000000928       0x98 CMakeFiles/CH32V307WCU6.elf.dir/User/MotorPack/Src/RealTime_Run.cpp.obj
 .debug_ranges  0x00000000000009c0       0x38 CMakeFiles/CH32V307WCU6.elf.dir/User/MotorPack/Src/app_main.cpp.obj
 .debug_ranges  0x00000000000009f8      0x180 CMakeFiles/CH32V307WCU6.elf.dir/User/MotorPack/Src/motor.cpp.obj
 .debug_ranges  0x0000000000000b78       0x28 CMakeFiles/CH32V307WCU6.elf.dir/User/MotorPack/Src/system_ch32v30x.c.obj
 .debug_ranges  0x0000000000000ba0       0x10 CMakeFiles/CH32V307WCU6.elf.dir/User/main.c.obj

.debug_line     0x0000000000000000    0x14bc3
 .debug_line    0x0000000000000000      0x4ad CMakeFiles/CH32V307WCU6.elf.dir/Debug/debug.c.obj
 .debug_line    0x00000000000004ad     0x17cb CMakeFiles/CH32V307WCU6.elf.dir/Peripheral/src/ch32v30x_adc.c.obj
 .debug_line    0x0000000000001c78     0x1c27 CMakeFiles/CH32V307WCU6.elf.dir/Peripheral/src/ch32v30x_can.c.obj
 .debug_line    0x000000000000389f     0x1003 CMakeFiles/CH32V307WCU6.elf.dir/Peripheral/src/ch32v30x_gpio.c.obj
 .debug_line    0x00000000000048a2      0x69b CMakeFiles/CH32V307WCU6.elf.dir/Peripheral/src/ch32v30x_misc.c.obj
 .debug_line    0x0000000000004f3d     0x19e5 CMakeFiles/CH32V307WCU6.elf.dir/Peripheral/src/ch32v30x_rcc.c.obj
 .debug_line    0x0000000000006922     0x310d CMakeFiles/CH32V307WCU6.elf.dir/Peripheral/src/ch32v30x_tim.c.obj
 .debug_line    0x0000000000009a2f     0x1035 CMakeFiles/CH32V307WCU6.elf.dir/Peripheral/src/ch32v30x_usart.c.obj
 .debug_line    0x000000000000aa64      0x916 CMakeFiles/CH32V307WCU6.elf.dir/Peripheral/src/ch32v30x_usbfs_device.c.obj
 .debug_line    0x000000000000b37a      0x2f1 CMakeFiles/CH32V307WCU6.elf.dir/Peripheral/src/usb_desc.c.obj
 .debug_line    0x000000000000b66b      0x37e CMakeFiles/CH32V307WCU6.elf.dir/Startup/startup_ch32v30x_D8C.S.obj
 .debug_line    0x000000000000b9e9     0x108d CMakeFiles/CH32V307WCU6.elf.dir/User/MotorPack/Src/HardWare.c.obj
 .debug_line    0x000000000000ca76     0x132e CMakeFiles/CH32V307WCU6.elf.dir/User/MotorPack/Src/Interrupt.c.obj
 .debug_line    0x000000000000dda4     0x177e CMakeFiles/CH32V307WCU6.elf.dir/User/MotorPack/Src/RealTime_Run.cpp.obj
 .debug_line    0x000000000000f522      0xc41 CMakeFiles/CH32V307WCU6.elf.dir/User/MotorPack/Src/app_main.cpp.obj
 .debug_line    0x0000000000010163     0x3e78 CMakeFiles/CH32V307WCU6.elf.dir/User/MotorPack/Src/motor.cpp.obj
 .debug_line    0x0000000000013fdb      0x7d0 CMakeFiles/CH32V307WCU6.elf.dir/User/MotorPack/Src/system_ch32v30x.c.obj
 .debug_line    0x00000000000147ab      0x418 CMakeFiles/CH32V307WCU6.elf.dir/User/main.c.obj

.debug_str      0x0000000000000000     0xb82a
 .debug_str     0x0000000000000000      0x5d1 CMakeFiles/CH32V307WCU6.elf.dir/Debug/debug.c.obj
                                        0x670 (size before relaxing)
 .debug_str     0x00000000000005d1      0x60a CMakeFiles/CH32V307WCU6.elf.dir/Peripheral/src/ch32v30x_adc.c.obj
                                        0x88b (size before relaxing)
 .debug_str     0x0000000000000bdb      0x553 CMakeFiles/CH32V307WCU6.elf.dir/Peripheral/src/ch32v30x_can.c.obj
                                        0x82f (size before relaxing)
 .debug_str     0x000000000000112e      0x3bf CMakeFiles/CH32V307WCU6.elf.dir/Peripheral/src/ch32v30x_gpio.c.obj
                                        0x624 (size before relaxing)
 .debug_str     0x00000000000014ed      0x6f1 CMakeFiles/CH32V307WCU6.elf.dir/Peripheral/src/ch32v30x_misc.c.obj
                                        0x93f (size before relaxing)
 .debug_str     0x0000000000001bde      0x68c CMakeFiles/CH32V307WCU6.elf.dir/Peripheral/src/ch32v30x_rcc.c.obj
                                        0x93e (size before relaxing)
 .debug_str     0x000000000000226a      0xbc1 CMakeFiles/CH32V307WCU6.elf.dir/Peripheral/src/ch32v30x_tim.c.obj
                                        0xeef (size before relaxing)
 .debug_str     0x0000000000002e2b      0x41c CMakeFiles/CH32V307WCU6.elf.dir/Peripheral/src/ch32v30x_usart.c.obj
                                        0x78b (size before relaxing)
 .debug_str     0x0000000000003247      0x562 CMakeFiles/CH32V307WCU6.elf.dir/Peripheral/src/ch32v30x_usbfs_device.c.obj
                                       0x1208 (size before relaxing)
 .debug_str     0x00000000000037a9       0x45 CMakeFiles/CH32V307WCU6.elf.dir/Peripheral/src/usb_desc.c.obj
                                        0x660 (size before relaxing)
 .debug_str     0x00000000000037ee       0x56 CMakeFiles/CH32V307WCU6.elf.dir/Startup/startup_ch32v30x_D8C.S.obj
                                         0x93 (size before relaxing)
 .debug_str     0x0000000000003844      0x1a7 CMakeFiles/CH32V307WCU6.elf.dir/User/MotorPack/Src/HardWare.c.obj
                                       0x197c (size before relaxing)
 .debug_str     0x00000000000039eb      0x105 CMakeFiles/CH32V307WCU6.elf.dir/User/MotorPack/Src/Interrupt.c.obj
                                       0x106d (size before relaxing)
 .debug_str     0x0000000000003af0     0x72db CMakeFiles/CH32V307WCU6.elf.dir/User/MotorPack/Src/RealTime_Run.cpp.obj
                                       0x7edf (size before relaxing)
 .debug_str     0x000000000000adcb      0x16d CMakeFiles/CH32V307WCU6.elf.dir/User/MotorPack/Src/app_main.cpp.obj
                                       0x7bb3 (size before relaxing)
 .debug_str     0x000000000000af38      0x829 CMakeFiles/CH32V307WCU6.elf.dir/User/MotorPack/Src/motor.cpp.obj
                                       0x827f (size before relaxing)
 .debug_str     0x000000000000b761       0x92 CMakeFiles/CH32V307WCU6.elf.dir/User/MotorPack/Src/system_ch32v30x.c.obj
                                        0x34f (size before relaxing)
 .debug_str     0x000000000000b7f3       0x37 CMakeFiles/CH32V307WCU6.elf.dir/User/main.c.obj
                                        0x82c (size before relaxing)

.comment        0x0000000000000000       0x33
 .comment       0x0000000000000000       0x33 CMakeFiles/CH32V307WCU6.elf.dir/Debug/debug.c.obj
                                         0x34 (size before relaxing)
 .comment       0x0000000000000033       0x34 CMakeFiles/CH32V307WCU6.elf.dir/Peripheral/src/ch32v30x_adc.c.obj
 .comment       0x0000000000000033       0x34 CMakeFiles/CH32V307WCU6.elf.dir/Peripheral/src/ch32v30x_can.c.obj
 .comment       0x0000000000000033       0x34 CMakeFiles/CH32V307WCU6.elf.dir/Peripheral/src/ch32v30x_gpio.c.obj
 .comment       0x0000000000000033       0x34 CMakeFiles/CH32V307WCU6.elf.dir/Peripheral/src/ch32v30x_misc.c.obj
 .comment       0x0000000000000033       0x34 CMakeFiles/CH32V307WCU6.elf.dir/Peripheral/src/ch32v30x_rcc.c.obj
 .comment       0x0000000000000033       0x34 CMakeFiles/CH32V307WCU6.elf.dir/Peripheral/src/ch32v30x_tim.c.obj
 .comment       0x0000000000000033       0x34 CMakeFiles/CH32V307WCU6.elf.dir/Peripheral/src/ch32v30x_usart.c.obj
 .comment       0x0000000000000033       0x34 CMakeFiles/CH32V307WCU6.elf.dir/Peripheral/src/ch32v30x_usbfs_device.c.obj
 .comment       0x0000000000000033       0x34 CMakeFiles/CH32V307WCU6.elf.dir/Peripheral/src/usb_desc.c.obj
 .comment       0x0000000000000033       0x34 CMakeFiles/CH32V307WCU6.elf.dir/User/MotorPack/Src/HardWare.c.obj
 .comment       0x0000000000000033       0x34 CMakeFiles/CH32V307WCU6.elf.dir/User/MotorPack/Src/Interrupt.c.obj
 .comment       0x0000000000000033       0x34 CMakeFiles/CH32V307WCU6.elf.dir/User/MotorPack/Src/RealTime_Run.cpp.obj
 .comment       0x0000000000000033       0x34 CMakeFiles/CH32V307WCU6.elf.dir/User/MotorPack/Src/app_main.cpp.obj
 .comment       0x0000000000000033       0x34 CMakeFiles/CH32V307WCU6.elf.dir/User/MotorPack/Src/motor.cpp.obj
 .comment       0x0000000000000033       0x34 CMakeFiles/CH32V307WCU6.elf.dir/User/MotorPack/Src/system_ch32v30x.c.obj
 .comment       0x0000000000000033       0x34 CMakeFiles/CH32V307WCU6.elf.dir/User/main.c.obj

.debug_frame    0x0000000000000000     0x1b14
 .debug_frame   0x0000000000000000       0x40 CMakeFiles/CH32V307WCU6.elf.dir/Debug/debug.c.obj
 .debug_frame   0x0000000000000040      0x2b0 CMakeFiles/CH32V307WCU6.elf.dir/Peripheral/src/ch32v30x_adc.c.obj
 .debug_frame   0x00000000000002f0      0x1c0 CMakeFiles/CH32V307WCU6.elf.dir/Peripheral/src/ch32v30x_can.c.obj
 .debug_frame   0x00000000000004b0      0x174 CMakeFiles/CH32V307WCU6.elf.dir/Peripheral/src/ch32v30x_gpio.c.obj
 .debug_frame   0x0000000000000624       0x30 CMakeFiles/CH32V307WCU6.elf.dir/Peripheral/src/ch32v30x_misc.c.obj
 .debug_frame   0x0000000000000654      0x344 CMakeFiles/CH32V307WCU6.elf.dir/Peripheral/src/ch32v30x_rcc.c.obj
 .debug_frame   0x0000000000000998      0x634 CMakeFiles/CH32V307WCU6.elf.dir/Peripheral/src/ch32v30x_tim.c.obj
 .debug_frame   0x0000000000000fcc      0x204 CMakeFiles/CH32V307WCU6.elf.dir/Peripheral/src/ch32v30x_usart.c.obj
 .debug_frame   0x00000000000011d0       0x9c CMakeFiles/CH32V307WCU6.elf.dir/Peripheral/src/ch32v30x_usbfs_device.c.obj
 .debug_frame   0x000000000000126c      0x180 CMakeFiles/CH32V307WCU6.elf.dir/User/MotorPack/Src/HardWare.c.obj
 .debug_frame   0x00000000000013ec       0xd0 CMakeFiles/CH32V307WCU6.elf.dir/User/MotorPack/Src/Interrupt.c.obj
 .debug_frame   0x00000000000014bc       0x74 CMakeFiles/CH32V307WCU6.elf.dir/User/MotorPack/Src/system_ch32v30x.c.obj
 .debug_frame   0x0000000000001530       0x28 CMakeFiles/CH32V307WCU6.elf.dir/User/main.c.obj
 .debug_frame   0x0000000000001558       0x38 D:/SoftWare/WW/MounRiver_Studio/MounRiver_Studio/MounRiver/MounRiver_Studio/toolchain/RISC-V Embedded GCC/riscv-none-embed/lib/rv32imafcxw/ilp32f/libm.a(lib_a-sf_cos.o)
 .debug_frame   0x0000000000001590       0x20 D:/SoftWare/WW/MounRiver_Studio/MounRiver_Studio/MounRiver/MounRiver_Studio/toolchain/RISC-V Embedded GCC/riscv-none-embed/lib/rv32imafcxw/ilp32f/libm.a(lib_a-sf_floor.o)
 .debug_frame   0x00000000000015b0       0x20 D:/SoftWare/WW/MounRiver_Studio/MounRiver_Studio/MounRiver/MounRiver_Studio/toolchain/RISC-V Embedded GCC/riscv-none-embed/lib/rv32imafcxw/ilp32f/libm.a(lib_a-sf_nearbyint.o)
 .debug_frame   0x00000000000015d0       0x2c D:/SoftWare/WW/MounRiver_Studio/MounRiver_Studio/MounRiver/MounRiver_Studio/toolchain/RISC-V Embedded GCC/riscv-none-embed/lib/rv32imafcxw/ilp32f/libm.a(lib_a-sf_rint.o)
 .debug_frame   0x00000000000015fc       0x38 D:/SoftWare/WW/MounRiver_Studio/MounRiver_Studio/MounRiver/MounRiver_Studio/toolchain/RISC-V Embedded GCC/riscv-none-embed/lib/rv32imafcxw/ilp32f/libm.a(lib_a-sf_sin.o)
 .debug_frame   0x0000000000001634       0x44 D:/SoftWare/WW/MounRiver_Studio/MounRiver_Studio/MounRiver/MounRiver_Studio/toolchain/RISC-V Embedded GCC/riscv-none-embed/lib/rv32imafcxw/ilp32f/libm.a(lib_a-w_sqrt.o)
 .debug_frame   0x0000000000001678       0x44 D:/SoftWare/WW/MounRiver_Studio/MounRiver_Studio/MounRiver/MounRiver_Studio/toolchain/RISC-V Embedded GCC/riscv-none-embed/lib/rv32imafcxw/ilp32f/libm.a(lib_a-wf_sqrt.o)
 .debug_frame   0x00000000000016bc       0x48 D:/SoftWare/WW/MounRiver_Studio/MounRiver_Studio/MounRiver/MounRiver_Studio/toolchain/RISC-V Embedded GCC/riscv-none-embed/lib/rv32imafcxw/ilp32f/libm.a(lib_a-e_sqrt.o)
 .debug_frame   0x0000000000001704       0x5c D:/SoftWare/WW/MounRiver_Studio/MounRiver_Studio/MounRiver/MounRiver_Studio/toolchain/RISC-V Embedded GCC/riscv-none-embed/lib/rv32imafcxw/ilp32f/libm.a(lib_a-ef_rem_pio2.o)
 .debug_frame   0x0000000000001760       0x20 D:/SoftWare/WW/MounRiver_Studio/MounRiver_Studio/MounRiver/MounRiver_Studio/toolchain/RISC-V Embedded GCC/riscv-none-embed/lib/rv32imafcxw/ilp32f/libm.a(lib_a-ef_sqrt.o)
 .debug_frame   0x0000000000001780       0x20 D:/SoftWare/WW/MounRiver_Studio/MounRiver_Studio/MounRiver/MounRiver_Studio/toolchain/RISC-V Embedded GCC/riscv-none-embed/lib/rv32imafcxw/ilp32f/libm.a(lib_a-kf_cos.o)
 .debug_frame   0x00000000000017a0       0x80 D:/SoftWare/WW/MounRiver_Studio/MounRiver_Studio/MounRiver/MounRiver_Studio/toolchain/RISC-V Embedded GCC/riscv-none-embed/lib/rv32imafcxw/ilp32f/libm.a(lib_a-kf_rem_pio2.o)
 .debug_frame   0x0000000000001820       0x20 D:/SoftWare/WW/MounRiver_Studio/MounRiver_Studio/MounRiver/MounRiver_Studio/toolchain/RISC-V Embedded GCC/riscv-none-embed/lib/rv32imafcxw/ilp32f/libm.a(lib_a-kf_sin.o)
 .debug_frame   0x0000000000001840       0x20 D:/SoftWare/WW/MounRiver_Studio/MounRiver_Studio/MounRiver/MounRiver_Studio/toolchain/RISC-V Embedded GCC/riscv-none-embed/lib/rv32imafcxw/ilp32f/libm.a(lib_a-s_matherr.o)
 .debug_frame   0x0000000000001860       0x20 D:/SoftWare/WW/MounRiver_Studio/MounRiver_Studio/MounRiver/MounRiver_Studio/toolchain/RISC-V Embedded GCC/riscv-none-embed/lib/rv32imafcxw/ilp32f/libm.a(lib_a-sf_fabs.o)
 .debug_frame   0x0000000000001880       0x44 D:/SoftWare/WW/MounRiver_Studio/MounRiver_Studio/MounRiver/MounRiver_Studio/toolchain/RISC-V Embedded GCC/riscv-none-embed/lib/rv32imafcxw/ilp32f/libm.a(lib_a-sf_scalbn.o)
 .debug_frame   0x00000000000018c4       0x20 D:/SoftWare/WW/MounRiver_Studio/MounRiver_Studio/MounRiver/MounRiver_Studio/toolchain/RISC-V Embedded GCC/riscv-none-embed/lib/rv32imafcxw/ilp32f/libm.a(lib_a-sf_copysign.o)
 .debug_frame   0x00000000000018e4       0x44 d:/software/ww/mounriver_studio/mounriver_studio/mounriver/mounriver_studio/toolchain/risc-v embedded gcc/bin/../lib/gcc/riscv-none-embed/8.2.0/rv32imafcxw/ilp32f\libgcc.a(adddf3.o)
 .debug_frame   0x0000000000001928       0x58 d:/software/ww/mounriver_studio/mounriver_studio/mounriver/mounriver_studio/toolchain/risc-v embedded gcc/bin/../lib/gcc/riscv-none-embed/8.2.0/rv32imafcxw/ilp32f\libgcc.a(divdf3.o)
 .debug_frame   0x0000000000001980       0x20 d:/software/ww/mounriver_studio/mounriver_studio/mounriver/mounriver_studio/toolchain/risc-v embedded gcc/bin/../lib/gcc/riscv-none-embed/8.2.0/rv32imafcxw/ilp32f\libgcc.a(ledf2.o)
 .debug_frame   0x00000000000019a0       0x58 d:/software/ww/mounriver_studio/mounriver_studio/mounriver/mounriver_studio/toolchain/risc-v embedded gcc/bin/../lib/gcc/riscv-none-embed/8.2.0/rv32imafcxw/ilp32f\libgcc.a(muldf3.o)
 .debug_frame   0x00000000000019f8       0x44 d:/software/ww/mounriver_studio/mounriver_studio/mounriver/mounriver_studio/toolchain/risc-v embedded gcc/bin/../lib/gcc/riscv-none-embed/8.2.0/rv32imafcxw/ilp32f\libgcc.a(subdf3.o)
 .debug_frame   0x0000000000001a3c       0x20 d:/software/ww/mounriver_studio/mounriver_studio/mounriver/mounriver_studio/toolchain/risc-v embedded gcc/bin/../lib/gcc/riscv-none-embed/8.2.0/rv32imafcxw/ilp32f\libgcc.a(unorddf2.o)
 .debug_frame   0x0000000000001a5c       0x38 d:/software/ww/mounriver_studio/mounriver_studio/mounriver/mounriver_studio/toolchain/risc-v embedded gcc/bin/../lib/gcc/riscv-none-embed/8.2.0/rv32imafcxw/ilp32f\libgcc.a(extendsfdf2.o)
 .debug_frame   0x0000000000001a94       0x20 d:/software/ww/mounriver_studio/mounriver_studio/mounriver/mounriver_studio/toolchain/risc-v embedded gcc/bin/../lib/gcc/riscv-none-embed/8.2.0/rv32imafcxw/ilp32f\libgcc.a(truncdfsf2.o)
 .debug_frame   0x0000000000001ab4       0x20 d:/software/ww/mounriver_studio/mounriver_studio/mounriver/mounriver_studio/toolchain/risc-v embedded gcc/bin/../lib/gcc/riscv-none-embed/8.2.0/rv32imafcxw/ilp32f\libgcc.a(_clzsi2.o)
 .debug_frame   0x0000000000001ad4       0x20 d:/software/ww/mounriver_studio/mounriver_studio/mounriver/mounriver_studio/toolchain/risc-v embedded gcc/bin/../lib/gcc/riscv-none-embed/8.2.0/../../../../riscv-none-embed/lib/rv32imafcxw/ilp32f\libg_nano.a(lib_a-errno.o)
 .debug_frame   0x0000000000001af4       0x20 d:/software/ww/mounriver_studio/mounriver_studio/mounriver/mounriver_studio/toolchain/risc-v embedded gcc/bin/../lib/gcc/riscv-none-embed/8.2.0/../../../../riscv-none-embed/lib/rv32imafcxw/ilp32f\libg_nano.a(lib_a-memcpy.o)
